(dp0
cnumpy.core.multiarray
scalar
p1
(cnumpy
dtype
p2
(S'S4'
p3
I0
I1
tp4
Rp5
(I3
S'|'
p6
NNNI4
I1
I0
tp7
bS'good'
p8
tp9
Rp10
(lp11
S'animations/Stand/Gestures/Enthusiastic_1'
p12
aS'animations/Stand/Gestures/Enthusiastic_2'
p13
aS'animations/Stand/Gestures/Enthusiastic_3'
p14
aS'animations/Stand/Gestures/Enthusiastic_4'
p15
aS'animations/Stand/Gestures/Enthusiastic_5'
p16
aS'animations/Stand/Gestures/Caress_1'
p17
aS'animations/Stand/Gestures/Caress_2'
p18
aS'animations/Stand/Gestures/Coaxing_1'
p19
aS'animations/Stand/Gestures/Coaxing_2'
p20
aS'animations/Stand/Gestures/Give_1'
p21
aS'animations/Stand/Gestures/Give_2'
p22
aS'animations/Stand/Gestures/Give_3'
p23
aS'animations/Stand/Gestures/Give_4'
p24
aS'animations/Stand/Gestures/Give_5'
p25
aS'animations/Stand/Gestures/Give_6'
p26
aS'animations/Stand/Gestures/Joy_1'
p27
aS'animations/Stand/Gestures/Caress_2'
p28
aS'animations/Sit/Reactions/ShakeBody_1'
p29
aS'animations/Sit/Reactions/ShakeBody_2'
p30
aS'animations/Sit/Reactions/ShakeBody_3'
p31
aS'animations/Stand/Reactions/ShakeBody_1'
p32
aS'animations/Stand/Reactions/ShakeBody_2'
p33
aS'animations/Stand/Reactions/ShakeBody_3'
p34
aS'animations/Stand/Gestures/Salute_1'
p35
aS'animations/Stand/Gestures/Salute_2'
p36
aS'animations/Stand/Gestures/Salute_3'
p37
aS'animations/Sit/Emotions/Negative/Angry_1'
p38
aS'animations/Stand/Emotions/Negative/Angry_1'
p39
aS'animations/Stand/Emotions/Negative/Angry_2'
p40
aS'animations/Stand/Emotions/Negative/Angry_3'
p41
aS'animations/Stand/Emotions/Negative/Angry_4'
p42
aS'animations/Stand/Waiting/Bandmaster_1'
p43
aS'animations/Stand/Emotions/Neutral/Mischievous_1'
p44
aS'animations/Stand/Emotions/Positive/Proud_1'
p45
aS'animations/Stand/Emotions/Positive/Proud_2'
p46
aS'animations/Stand/Emotions/Positive/Proud_3'
p47
aS'animations/Sit/Waiting/Relaxation_1'
p48
aS'animations/Sit/Waiting/Relaxation_2'
p49
aS'animations/Sit/Waiting/Relaxation_3'
p50
aS'animations/Stand/Waiting/Relaxation_1'
p51
aS'animations/Stand/Waiting/Relaxation_2'
p52
aS'animations/Stand/Waiting/Relaxation_3'
p53
aS'animations/Stand/Waiting/Relaxation_4'
p54
aS'animations/Stand/Emotions/Positive/Peaceful_1'
p55
aS'animations/Stand/Gestures/CalmDown_1'
p56
aS'animations/Stand/Gestures/CalmDown_2'
p57
aS'animations/Stand/Gestures/CalmDown_3'
p58
aS'animations/Stand/Gestures/CalmDown_4'
p59
aS'animations/Stand/Gestures/CalmDown_5'
p60
aS'animations/Stand/Gestures/CalmDown_6'
p61
aS'animations/Stand/Gestures/Caress_1'
p62
aS'animations/Stand/Gestures/Caress_2'
p63
aS'animations/Stand/Emotions/Positive/Enthusiastic_1'
p64
aS'animations/Sit/Emotions/Negative/Angry_1'
p65
aS'animations/Stand/Emotions/Negative/Angry_1'
p66
aS'animations/Stand/Emotions/Negative/Angry_2'
p67
aS'animations/Stand/Emotions/Negative/Angry_3'
p68
aS'animations/Stand/Emotions/Negative/Angry_4'
p69
aS'animations/Stand/Gestures/Angry_1'
p70
aS'animations/Stand/Gestures/Angry_2'
p71
aS'animations/Stand/Gestures/Angry_3'
p72
aS'animations/Sit/Waiting/ZenCircles_1'
p73
aS'animations/Stand/Emotions/Positive/Proud_1'
p74
aS'animations/Stand/Emotions/Positive/Proud_2'
p75
aS'animations/Stand/Emotions/Positive/Proud_3'
p76
aS'animations/Stand/Emotions/Neutral/Lonely_1'
p77
aS'animations/Stand/Emotions/Neutral/Embarrassed_1'
p78
aS'animations/Stand/Emotions/Negative/Anxious_1'
p79
aS'animations/Stand/Emotions/Neutral/Annoyed_1'
p80
aS'animations/Stand/Emotions/Neutral/Embarrassed_1'
p81
aS'animations/Sit/Emotions/Negative/Angry_1'
p82
aS'animations/Stand/Emotions/Negative/Angry_1'
p83
aS'animations/Stand/Emotions/Negative/Angry_2'
p84
aS'animations/Stand/Emotions/Negative/Angry_3'
p85
aS'animations/Stand/Emotions/Negative/Angry_4'
p86
aS'animations/Stand/Gestures/Reject_1'
p87
aS'animations/Stand/Gestures/Reject_2'
p88
aS'animations/Stand/Gestures/Reject_3'
p89
aS'animations/Stand/Gestures/Reject_4'
p90
aS'animations/Stand/Gestures/Reject_5'
p91
aS'animations/Stand/Gestures/Reject_6'
p92
aS'animations/Stand/Gestures/Desperate_1'
p93
aS'animations/Stand/Gestures/Desperate_2'
p94
aS'animations/Stand/Gestures/Desperate_3'
p95
aS'animations/Stand/Gestures/Desperate_4'
p96
aS'animations/Stand/Gestures/Desperate_5'
p97
aS'animations/Stand/Waiting/Waddle_1'
p98
aS'animations/Stand/Waiting/Waddle_2'
p99
aS'animations/Stand/Gestures/Freeze_1'
p100
aS'animations/Stand/Gestures/Desperate_1'
p101
aS'animations/Stand/Gestures/Desperate_2'
p102
aS'animations/Stand/Gestures/Desperate_3'
p103
aS'animations/Stand/Gestures/Desperate_4'
p104
aS'animations/Stand/Gestures/Desperate_5'
p105
aS'animations/Stand/Emotions/Positive/Relieved_1'
p106
aS'animations/Sit/Emotions/Positive/Winner_1'
p107
aS'animations/Stand/Emotions/Positive/Winner_1'
p108
aS'animations/Stand/Emotions/Positive/Winner_2'
p109
aS'animations/Sit/Emotions/Neutral/AskForAttention_2'
p110
aS'animations/Sit/Gestures/Hey_3'
p111
aS'animations/SitOnPod/Gestures/Hey_1'
p112
aS'animations/SitOnPod/Gestures/Hey_2'
p113
aS'animations/SitOnPod/Gestures/Hey_3'
p114
aS'animations/SitOnPod/Gestures/Hey_4'
p115
aS'animations/Stand/Emotions/Neutral/AskForAttention_2'
p116
aS'animations/Stand/Gestures/Hey_1'
p117
aS'animations/Stand/Gestures/Hey_2'
p118
aS'animations/Stand/Gestures/Hey_3'
p119
aS'animations/Stand/Gestures/Hey_4'
p120
aS'animations/Stand/Gestures/Hey_5'
p121
aS'animations/Stand/Gestures/CalmDown_1'
p122
aS'animations/Stand/Gestures/CalmDown_2'
p123
aS'animations/Stand/Gestures/CalmDown_3'
p124
aS'animations/Stand/Gestures/CalmDown_4'
p125
aS'animations/Stand/Gestures/CalmDown_5'
p126
aS'animations/Stand/Gestures/CalmDown_6'
p127
aS'animations/Stand/Gestures/Caress_2'
p128
aS'animations/Stand/Emotions/Positive/Enthusiastic_1'
p129
aS'animations/Stand/Gestures/Enthusiastic_1'
p130
aS'animations/Stand/Gestures/Enthusiastic_2'
p131
aS'animations/Stand/Gestures/Enthusiastic_3'
p132
aS'animations/Stand/Gestures/Enthusiastic_4'
p133
aS'animations/Stand/Gestures/Enthusiastic_5'
p134
aS'animations/Stand/Emotions/Neutral/Puzzled_1'
p135
aS'animations/Stand/Emotions/Positive/Enthusiastic_1'
p136
aS'animations/Stand/Emotions/Positive/Excited_1'
p137
aS'animations/Stand/Emotions/Positive/Excited_2'
p138
aS'animations/Stand/Emotions/Positive/Excited_3'
p139
aS'animations/Stand/Gestures/Enthusiastic_1'
p140
aS'animations/Stand/Gestures/Enthusiastic_2'
p141
aS'animations/Stand/Gestures/Enthusiastic_3'
p142
aS'animations/Stand/Gestures/Enthusiastic_4'
p143
aS'animations/Stand/Gestures/Enthusiastic_5'
p144
aS'animations/Stand/Emotions/Positive/Optimistic_1'
p145
aS'animations/Stand/Emotions/Positive/Proud_1'
p146
aS'animations/Stand/Emotions/Positive/Proud_2'
p147
aS'animations/Stand/Emotions/Positive/Proud_3'
p148
aS'animations/Stand/Emotions/Positive/Sure_1'
p149
aS'animations/Stand/Waiting/ShowMuscles_1'
p150
aS'animations/Stand/Waiting/ShowMuscles_2'
p151
aS'animations/Stand/Waiting/ShowMuscles_3'
p152
aS'animations/Stand/Waiting/ShowMuscles_4'
p153
aS'animations/Stand/Waiting/ShowMuscles_5'
p154
aS'animations/Sit/Emotions/Positive/Hungry_1'
p155
aS'animations/Stand/Emotions/Positive/Hungry_1'
p156
aS'animations/Stand/Gestures/Hungry_1'
p157
aS'animations/Stand/Gestures/Yum_1'
p158
aS'animations/Stand/Emotions/Positive/Optimistic_1'
p159
aS'animations/Stand/Gestures/Coaxing_1'
p160
aS'animations/Stand/Gestures/Coaxing_2'
p161
aS'animations/Sit/Waiting/CallSomeone_1'
p162
aS'animations/Stand/Waiting/CallSomeone_1'
p163
aS'animations/Sit/Emotions/Positive/Shy_1'
p164
aS'animations/Stand/Emotions/Neutral/Embarrassed_1'
p165
aS'animations/Stand/Emotions/Positive/Shy_1'
p166
aS'animations/Stand/Emotions/Positive/Shy_2'
p167
aS'animations/Stand/Gestures/Shy_1'
p168
aS'animations/Stand/Gestures/Desperate_1'
p169
aS'animations/Stand/Gestures/Desperate_2'
p170
aS'animations/Stand/Gestures/Desperate_3'
p171
aS'animations/Stand/Gestures/Desperate_4'
p172
aS'animations/Stand/Gestures/Desperate_5'
p173
aS'animations/Stand/Gestures/Caress_2'
p174
aS'animations/Stand/Gestures/Desperate_1'
p175
aS'animations/Stand/Gestures/Desperate_2'
p176
aS'animations/Stand/Gestures/Desperate_3'
p177
aS'animations/Stand/Gestures/Desperate_4'
p178
aS'animations/Stand/Gestures/Desperate_5'
p179
aS'animations/Stand/Gestures/Joy_1'
p180
aS'animations/Stand/Emotions/Positive/Peaceful_1'
p181
aS'animations/Stand/Gestures/CalmDown_1'
p182
aS'animations/Stand/Gestures/CalmDown_2'
p183
aS'animations/Stand/Gestures/CalmDown_3'
p184
aS'animations/Stand/Gestures/CalmDown_4'
p185
aS'animations/Stand/Gestures/CalmDown_5'
p186
aS'animations/Stand/Gestures/CalmDown_6'
p187
aS'animations/Stand/Emotions/Positive/Interested_1'
p188
aS'animations/Stand/Emotions/Positive/Interested_2'
p189
aS'animations/Stand/Gestures/Enthusiastic_1'
p190
aS'animations/Stand/Gestures/Enthusiastic_2'
p191
aS'animations/Stand/Gestures/Enthusiastic_3'
p192
aS'animations/Stand/Gestures/Enthusiastic_4'
p193
aS'animations/Stand/Gestures/Enthusiastic_5'
p194
aS'animations/Stand/Emotions/Positive/Confident_1'
p195
aS'animations/Stand/Emotions/Positive/Sure_1'
p196
aS'animations/Stand/Emotions/Positive/Peaceful_1'
p197
aS'animations/Stand/Emotions/Positive/Excited_1'
p198
aS'animations/Stand/Emotions/Positive/Excited_2'
p199
aS'animations/Stand/Emotions/Positive/Excited_3'
p200
aS'animations/Stand/Emotions/Positive/Hysterical_1'
p201
aS'animations/Stand/Gestures/Excited_1'
p202
aS'animations/Sit/Reactions/LightShine_1'
p203
aS'animations/Sit/Reactions/LightShine_2'
p204
aS'animations/Sit/Reactions/LightShine_3'
p205
aS'animations/Sit/Reactions/LightShine_4'
p206
aS'animations/Stand/Reactions/LightShine_1'
p207
aS'animations/Stand/Reactions/LightShine_2'
p208
aS'animations/Stand/Reactions/LightShine_3'
p209
aS'animations/Stand/Reactions/LightShine_4'
p210
aS'animations/Stand/Emotions/Positive/Optimistic_1'
p211
aS'animations/Stand/Emotions/Positive/Excited_1'
p212
aS'animations/Stand/Emotions/Positive/Excited_2'
p213
aS'animations/Stand/Emotions/Positive/Excited_3'
p214
aS'animations/Stand/Gestures/Excited_1'
p215
aS'animations/Sit/Emotions/Positive/Shy_1'
p216
aS'animations/Stand/Emotions/Neutral/Embarrassed_1'
p217
aS'animations/Stand/Emotions/Positive/Shy_1'
p218
aS'animations/Stand/Emotions/Positive/Shy_2'
p219
aS'animations/Stand/Gestures/Shy_1'
p220
aS'animations/Stand/Emotions/Neutral/Puzzled_1'
p221
aS'animations/Stand/Emotions/Positive/Enthusiastic_1'
p222
aS'animations/Stand/Gestures/Enthusiastic_1'
p223
aS'animations/Stand/Gestures/Enthusiastic_2'
p224
aS'animations/Stand/Gestures/Enthusiastic_3'
p225
aS'animations/Stand/Gestures/Enthusiastic_4'
p226
aS'animations/Stand/Gestures/Enthusiastic_5'
p227
aS'animations/Stand/Gestures/Caress_2'
p228
aS'animations/Sit/Emotions/Positive/Happy_1'
p229
aS'animations/Sit/Emotions/Positive/Happy_2'
p230
aS'animations/Sit/Emotions/Positive/Happy_3'
p231
aS'animations/Sit/Emotions/Positive/Happy_4'
p232
aS'animations/Stand/Emotions/Positive/Happy_1'
p233
aS'animations/Stand/Emotions/Positive/Happy_2'
p234
aS'animations/Stand/Emotions/Positive/Happy_3'
p235
aS'animations/Stand/Emotions/Positive/Happy_4'
p236
aS'animations/Sit/Waiting/Oar_1'
p237
aS'animations/Sit/Emotions/Negative/Frustrated_1'
p238
aS'animations/Stand/Emotions/Negative/Disappointed_1'
p239
aS'animations/Stand/Emotions/Negative/Frustrated_1'
p240
aS'animations/Stand/Emotions/Negative/Humiliated_1'
p241
aS'animations/Stand/Gestures/Desperate_1'
p242
aS'animations/Stand/Gestures/Desperate_2'
p243
aS'animations/Stand/Gestures/Desperate_3'
p244
aS'animations/Stand/Gestures/Desperate_4'
p245
aS'animations/Stand/Gestures/Desperate_5'
p246
aS'animations/Stand/Emotions/Neutral/Suspicious_1'
p247
aS'animations/Stand/Emotions/Neutral/Suspicious_1'
p248
aS'animations/Stand/Emotions/Positive/Ecstatic_1'
p249
aS'animations/Sit/Emotions/Positive/Happy_1'
p250
aS'animations/Sit/Emotions/Positive/Happy_2'
p251
aS'animations/Sit/Emotions/Positive/Happy_3'
p252
aS'animations/Sit/Emotions/Positive/Happy_4'
p253
aS'animations/Stand/Emotions/Positive/Enthusiastic_1'
p254
aS'animations/Stand/Emotions/Positive/Excited_1'
p255
aS'animations/Stand/Emotions/Positive/Excited_2'
p256
aS'animations/Stand/Emotions/Positive/Excited_3'
p257
aS'animations/Stand/Emotions/Positive/Happy_1'
p258
aS'animations/Stand/Emotions/Positive/Happy_2'
p259
aS'animations/Stand/Emotions/Positive/Happy_3'
p260
aS'animations/Stand/Emotions/Positive/Happy_4'
p261
aS'animations/Stand/Emotions/Positive/Hysterical_1'
p262
aS'animations/Stand/Gestures/Enthusiastic_1'
p263
aS'animations/Stand/Gestures/Enthusiastic_2'
p264
aS'animations/Stand/Gestures/Enthusiastic_3'
p265
aS'animations/Stand/Gestures/Enthusiastic_4'
p266
aS'animations/Stand/Gestures/Enthusiastic_5'
p267
aS'animations/Stand/Gestures/Great_1'
p268
aS'animations/Stand/Emotions/Positive/Optimistic_1'
p269
aS'animations/Stand/Emotions/Negative/Exhausted_1'
p270
aS'animations/Stand/Emotions/Negative/Exhausted_2'
p271
aS'animations/Stand/Gestures/Mime_1'
p272
aS'animations/Stand/Gestures/Mime_2'
p273
aS'animations/Stand/Gestures/Follow_1'
p274
aS'animations/Stand/Emotions/Positive/Ecstatic_1'
p275
aS'animations/Sit/Emotions/Positive/Winner_1'
p276
aS'animations/Stand/Emotions/Positive/Winner_1'
p277
aS'animations/Stand/Emotions/Positive/Winner_2'
p278
aS'animations/Stand/Gestures/Applause_1'
p279
aS'animations/Stand/Emotions/Positive/Amused_1'
p280
aS'animations/Stand/Gestures/Enthusiastic_1'
p281
aS'animations/Stand/Gestures/Enthusiastic_2'
p282
aS'animations/Stand/Gestures/Enthusiastic_3'
p283
aS'animations/Stand/Gestures/Enthusiastic_4'
p284
aS'animations/Stand/Gestures/Enthusiastic_5'
p285
aS'animations/Stand/Waiting/Stretch_1'
p286
aS'animations/Stand/Waiting/Stretch_2'
p287
aS'animations/Stand/Waiting/Stretch_3'
p288
asg1
(g2
(S'S9'
p289
I0
I1
tp290
Rp291
(I3
S'|'
p292
NNNI9
I1
I0
tp293
bS'uncertain'
p294
tp295
Rp296
(lp297
S'animations/Sit/Emotions/Positive/Hungry_1'
p298
aS'animations/Stand/Emotions/Positive/Hungry_1'
p299
aS'animations/SitOnPod/Gestures/Everything_1'
p300
aS'animations/SitOnPod/Gestures/Everything_2'
p301
aS'animations/SitOnPod/Gestures/Everything_3'
p302
aS'animations/SitOnPod/Gestures/Everything_4'
p303
aS'animations/SitOnPod/Gestures/Everything_6'
p304
aS'animations/Stand/Gestures/Everything_1'
p305
aS'animations/Stand/Gestures/Everything_2'
p306
aS'animations/Stand/Gestures/Everything_3'
p307
aS'animations/Stand/Gestures/Everything_4'
p308
aS'animations/Stand/Gestures/Everything_5'
p309
aS'animations/Stand/Gestures/Everything_6'
p310
aS'animations/Sit/Waiting/TakePicture_1'
p311
aS'animations/Stand/Waiting/TakePicture_1'
p312
aS'animations/Stand/Gestures/Shoot_1'
p313
aS'animations/Stand/Emotions/Neutral/Puzzled_1'
p314
aS'animations/Stand/Gestures/IDontKnow_1'
p315
aS'animations/Stand/Gestures/IDontKnow_2'
p316
aS'animations/Stand/Gestures/IDontKnow_3'
p317
aS'animations/Stand/Gestures/IDontKnow_4'
p318
aS'animations/Stand/Gestures/IDontKnow_5'
p319
aS'animations/Stand/Gestures/IDontKnow_6'
p320
aS'animations/Sit/Waiting/LookHand_1'
p321
aS'animations/Sit/Waiting/LookHand_2'
p322
aS'animations/Stand/Waiting/LookHand_1'
p323
aS'animations/Stand/Waiting/LookHand_2'
p324
aS'animations/Sit/Waiting/MysticalPower_1'
p325
aS'animations/Stand/Waiting/MysticalPower_1'
p326
aS'animations/SitOnPod/Gestures/This_1'
p327
aS'animations/SitOnPod/Gestures/This_10'
p328
aS'animations/SitOnPod/Gestures/This_11'
p329
aS'animations/SitOnPod/Gestures/This_12'
p330
aS'animations/SitOnPod/Gestures/This_13'
p331
aS'animations/SitOnPod/Gestures/This_14'
p332
aS'animations/SitOnPod/Gestures/This_15'
p333
aS'animations/SitOnPod/Gestures/This_2'
p334
aS'animations/SitOnPod/Gestures/This_3'
p335
aS'animations/SitOnPod/Gestures/This_4'
p336
aS'animations/SitOnPod/Gestures/This_5'
p337
aS'animations/SitOnPod/Gestures/This_6'
p338
aS'animations/SitOnPod/Gestures/This_7'
p339
aS'animations/SitOnPod/Gestures/This_8'
p340
aS'animations/SitOnPod/Gestures/This_9'
p341
aS'animations/Stand/Gestures/This_1'
p342
aS'animations/Stand/Gestures/This_10'
p343
aS'animations/Stand/Gestures/This_11'
p344
aS'animations/Stand/Gestures/This_12'
p345
aS'animations/Stand/Gestures/This_13'
p346
aS'animations/Stand/Gestures/This_14'
p347
aS'animations/Stand/Gestures/This_15'
p348
aS'animations/Stand/Gestures/This_2'
p349
aS'animations/Stand/Gestures/This_3'
p350
aS'animations/Stand/Gestures/This_4'
p351
aS'animations/Stand/Gestures/This_5'
p352
aS'animations/Stand/Gestures/This_6'
p353
aS'animations/Stand/Gestures/This_7'
p354
aS'animations/Stand/Gestures/This_8'
p355
aS'animations/Stand/Gestures/This_9'
p356
aS'animations/Stand/Gestures/Nothing_1'
p357
aS'animations/Stand/Gestures/Nothing_2'
p358
aS'animations/Stand/Emotions/Neutral/Embarrassed_1'
p359
aS'animations/Sit/Waiting/CatchFly_1'
p360
aS'animations/Stand/Emotions/Neutral/Annoyed_1'
p361
aS'animations/Sit/Waiting/FalseStop_1'
p362
aS'animations/Sit/Waiting/FalseStop_2'
p363
aS'animations/Stand/Gestures/ShowSky_1'
p364
aS'animations/Stand/Gestures/ShowSky_10'
p365
aS'animations/Stand/Gestures/ShowSky_11'
p366
aS'animations/Stand/Gestures/ShowSky_12'
p367
aS'animations/Stand/Gestures/ShowSky_2'
p368
aS'animations/Stand/Gestures/ShowSky_3'
p369
aS'animations/Stand/Gestures/ShowSky_4'
p370
aS'animations/Stand/Gestures/ShowSky_5'
p371
aS'animations/Stand/Gestures/ShowSky_6'
p372
aS'animations/Stand/Gestures/ShowSky_7'
p373
aS'animations/Stand/Gestures/ShowSky_8'
p374
aS'animations/Stand/Gestures/ShowSky_9'
p375
aS'animations/SitOnPod/Gestures/No_1'
p376
aS'animations/SitOnPod/Gestures/No_2'
p377
aS'animations/SitOnPod/Gestures/No_3'
p378
aS'animations/SitOnPod/Gestures/No_4'
p379
aS'animations/SitOnPod/Gestures/No_5'
p380
aS'animations/SitOnPod/Gestures/No_6'
p381
aS'animations/SitOnPod/Gestures/No_7'
p382
aS'animations/SitOnPod/Gestures/No_8'
p383
aS'animations/SitOnPod/Gestures/No_9'
p384
aS'animations/Stand/Gestures/No_1'
p385
aS'animations/Stand/Gestures/No_2'
p386
aS'animations/Stand/Gestures/No_3'
p387
aS'animations/Stand/Gestures/No_4'
p388
aS'animations/Stand/Gestures/No_5'
p389
aS'animations/Stand/Gestures/No_6'
p390
aS'animations/Stand/Gestures/No_7'
p391
aS'animations/Stand/Gestures/No_8'
p392
aS'animations/Stand/Gestures/No_9'
p393
aS'animations/Stand/Gestures/Give_1'
p394
aS'animations/Stand/Gestures/Give_2'
p395
aS'animations/Stand/Gestures/Give_3'
p396
aS'animations/Stand/Gestures/Give_4'
p397
aS'animations/Stand/Gestures/Give_5'
p398
aS'animations/Stand/Gestures/Give_6'
p399
aS'animations/Stand/Waiting/Stretch_1'
p400
aS'animations/Stand/Waiting/Stretch_2'
p401
aS'animations/Stand/Waiting/Stretch_3'
p402
aS'animations/Stand/Gestures/Wings_1'
p403
aS'animations/Stand/Gestures/Wings_2'
p404
aS'animations/Stand/Gestures/Wings_3'
p405
aS'animations/Stand/Gestures/Wings_4'
p406
aS'animations/Stand/Gestures/Wings_5'
p407
aS'animations/Stand/Waiting/SpaceShuttle_1'
p408
aS'animations/Stand/Gestures/IDontKnow_1'
p409
aS'animations/Stand/Gestures/IDontKnow_2'
p410
aS'animations/Stand/Gestures/IDontKnow_3'
p411
aS'animations/Stand/Gestures/IDontKnow_4'
p412
aS'animations/Stand/Gestures/IDontKnow_5'
p413
aS'animations/Stand/Gestures/IDontKnow_6'
p414
aS'animations/Stand/Gestures/Mime_1'
p415
aS'animations/Stand/Gestures/Mime_2'
p416
aS'animations/Sit/Waiting/Robot_1'
p417
aS'animations/Stand/Waiting/Robot_1'
p418
aS'animations/Sit/Emotions/Negative/Frustrated_1'
p419
aS'animations/Stand/Emotions/Negative/Frustrated_1'
p420
aS'animations/Stand/Emotions/Negative/Humiliated_1'
p421
aS'animations/Stand/Gestures/Desperate_1'
p422
aS'animations/Stand/Gestures/Desperate_2'
p423
aS'animations/Stand/Gestures/Desperate_3'
p424
aS'animations/Stand/Gestures/Desperate_4'
p425
aS'animations/Stand/Gestures/Desperate_5'
p426
aS'animations/Stand/Gestures/ShowSky_1'
p427
aS'animations/Stand/Gestures/ShowSky_10'
p428
aS'animations/Stand/Gestures/ShowSky_11'
p429
aS'animations/Stand/Gestures/ShowSky_12'
p430
aS'animations/Stand/Gestures/ShowSky_2'
p431
aS'animations/Stand/Gestures/ShowSky_3'
p432
aS'animations/Stand/Gestures/ShowSky_4'
p433
aS'animations/Stand/Gestures/ShowSky_5'
p434
aS'animations/Stand/Gestures/ShowSky_6'
p435
aS'animations/Stand/Gestures/ShowSky_7'
p436
aS'animations/Stand/Gestures/ShowSky_8'
p437
aS'animations/Stand/Gestures/ShowSky_9'
p438
aS'animations/Stand/Gestures/Freeze_1'
p439
aS'animations/Sit/Reactions/BumperLeft_1'
p440
aS'animations/Sit/Reactions/BumperRight_1'
p441
aS'animations/Sit/Reactions/Bumpers_1'
p442
aS'animations/Sit/Reactions/Bumpers_2'
p443
aS'animations/Sit/Reactions/Bumpers_3'
p444
aS'animations/Stand/Reactions/BumperLeft_1'
p445
aS'animations/Stand/Reactions/BumperRight_1'
p446
aS'animations/Stand/Reactions/Bumpers_1'
p447
aS'animations/Stand/Reactions/Bumpers_2'
p448
aS'animations/Stand/Reactions/Bumpers_3'
p449
aS'animations/Stand/Emotions/Neutral/Innocent_1'
p450
aS'animations/Stand/Waiting/Innocent_1'
p451
aS'animations/Stand/Waiting/SpaceShuttle_1'
p452
aS'animations/Stand/Waiting/Monster_1'
p453
aS'animations/Stand/Gestures/Thinking_1'
p454
aS'animations/Stand/Gestures/Thinking_2'
p455
aS'animations/Stand/Gestures/Thinking_3'
p456
aS'animations/Stand/Gestures/Thinking_4'
p457
aS'animations/Stand/Gestures/Thinking_5'
p458
aS'animations/Stand/Gestures/Thinking_6'
p459
aS'animations/Stand/Gestures/Thinking_7'
p460
aS'animations/Stand/Gestures/Thinking_8'
p461
aS'animations/Stand/Gestures/Mime_1'
p462
aS'animations/Stand/Gestures/Mime_2'
p463
aS'animations/Sit/BodyTalk/Speaking/BodyTalk_1'
p464
aS'animations/Sit/BodyTalk/Speaking/BodyTalk_10'
p465
aS'animations/Sit/BodyTalk/Speaking/BodyTalk_11'
p466
aS'animations/Sit/BodyTalk/Speaking/BodyTalk_12'
p467
aS'animations/Sit/BodyTalk/Speaking/BodyTalk_2'
p468
aS'animations/Sit/BodyTalk/Speaking/BodyTalk_3'
p469
aS'animations/Sit/BodyTalk/Speaking/BodyTalk_4'
p470
aS'animations/Sit/BodyTalk/Speaking/BodyTalk_5'
p471
aS'animations/Sit/BodyTalk/Speaking/BodyTalk_6'
p472
aS'animations/Sit/BodyTalk/Speaking/BodyTalk_7'
p473
aS'animations/Sit/BodyTalk/Speaking/BodyTalk_8'
p474
aS'animations/Sit/BodyTalk/Speaking/BodyTalk_9'
p475
aS'animations/SitOnPod/Gestures/HeSays_1'
p476
aS'animations/SitOnPod/Gestures/HeSays_2'
p477
aS'animations/SitOnPod/Gestures/HeSays_3'
p478
aS'animations/Stand/BodyTalk/Speaking/BodyTalk_1'
p479
aS'animations/Stand/BodyTalk/Speaking/BodyTalk_10'
p480
aS'animations/Stand/BodyTalk/Speaking/BodyTalk_11'
p481
aS'animations/Stand/BodyTalk/Speaking/BodyTalk_12'
p482
aS'animations/Stand/BodyTalk/Speaking/BodyTalk_13'
p483
aS'animations/Stand/BodyTalk/Speaking/BodyTalk_14'
p484
aS'animations/Stand/BodyTalk/Speaking/BodyTalk_15'
p485
aS'animations/Stand/BodyTalk/Speaking/BodyTalk_16'
p486
aS'animations/Stand/BodyTalk/Speaking/BodyTalk_17'
p487
aS'animations/Stand/BodyTalk/Speaking/BodyTalk_18'
p488
aS'animations/Stand/BodyTalk/Speaking/BodyTalk_19'
p489
aS'animations/Stand/BodyTalk/Speaking/BodyTalk_2'
p490
aS'animations/Stand/BodyTalk/Speaking/BodyTalk_20'
p491
aS'animations/Stand/BodyTalk/Speaking/BodyTalk_21'
p492
aS'animations/Stand/BodyTalk/Speaking/BodyTalk_22'
p493
aS'animations/Stand/BodyTalk/Speaking/BodyTalk_3'
p494
aS'animations/Stand/BodyTalk/Speaking/BodyTalk_4'
p495
aS'animations/Stand/BodyTalk/Speaking/BodyTalk_5'
p496
aS'animations/Stand/BodyTalk/Speaking/BodyTalk_6'
p497
aS'animations/Stand/BodyTalk/Speaking/BodyTalk_7'
p498
aS'animations/Stand/BodyTalk/Speaking/BodyTalk_8'
p499
aS'animations/Stand/BodyTalk/Speaking/BodyTalk_9'
p500
aS'animations/Stand/Gestures/Explain_1'
p501
aS'animations/Stand/Gestures/Explain_10'
p502
aS'animations/Stand/Gestures/Explain_11'
p503
aS'animations/Stand/Gestures/Explain_2'
p504
aS'animations/Stand/Gestures/Explain_3'
p505
aS'animations/Stand/Gestures/Explain_4'
p506
aS'animations/Stand/Gestures/Explain_5'
p507
aS'animations/Stand/Gestures/Explain_6'
p508
aS'animations/Stand/Gestures/Explain_7'
p509
aS'animations/Stand/Gestures/Explain_8'
p510
aS'animations/Stand/Gestures/Explain_9'
p511
aS'animations/Stand/Gestures/HeSays_1'
p512
aS'animations/Stand/Gestures/HeSays_2'
p513
aS'animations/Stand/Gestures/HeSays_3'
p514
aS'animations/Stand/Gestures/JointHands_1'
p515
aS'animations/Stand/Gestures/JointHands_2'
p516
aS'animations/Stand/Gestures/JointHands_3'
p517
aS'animations/Stand/Gestures/YouKnowWhat_1'
p518
aS'animations/Stand/Gestures/YouKnowWhat_2'
p519
aS'animations/Stand/Gestures/YouKnowWhat_3'
p520
aS'animations/Stand/Gestures/YouKnowWhat_4'
p521
aS'animations/Stand/Gestures/YouKnowWhat_5'
p522
aS'animations/Stand/Gestures/YouKnowWhat_6'
p523
aS'animations/Stand/Emotions/Neutral/Cautious_1'
p524
aS'animations/Sit/Gestures/ComeOn_1'
p525
aS'animations/Sit/Waiting/CallSomeone_1'
p526
aS'animations/Stand/Gestures/ComeOn_1'
p527
aS'animations/Stand/Waiting/CallSomeone_1'
p528
aS'animations/Stand/Waiting/Helicopter_1'
p529
aS'animations/Sit/Waiting/Think_1'
p530
aS'animations/Sit/Waiting/Think_2'
p531
aS'animations/Sit/Waiting/Think_3'
p532
aS'animations/Stand/Gestures/Thinking_1'
p533
aS'animations/Stand/Gestures/Thinking_2'
p534
aS'animations/Stand/Gestures/Thinking_3'
p535
aS'animations/Stand/Gestures/Thinking_4'
p536
aS'animations/Stand/Gestures/Thinking_5'
p537
aS'animations/Stand/Gestures/Thinking_6'
p538
aS'animations/Stand/Gestures/Thinking_7'
p539
aS'animations/Stand/Gestures/Thinking_8'
p540
aS'animations/Stand/Waiting/Think_1'
p541
aS'animations/Stand/Waiting/Think_2'
p542
aS'animations/Stand/Waiting/Think_3'
p543
aS'animations/Stand/Waiting/Think_4'
p544
aS'animations/Sit/Emotions/Positive/Shy_1'
p545
aS'animations/Stand/Emotions/Neutral/Confused_1'
p546
aS'animations/Stand/Emotions/Neutral/Embarrassed_1'
p547
aS'animations/Stand/Emotions/Positive/Shy_1'
p548
aS'animations/Stand/Emotions/Positive/Shy_2'
p549
aS'animations/Stand/Gestures/Confused_1'
p550
aS'animations/Stand/Gestures/Confused_2'
p551
aS'animations/Stand/Gestures/Shy_1'
p552
aS'animations/Stand/Gestures/Nothing_1'
p553
aS'animations/Stand/Gestures/Nothing_2'
p554
aS'animations/Stand/Gestures/IDontKnow_1'
p555
aS'animations/Stand/Gestures/IDontKnow_2'
p556
aS'animations/Stand/Gestures/IDontKnow_3'
p557
aS'animations/Stand/Gestures/IDontKnow_4'
p558
aS'animations/Stand/Gestures/IDontKnow_5'
p559
aS'animations/Stand/Gestures/IDontKnow_6'
p560
aS'animations/Sit/Waiting/Music_HighwayToHell_1'
p561
aS'animations/Stand/Gestures/IDontKnow_1'
p562
aS'animations/Stand/Gestures/IDontKnow_2'
p563
aS'animations/Stand/Gestures/IDontKnow_3'
p564
aS'animations/Stand/Gestures/IDontKnow_4'
p565
aS'animations/Stand/Gestures/IDontKnow_5'
p566
aS'animations/Stand/Gestures/IDontKnow_6'
p567
aS'animations/SitOnPod/Gestures/This_1'
p568
aS'animations/SitOnPod/Gestures/This_10'
p569
aS'animations/SitOnPod/Gestures/This_11'
p570
aS'animations/SitOnPod/Gestures/This_12'
p571
aS'animations/SitOnPod/Gestures/This_13'
p572
aS'animations/SitOnPod/Gestures/This_14'
p573
aS'animations/SitOnPod/Gestures/This_15'
p574
aS'animations/SitOnPod/Gestures/This_2'
p575
aS'animations/SitOnPod/Gestures/This_3'
p576
aS'animations/SitOnPod/Gestures/This_4'
p577
aS'animations/SitOnPod/Gestures/This_5'
p578
aS'animations/SitOnPod/Gestures/This_6'
p579
aS'animations/SitOnPod/Gestures/This_7'
p580
aS'animations/SitOnPod/Gestures/This_8'
p581
aS'animations/SitOnPod/Gestures/This_9'
p582
aS'animations/Stand/Gestures/This_1'
p583
aS'animations/Stand/Gestures/This_10'
p584
aS'animations/Stand/Gestures/This_11'
p585
aS'animations/Stand/Gestures/This_12'
p586
aS'animations/Stand/Gestures/This_13'
p587
aS'animations/Stand/Gestures/This_14'
p588
aS'animations/Stand/Gestures/This_15'
p589
aS'animations/Stand/Gestures/This_2'
p590
aS'animations/Stand/Gestures/This_3'
p591
aS'animations/Stand/Gestures/This_4'
p592
aS'animations/Stand/Gestures/This_5'
p593
aS'animations/Stand/Gestures/This_6'
p594
aS'animations/Stand/Gestures/This_7'
p595
aS'animations/Stand/Gestures/This_8'
p596
aS'animations/Stand/Gestures/This_9'
p597
aS'animations/Stand/Emotions/Neutral/Determined_1'
p598
aS'animations/Sit/Waiting/KnockEye_1'
p599
aS'animations/Stand/Waiting/KnockEye_1'
p600
aS'animations/Stand/Emotions/Neutral/Suspicious_1'
p601
aS'animations/SitOnPod/Gestures/HeSays_1'
p602
aS'animations/SitOnPod/Gestures/HeSays_2'
p603
aS'animations/SitOnPod/Gestures/HeSays_3'
p604
aS'animations/Stand/Gestures/HeSays_1'
p605
aS'animations/Stand/Gestures/HeSays_2'
p606
aS'animations/Stand/Gestures/HeSays_3'
p607
aS'animations/Sit/Emotions/Positive/Shy_1'
p608
aS'animations/Stand/Emotions/Neutral/Lonely_1'
p609
aS'animations/Stand/Emotions/Positive/Shy_1'
p610
aS'animations/Stand/Emotions/Positive/Shy_2'
p611
aS'animations/Stand/Gestures/Shy_1'
p612
aS'animations/Stand/Emotions/Negative/Shocked_1'
p613
aS'animationMode/.'
p614
aS'animations/Stand/Emotions/Positive/Confident_1'
p615
aS'animations/Stand/Emotions/Positive/Sure_1'
p616
aS'animations/Stand/Gestures/Stretch_1'
p617
aS'animations/Stand/Gestures/Stretch_2'
p618
aS'animations/Stand/Reactions/SeeSomething_3'
p619
aS'animations/Stand/Reactions/SeeSomething_4'
p620
aS'animations/Stand/Reactions/SeeSomething_5'
p621
aS'animations/Stand/Reactions/SeeSomething_6'
p622
aS'animations/Stand/Reactions/SeeSomething_7'
p623
aS'animations/Stand/Reactions/SeeSomething_8'
p624
aS'animations/Stand/Emotions/Neutral/Annoyed_1'
p625
aS'animations/Stand/Gestures/Freeze_1'
p626
aS'animations/Stand/Emotions/Neutral/Mischievous_1'
p627
aS'animations/Stand/Waiting/HideHands_1'
p628
aS'animations/Stand/Gestures/ShowFloor_1'
p629
aS'animations/Stand/Gestures/ShowFloor_2'
p630
aS'animations/Stand/Gestures/ShowFloor_3'
p631
aS'animations/Stand/Gestures/ShowFloor_4'
p632
aS'animations/Stand/Gestures/ShowFloor_5'
p633
aS'animations/Stand/Gestures/Take_1'
p634
aS'animations/Stand/Emotions/Negative/Anxious_1'
p635
aS'animations/Stand/Emotions/Neutral/Mischievous_1'
p636
aS'animations/Stand/Gestures/Take_1'
p637
aS'animations/Stand/Emotions/Neutral/Cautious_1'
p638
aS'animations/Sit/Waiting/ScratchTorso_1'
p639
aS'animations/Stand/Waiting/ScratchTorso_1'
p640
aS'animations/Stand/Waiting/AirJuggle_1'
p641
aS'animations/Stand/Emotions/Neutral/Cautious_1'
p642
aS'animations/Stand/Waiting/LoveYou_1'
p643
aS'animations/Stand/Gestures/Look_1'
p644
aS'animations/Stand/Gestures/Look_2'
p645
aS'animations/Stand/Gestures/IDontKnow_1'
p646
aS'animations/Stand/Gestures/IDontKnow_2'
p647
aS'animations/Stand/Gestures/IDontKnow_3'
p648
aS'animations/Stand/Gestures/IDontKnow_4'
p649
aS'animations/Stand/Gestures/IDontKnow_5'
p650
aS'animations/Stand/Gestures/IDontKnow_6'
p651
aS'animations/Sit/Emotions/Negative/Angry_1'
p652
aS'animations/Stand/Emotions/Negative/Angry_1'
p653
aS'animations/Stand/Emotions/Negative/Angry_2'
p654
aS'animations/Stand/Emotions/Negative/Angry_3'
p655
aS'animations/Stand/Emotions/Negative/Angry_4'
p656
aS'animations/Sit/Waiting/Oar_1'
p657
aS'animations/Stand/Reactions/SeeSomething_1'
p658
aS'animations/SitOnPod/Gestures/WhatSThis_1'
p659
aS'animations/SitOnPod/Gestures/WhatSThis_10'
p660
aS'animations/SitOnPod/Gestures/WhatSThis_11'
p661
aS'animations/SitOnPod/Gestures/WhatSThis_12'
p662
aS'animations/SitOnPod/Gestures/WhatSThis_13'
p663
aS'animations/SitOnPod/Gestures/WhatSThis_14'
p664
aS'animations/SitOnPod/Gestures/WhatSThis_15'
p665
aS'animations/SitOnPod/Gestures/WhatSThis_16'
p666
aS'animations/SitOnPod/Gestures/WhatSThis_2'
p667
aS'animations/SitOnPod/Gestures/WhatSThis_3'
p668
aS'animations/SitOnPod/Gestures/WhatSThis_4'
p669
aS'animations/SitOnPod/Gestures/WhatSThis_5'
p670
aS'animations/SitOnPod/Gestures/WhatSThis_6'
p671
aS'animations/SitOnPod/Gestures/WhatSThis_7'
p672
aS'animations/SitOnPod/Gestures/WhatSThis_8'
p673
aS'animations/SitOnPod/Gestures/WhatSThis_9'
p674
aS'animations/Stand/Gestures/WhatSThis_1'
p675
aS'animations/Stand/Gestures/WhatSThis_10'
p676
aS'animations/Stand/Gestures/WhatSThis_11'
p677
aS'animations/Stand/Gestures/WhatSThis_12'
p678
aS'animations/Stand/Gestures/WhatSThis_13'
p679
aS'animations/Stand/Gestures/WhatSThis_14'
p680
aS'animations/Stand/Gestures/WhatSThis_15'
p681
aS'animations/Stand/Gestures/WhatSThis_16'
p682
aS'animations/Stand/Gestures/WhatSThis_2'
p683
aS'animations/Stand/Gestures/WhatSThis_3'
p684
aS'animations/Stand/Gestures/WhatSThis_4'
p685
aS'animations/Stand/Gestures/WhatSThis_5'
p686
aS'animations/Stand/Gestures/WhatSThis_6'
p687
aS'animations/Stand/Gestures/WhatSThis_7'
p688
aS'animations/Stand/Gestures/WhatSThis_8'
p689
aS'animations/Stand/Gestures/WhatSThis_9'
p690
aS'animations/Stand/Gestures/Nothing_1'
p691
aS'animations/Stand/Gestures/Nothing_2'
p692
aS'animations/Stand/Gestures/CatchFly_1'
p693
aS'animations/Stand/Gestures/CatchFly_2'
p694
aS'animations/Stand/Gestures/Look_1'
p695
aS'animations/Stand/Gestures/Look_2'
p696
aS'animations/Stand/Emotions/Negative/Fearful_1'
p697
aS'animations/Sit/Emotions/Positive/Shy_1'
p698
aS'animations/Stand/Emotions/Positive/Shy_1'
p699
aS'animations/Stand/Emotions/Positive/Shy_2'
p700
aS'animations/Stand/Gestures/Shy_1'
p701
aS'animations/Stand/Emotions/Neutral/Cautious_1'
p702
aS'animations/Sit/Waiting/Binoculars_1'
p703
aS'animations/Stand/Waiting/Binoculars_1'
p704
aS'animations/Sit/Emotions/Negative/Sad_1'
p705
aS'animations/Stand/Emotions/Negative/Sad_1'
p706
aS'animations/Stand/Emotions/Negative/Sad_2'
p707
aS'animations/Stand/Gestures/Reject_1'
p708
aS'animations/Stand/Gestures/Reject_2'
p709
aS'animations/Stand/Gestures/Reject_3'
p710
aS'animations/Stand/Gestures/Reject_4'
p711
aS'animations/Stand/Gestures/Reject_5'
p712
aS'animations/Stand/Gestures/Reject_6'
p713
aS'animations/Sit/Reactions/BumperLeft_1'
p714
aS'animations/Stand/Reactions/BumperLeft_1'
p715
aS'animations/Stand/Emotions/Neutral/Puzzled_1'
p716
aS'animations/Stand/Emotions/Neutral/Innocent_1'
p717
aS'animations/Stand/Waiting/Innocent_1'
p718
aS'animations/Sit/Emotions/Negative/Fear_1'
p719
aS'animations/Sit/Emotions/Negative/Surprise_1'
p720
aS'animations/Stand/Emotions/Negative/Fear_1'
p721
aS'animations/Stand/Emotions/Negative/Fear_2'
p722
aS'animations/Stand/Emotions/Negative/Surprise_1'
p723
aS'animations/Stand/Emotions/Negative/Surprise_2'
p724
aS'animations/Stand/Emotions/Negative/Surprise_3'
p725
aS'animations/Stand/Gestures/Surprised_1'
p726
aS'animations/Stand/Gestures/Hide_1'
p727
aS'animations/Stand/Waiting/WalkInTheShit_1'
p728
aS'animations/Sit/Emotions/Negative/Hurt_1'
p729
aS'animations/Sit/Waiting/KnockKnee_1'
p730
aS'animations/Sit/Waiting/KnockKnee_2'
p731
aS'animations/Stand/Emotions/Negative/Hurt_1'
p732
aS'animations/Stand/Emotions/Negative/Hurt_2'
p733
aS'animations/Stand/Emotions/Neutral/Lonely_1'
p734
aS'animations/Stand/Gestures/Confused_1'
p735
aS'animations/Stand/Gestures/Confused_2'
p736
aS'animations/Sit/Emotions/Negative/Frustrated_1'
p737
aS'animations/Stand/Emotions/Negative/Frustrated_1'
p738
aS'animations/Stand/Emotions/Negative/Humiliated_1'
p739
aS'animations/Stand/Emotions/Neutral/Confused_1'
p740
aS'animations/Stand/Gestures/Confused_1'
p741
aS'animations/Stand/Gestures/Confused_2'
p742
aS'animations/Stand/Waiting/HideEyes_1'
p743
aS'animations/Stand/Waiting/AirGuitar_1'
p744
aS'animations/Stand/Waiting/SpaceShuttle_1'
p745
aS'animations/Stand/Gestures/Take_1'
p746
aS'animations/Stand/Gestures/Look_2'
p747
aS'animations/Stand/Gestures/ShowFloor_1'
p748
aS'animations/Stand/Gestures/ShowFloor_2'
p749
aS'animations/Stand/Gestures/ShowFloor_3'
p750
aS'animations/Stand/Gestures/ShowFloor_4'
p751
aS'animations/Stand/Gestures/ShowFloor_5'
p752
aS'animations/Sit/Waiting/GeoSquare_1'
p753
aS'animations/Sit/Emotions/Negative/Fear_1'
p754
aS'animations/Sit/Emotions/Negative/Surprise_1'
p755
aS'animations/Stand/Emotions/Negative/Fear_1'
p756
aS'animations/Stand/Emotions/Negative/Fear_2'
p757
aS'animations/Stand/Emotions/Negative/Surprise_1'
p758
aS'animations/Stand/Emotions/Negative/Surprise_2'
p759
aS'animations/Stand/Emotions/Negative/Surprise_3'
p760
aS'animations/Stand/Gestures/Surprised_1'
p761
aS'animations/Stand/Gestures/IDontKnow_1'
p762
aS'animations/Stand/Gestures/IDontKnow_2'
p763
aS'animations/Stand/Gestures/IDontKnow_3'
p764
aS'animations/Stand/Gestures/IDontKnow_4'
p765
aS'animations/Stand/Gestures/IDontKnow_5'
p766
aS'animations/Stand/Gestures/IDontKnow_6'
p767
aS'animations/SitOnPod/Gestures/This_1'
p768
aS'animations/SitOnPod/Gestures/This_10'
p769
aS'animations/SitOnPod/Gestures/This_11'
p770
aS'animations/SitOnPod/Gestures/This_12'
p771
aS'animations/SitOnPod/Gestures/This_13'
p772
aS'animations/SitOnPod/Gestures/This_14'
p773
aS'animations/SitOnPod/Gestures/This_15'
p774
aS'animations/SitOnPod/Gestures/This_2'
p775
aS'animations/SitOnPod/Gestures/This_3'
p776
aS'animations/SitOnPod/Gestures/This_4'
p777
aS'animations/SitOnPod/Gestures/This_5'
p778
aS'animations/SitOnPod/Gestures/This_6'
p779
aS'animations/SitOnPod/Gestures/This_7'
p780
aS'animations/SitOnPod/Gestures/This_8'
p781
aS'animations/SitOnPod/Gestures/This_9'
p782
aS'animations/Stand/Gestures/Far_1'
p783
aS'animations/Stand/Gestures/Far_2'
p784
aS'animations/Stand/Gestures/Far_3'
p785
aS'animations/Stand/Gestures/This_1'
p786
aS'animations/Stand/Gestures/This_10'
p787
aS'animations/Stand/Gestures/This_11'
p788
aS'animations/Stand/Gestures/This_12'
p789
aS'animations/Stand/Gestures/This_13'
p790
aS'animations/Stand/Gestures/This_14'
p791
aS'animations/Stand/Gestures/This_15'
p792
aS'animations/Stand/Gestures/This_2'
p793
aS'animations/Stand/Gestures/This_3'
p794
aS'animations/Stand/Gestures/This_4'
p795
aS'animations/Stand/Gestures/This_5'
p796
aS'animations/Stand/Gestures/This_6'
p797
aS'animations/Stand/Gestures/This_7'
p798
aS'animations/Stand/Gestures/This_8'
p799
aS'animations/Stand/Gestures/This_9'
p800
aS'animations/Sit/Waiting/TakePicture_1'
p801
aS'animations/Stand/Waiting/TakePicture_1'
p802
aS'animations/Sit/Waiting/PoorlySeated_1'
p803
aS'animations/Stand/Gestures/But_1'
p804
aS'animations/Sit/Waiting/KnockEye_1'
p805
aS'animations/Stand/Waiting/KnockEye_1'
p806
aS'animations/SitOnPod/Gestures/CountThree_1'
p807
aS'animations/SitOnPod/Gestures/CountThree_2'
p808
aS'animations/SitOnPod/Gestures/CountTwo_1'
p809
aS'animations/SitOnPod/Gestures/CountTwo_2'
p810
aS'animations/Stand/Gestures/CountFive_1'
p811
aS'animations/Stand/Gestures/CountFive_2'
p812
aS'animations/Stand/Gestures/CountFour_1'
p813
aS'animations/Stand/Gestures/CountFour_2'
p814
aS'animations/Stand/Gestures/CountMore_1'
p815
aS'animations/Stand/Gestures/CountMore_2'
p816
aS'animations/Stand/Gestures/CountOne_1'
p817
aS'animations/Stand/Gestures/CountOne_2'
p818
aS'animations/Stand/Gestures/CountThree_1'
p819
aS'animations/Stand/Gestures/CountThree_2'
p820
aS'animations/Stand/Gestures/CountTwo_1'
p821
aS'animations/Stand/Gestures/CountTwo_2'
p822
aS'animations/Stand/Gestures/ShowSky_1'
p823
aS'animations/Stand/Gestures/ShowSky_10'
p824
aS'animations/Stand/Gestures/ShowSky_11'
p825
aS'animations/Stand/Gestures/ShowSky_12'
p826
aS'animations/Stand/Gestures/ShowSky_2'
p827
aS'animations/Stand/Gestures/ShowSky_3'
p828
aS'animations/Stand/Gestures/ShowSky_4'
p829
aS'animations/Stand/Gestures/ShowSky_5'
p830
aS'animations/Stand/Gestures/ShowSky_6'
p831
aS'animations/Stand/Gestures/ShowSky_7'
p832
aS'animations/Stand/Gestures/ShowSky_8'
p833
aS'animations/Stand/Gestures/ShowSky_9'
p834
aS'animations/Sit/Waiting/DriveCar_1'
p835
aS'animations/Stand/Waiting/DriveCar_1'
p836
aS'animations/Stand/Emotions/Positive/Interested_1'
p837
aS'animations/Stand/Emotions/Positive/Interested_2'
p838
aS'animations/Stand/Gestures/ShowFloor_1'
p839
aS'animations/Stand/Gestures/ShowFloor_2'
p840
aS'animations/Stand/Gestures/ShowFloor_3'
p841
aS'animations/Stand/Gestures/ShowFloor_4'
p842
aS'animations/Stand/Gestures/ShowFloor_5'
p843
aS'animations/Sit/Emotions/Negative/Hurt_1'
p844
aS'animations/Stand/Emotions/Negative/Hurt_1'
p845
aS'animations/Stand/Emotions/Negative/Hurt_2'
p846
aS'animations/Stand/Emotions/Neutral/Alienated_1'
p847
aS'animations/Stand/Emotions/Negative/Humiliated_1'
p848
aS'animations/Sit/Waiting/DriveCar_1'
p849
aS'animations/Stand/Gestures/Mime_1'
p850
aS'animations/Stand/Gestures/Mime_2'
p851
aS'animations/Stand/Waiting/DriveCar_1'
p852
asg1
(g2
(S'S4'
p853
I0
I1
tp854
Rp855
(I3
S'|'
p856
NNNI4
I1
I0
tp857
bS'self'
p858
tp859
Rp860
(lp861
S'animations/Sit/Waiting/WakeUp_1'
p862
aS'animations/Stand/Waiting/WakeUp_1'
p863
aS'animations/SitOnPod/Gestures/WhatSThis_1'
p864
aS'animations/SitOnPod/Gestures/WhatSThis_10'
p865
aS'animations/SitOnPod/Gestures/WhatSThis_11'
p866
aS'animations/SitOnPod/Gestures/WhatSThis_12'
p867
aS'animations/SitOnPod/Gestures/WhatSThis_13'
p868
aS'animations/SitOnPod/Gestures/WhatSThis_14'
p869
aS'animations/SitOnPod/Gestures/WhatSThis_15'
p870
aS'animations/SitOnPod/Gestures/WhatSThis_16'
p871
aS'animations/SitOnPod/Gestures/WhatSThis_2'
p872
aS'animations/SitOnPod/Gestures/WhatSThis_3'
p873
aS'animations/SitOnPod/Gestures/WhatSThis_4'
p874
aS'animations/SitOnPod/Gestures/WhatSThis_5'
p875
aS'animations/SitOnPod/Gestures/WhatSThis_6'
p876
aS'animations/SitOnPod/Gestures/WhatSThis_7'
p877
aS'animations/SitOnPod/Gestures/WhatSThis_8'
p878
aS'animations/SitOnPod/Gestures/WhatSThis_9'
p879
aS'animations/Stand/Gestures/WhatSThis_1'
p880
aS'animations/Stand/Gestures/WhatSThis_10'
p881
aS'animations/Stand/Gestures/WhatSThis_11'
p882
aS'animations/Stand/Gestures/WhatSThis_12'
p883
aS'animations/Stand/Gestures/WhatSThis_13'
p884
aS'animations/Stand/Gestures/WhatSThis_14'
p885
aS'animations/Stand/Gestures/WhatSThis_15'
p886
aS'animations/Stand/Gestures/WhatSThis_16'
p887
aS'animations/Stand/Gestures/WhatSThis_2'
p888
aS'animations/Stand/Gestures/WhatSThis_3'
p889
aS'animations/Stand/Gestures/WhatSThis_4'
p890
aS'animations/Stand/Gestures/WhatSThis_5'
p891
aS'animations/Stand/Gestures/WhatSThis_6'
p892
aS'animations/Stand/Gestures/WhatSThis_7'
p893
aS'animations/Stand/Gestures/WhatSThis_8'
p894
aS'animations/Stand/Gestures/WhatSThis_9'
p895
aS'animations/Sit/Gestures/Me_7'
p896
aS'animations/SitOnPod/Gestures/Me_1'
p897
aS'animations/SitOnPod/Gestures/Me_2'
p898
aS'animations/SitOnPod/Gestures/Me_4'
p899
aS'animations/SitOnPod/Gestures/Me_7'
p900
aS'animations/SitOnPod/Gestures/Me_8'
p901
aS'animations/Stand/Gestures/Me_1'
p902
aS'animations/Stand/Gestures/Me_2'
p903
aS'animations/Stand/Gestures/Me_3'
p904
aS'animations/Stand/Gestures/Me_4'
p905
aS'animations/Stand/Gestures/Me_5'
p906
aS'animations/Stand/Gestures/Me_6'
p907
aS'animations/Stand/Gestures/Me_7'
p908
aS'animations/Stand/Gestures/Me_8'
p909
aS'animations/Sit/Waiting/Robot_1'
p910
aS'animations/Stand/Waiting/Robot_1'
p911
aS'animations/Stand/Gestures/Next_1'
p912
aS'animations/SitOnPod/Gestures/This_1'
p913
aS'animations/SitOnPod/Gestures/This_10'
p914
aS'animations/SitOnPod/Gestures/This_11'
p915
aS'animations/SitOnPod/Gestures/This_12'
p916
aS'animations/SitOnPod/Gestures/This_13'
p917
aS'animations/SitOnPod/Gestures/This_14'
p918
aS'animations/SitOnPod/Gestures/This_15'
p919
aS'animations/SitOnPod/Gestures/This_2'
p920
aS'animations/SitOnPod/Gestures/This_3'
p921
aS'animations/SitOnPod/Gestures/This_4'
p922
aS'animations/SitOnPod/Gestures/This_5'
p923
aS'animations/SitOnPod/Gestures/This_6'
p924
aS'animations/SitOnPod/Gestures/This_7'
p925
aS'animations/SitOnPod/Gestures/This_8'
p926
aS'animations/SitOnPod/Gestures/This_9'
p927
aS'animations/Stand/Gestures/This_1'
p928
aS'animations/Stand/Gestures/This_10'
p929
aS'animations/Stand/Gestures/This_11'
p930
aS'animations/Stand/Gestures/This_12'
p931
aS'animations/Stand/Gestures/This_13'
p932
aS'animations/Stand/Gestures/This_14'
p933
aS'animations/Stand/Gestures/This_15'
p934
aS'animations/Stand/Gestures/This_2'
p935
aS'animations/Stand/Gestures/This_3'
p936
aS'animations/Stand/Gestures/This_4'
p937
aS'animations/Stand/Gestures/This_5'
p938
aS'animations/Stand/Gestures/This_6'
p939
aS'animations/Stand/Gestures/This_7'
p940
aS'animations/Stand/Gestures/This_8'
p941
aS'animations/Stand/Gestures/This_9'
p942
aS'animations/Sit/Gestures/Me_7'
p943
aS'animations/SitOnPod/Gestures/Me_1'
p944
aS'animations/SitOnPod/Gestures/Me_2'
p945
aS'animations/SitOnPod/Gestures/Me_4'
p946
aS'animations/SitOnPod/Gestures/Me_7'
p947
aS'animations/SitOnPod/Gestures/Me_8'
p948
aS'animations/Stand/Gestures/Me_1'
p949
aS'animations/Stand/Gestures/Me_2'
p950
aS'animations/Stand/Gestures/Me_3'
p951
aS'animations/Stand/Gestures/Me_4'
p952
aS'animations/Stand/Gestures/Me_5'
p953
aS'animations/Stand/Gestures/Me_6'
p954
aS'animations/Stand/Gestures/Me_7'
p955
aS'animations/Stand/Gestures/Me_8'
p956
aS'animations/Sit/Waiting/Music_HighwayToHell_1'
p957
aS'animations/Sit/Waiting/Music_VieEnRose_1'
p958
aS'animations/Stand/Waiting/HappyBirthday_1'
p959
aS'animations/Sit/Emotions/Negative/Hurt_1'
p960
aS'animations/Stand/Emotions/Negative/Hurt_1'
p961
aS'animations/Stand/Emotions/Negative/Hurt_2'
p962
aS'animations/Sit/Waiting/KnockKnee_1'
p963
aS'animations/Sit/Waiting/KnockKnee_2'
p964
aS'animations/Sit/Gestures/Me_7'
p965
aS'animations/SitOnPod/Gestures/Me_1'
p966
aS'animations/SitOnPod/Gestures/Me_2'
p967
aS'animations/SitOnPod/Gestures/Me_4'
p968
aS'animations/SitOnPod/Gestures/Me_7'
p969
aS'animations/SitOnPod/Gestures/Me_8'
p970
aS'animations/Stand/Gestures/Me_1'
p971
aS'animations/Stand/Gestures/Me_2'
p972
aS'animations/Stand/Gestures/Me_3'
p973
aS'animations/Stand/Gestures/Me_4'
p974
aS'animations/Stand/Gestures/Me_5'
p975
aS'animations/Stand/Gestures/Me_6'
p976
aS'animations/Stand/Gestures/Me_7'
p977
aS'animations/Stand/Gestures/Me_8'
p978
aS'animations/Sit/Gestures/Me_7'
p979
aS'animations/SitOnPod/Gestures/Me_1'
p980
aS'animations/SitOnPod/Gestures/Me_2'
p981
aS'animations/SitOnPod/Gestures/Me_4'
p982
aS'animations/SitOnPod/Gestures/Me_7'
p983
aS'animations/SitOnPod/Gestures/Me_8'
p984
aS'animations/Stand/Gestures/Me_1'
p985
aS'animations/Stand/Gestures/Me_2'
p986
aS'animations/Stand/Gestures/Me_3'
p987
aS'animations/Stand/Gestures/Me_4'
p988
aS'animations/Stand/Gestures/Me_5'
p989
aS'animations/Stand/Gestures/Me_6'
p990
aS'animations/Stand/Gestures/Me_7'
p991
aS'animations/Stand/Gestures/Me_8'
p992
aS'animations/Stand/Gestures/Far_3'
p993
asg1
(g2
(S'S8'
p994
I0
I1
tp995
Rp996
(I3
S'|'
p997
NNNI8
I1
I0
tp998
bS'disagree'
p999
tp1000
Rp1001
(lp1002
S'animations/Stand/Gestures/Caress_2'
p1003
aS'animations/Stand/Gestures/Far_1'
p1004
aS'animations/Stand/Gestures/Far_2'
p1005
aS'animations/Stand/Gestures/Far_3'
p1006
aS'animations/Stand/Gestures/Nothing_1'
p1007
aS'animations/Stand/Gestures/Nothing_2'
p1008
aS'animations/Stand/Emotions/Positive/Interested_1'
p1009
aS'animations/Stand/Emotions/Positive/Interested_2'
p1010
aS'animations/SitOnPod/Gestures/Everything_1'
p1011
aS'animations/SitOnPod/Gestures/Everything_2'
p1012
aS'animations/SitOnPod/Gestures/Everything_3'
p1013
aS'animations/SitOnPod/Gestures/Everything_4'
p1014
aS'animations/SitOnPod/Gestures/Everything_6'
p1015
aS'animations/Stand/Gestures/Everything_1'
p1016
aS'animations/Stand/Gestures/Everything_2'
p1017
aS'animations/Stand/Gestures/Everything_3'
p1018
aS'animations/Stand/Gestures/Everything_4'
p1019
aS'animations/Stand/Gestures/Everything_5'
p1020
aS'animations/Stand/Gestures/Everything_6'
p1021
aS'animations/Stand/Emotions/Positive/Peaceful_1'
p1022
aS'animations/Stand/Gestures/CalmDown_1'
p1023
aS'animations/Stand/Gestures/CalmDown_2'
p1024
aS'animations/Stand/Gestures/CalmDown_3'
p1025
aS'animations/Stand/Gestures/CalmDown_4'
p1026
aS'animations/Stand/Gestures/CalmDown_5'
p1027
aS'animations/Stand/Gestures/CalmDown_6'
p1028
aS'animations/Stand/Gestures/Freeze_1'
p1029
aS'animations/Stand/Gestures/Great_1'
p1030
aS'animations/Stand/Waiting/Knight_1'
p1031
aS'animations/Stand/Waiting/Helicopter_1'
p1032
aS'animations/Stand/Emotions/Neutral/Lonely_1'
p1033
aS'animations/Stand/Emotions/Positive/Proud_1'
p1034
aS'animations/Stand/Emotions/Positive/Proud_2'
p1035
aS'animations/Stand/Emotions/Positive/Proud_3'
p1036
aS'animations/Stand/Waiting/ShowMuscles_1'
p1037
aS'animations/Stand/Waiting/ShowMuscles_2'
p1038
aS'animations/Stand/Waiting/ShowMuscles_3'
p1039
aS'animations/Stand/Waiting/ShowMuscles_4'
p1040
aS'animations/Stand/Waiting/ShowMuscles_5'
p1041
aS'animations/Stand/Gestures/Great_1'
p1042
aS'animations/Stand/Gestures/BowShort_1'
p1043
aS'animations/Stand/Waiting/Knight_1'
p1044
aS'animations/Sit/Emotions/Negative/Sad_1'
p1045
aS'animations/Stand/Emotions/Negative/Sad_1'
p1046
aS'animations/Stand/Emotions/Negative/Sad_2'
p1047
aS'animations/Stand/Gestures/Great_1'
p1048
aS'animations/Stand/Emotions/Neutral/Hesitation_1'
p1049
aS'animations/Stand/Gestures/CountMore_1'
p1050
aS'animations/Stand/Gestures/CountMore_2'
p1051
aS'animations/Sit/Waiting/MysticalPower_1'
p1052
aS'animations/Stand/Waiting/MysticalPower_1'
p1053
aS'animations/Sit/Reactions/EthernetOn_1'
p1054
aS'animations/Stand/Reactions/EthernetOn_1'
p1055
aS'animations/Stand/Waiting/Bandmaster_1'
p1056
aS'animations/Stand/Waiting/AirGuitar_1'
p1057
aS'animations/Sit/Reactions/EthernetOff_1'
p1058
aS'animations/Stand/Reactions/EthernetOff_1'
p1059
aS'animations/Stand/Gestures/Caress_2'
p1060
aS'animations/Stand/Gestures/Stretch_1'
p1061
aS'animations/Stand/Gestures/Stretch_2'
p1062
aS'animations/Stand/Gestures/Claw_1'
p1063
aS'animations/Stand/Gestures/Claw_2'
p1064
aS'animations/Stand/Reactions/SeeSomething_3'
p1065
aS'animations/Stand/Reactions/SeeSomething_4'
p1066
aS'animations/Stand/Reactions/SeeSomething_5'
p1067
aS'animations/Stand/Reactions/SeeSomething_6'
p1068
aS'animations/Stand/Reactions/SeeSomething_7'
p1069
aS'animations/Stand/Reactions/SeeSomething_8'
p1070
aS'animations/Stand/Emotions/Neutral/Stubborn_1'
p1071
aS'animations/Sit/Emotions/Positive/Shy_1'
p1072
aS'animations/Stand/Emotions/Positive/Shy_1'
p1073
aS'animations/Stand/Emotions/Positive/Shy_2'
p1074
aS'animations/Stand/Gestures/Shy_1'
p1075
aS'animations/Stand/Emotions/Neutral/Mischievous_1'
p1076
aS'animations/Sit/Emotions/Negative/Hurt_1'
p1077
aS'animations/Stand/Emotions/Negative/Hurt_1'
p1078
aS'animations/Stand/Emotions/Negative/Hurt_2'
p1079
aS'animations/Sit/Waiting/Robot_1'
p1080
aS'animations/Stand/Waiting/Robot_1'
p1081
aS'animations/Stand/Waiting/Vacuum_1'
p1082
aS'animations/Sit/Emotions/Negative/Hurt_1'
p1083
aS'animations/Stand/Emotions/Negative/Hurt_1'
p1084
aS'animations/Stand/Emotions/Negative/Hurt_2'
p1085
aS'animations/Stand/Gestures/Shoot_1'
p1086
aS'animations/Stand/Emotions/Neutral/Embarrassed_1'
p1087
aS'animations/Sit/Reactions/LightShine_1'
p1088
aS'animations/Sit/Reactions/LightShine_2'
p1089
aS'animations/Sit/Reactions/LightShine_3'
p1090
aS'animations/Sit/Reactions/LightShine_4'
p1091
aS'animations/Stand/Reactions/LightShine_1'
p1092
aS'animations/Stand/Reactions/LightShine_2'
p1093
aS'animations/Stand/Reactions/LightShine_3'
p1094
aS'animations/Stand/Reactions/LightShine_4'
p1095
aS'animations/Sit/Emotions/Negative/Late_1'
p1096
aS'animations/Stand/Emotions/Negative/Late_1'
p1097
aS'animations/Stand/Gestures/OnTheEvening_1'
p1098
aS'animations/Stand/Gestures/OnTheEvening_2'
p1099
aS'animations/Stand/Gestures/OnTheEvening_3'
p1100
aS'animations/Stand/Gestures/OnTheEvening_4'
p1101
aS'animations/Stand/Gestures/OnTheEvening_5'
p1102
aS'animations/Stand/Gestures/Salute_3'
p1103
aS'animations/Stand/Gestures/CountMore_1'
p1104
aS'animations/Stand/Gestures/CountMore_2'
p1105
aS'animations/Stand/Gestures/Caress_1'
p1106
aS'animations/Stand/Gestures/Caress_2'
p1107
aS'animations/Sit/Emotions/Positive/Winner_1'
p1108
aS'animations/Stand/Emotions/Positive/Winner_1'
p1109
aS'animations/Stand/Emotions/Positive/Winner_2'
p1110
aS'animations/Stand/Waiting/Taxi_1'
p1111
aS'animations/Stand/Waiting/KungFu_1'
p1112
aS'animations/SitOnPod/Gestures/WhatSThis_1'
p1113
aS'animations/SitOnPod/Gestures/WhatSThis_10'
p1114
aS'animations/SitOnPod/Gestures/WhatSThis_11'
p1115
aS'animations/SitOnPod/Gestures/WhatSThis_12'
p1116
aS'animations/SitOnPod/Gestures/WhatSThis_13'
p1117
aS'animations/SitOnPod/Gestures/WhatSThis_14'
p1118
aS'animations/SitOnPod/Gestures/WhatSThis_15'
p1119
aS'animations/SitOnPod/Gestures/WhatSThis_16'
p1120
aS'animations/SitOnPod/Gestures/WhatSThis_2'
p1121
aS'animations/SitOnPod/Gestures/WhatSThis_3'
p1122
aS'animations/SitOnPod/Gestures/WhatSThis_4'
p1123
aS'animations/SitOnPod/Gestures/WhatSThis_5'
p1124
aS'animations/SitOnPod/Gestures/WhatSThis_6'
p1125
aS'animations/SitOnPod/Gestures/WhatSThis_7'
p1126
aS'animations/SitOnPod/Gestures/WhatSThis_8'
p1127
aS'animations/SitOnPod/Gestures/WhatSThis_9'
p1128
aS'animations/Stand/Gestures/WhatSThis_1'
p1129
aS'animations/Stand/Gestures/WhatSThis_10'
p1130
aS'animations/Stand/Gestures/WhatSThis_11'
p1131
aS'animations/Stand/Gestures/WhatSThis_12'
p1132
aS'animations/Stand/Gestures/WhatSThis_13'
p1133
aS'animations/Stand/Gestures/WhatSThis_14'
p1134
aS'animations/Stand/Gestures/WhatSThis_15'
p1135
aS'animations/Stand/Gestures/WhatSThis_16'
p1136
aS'animations/Stand/Gestures/WhatSThis_2'
p1137
aS'animations/Stand/Gestures/WhatSThis_3'
p1138
aS'animations/Stand/Gestures/WhatSThis_4'
p1139
aS'animations/Stand/Gestures/WhatSThis_5'
p1140
aS'animations/Stand/Gestures/WhatSThis_6'
p1141
aS'animations/Stand/Gestures/WhatSThis_7'
p1142
aS'animations/Stand/Gestures/WhatSThis_8'
p1143
aS'animations/Stand/Gestures/WhatSThis_9'
p1144
aS'animations/Stand/Emotions/Positive/Confident_1'
p1145
aS'animations/Stand/Emotions/Positive/Sure_1'
p1146
aS'animations/Sit/Waiting/Puppet_1'
p1147
aS'animations/Sit/Reactions/BumperLeft_1'
p1148
aS'animations/Sit/Reactions/BumperRight_1'
p1149
aS'animations/Sit/Reactions/Bumpers_1'
p1150
aS'animations/Sit/Reactions/Bumpers_2'
p1151
aS'animations/Sit/Reactions/Bumpers_3'
p1152
aS'animations/Stand/Reactions/BumperLeft_1'
p1153
aS'animations/Stand/Reactions/BumperRight_1'
p1154
aS'animations/Stand/Reactions/Bumpers_1'
p1155
aS'animations/Stand/Reactions/Bumpers_2'
p1156
aS'animations/Stand/Reactions/Bumpers_3'
p1157
aS'animations/Sit/Reactions/LightShine_1'
p1158
aS'animations/Sit/Reactions/LightShine_2'
p1159
aS'animations/Sit/Reactions/LightShine_3'
p1160
aS'animations/Sit/Reactions/LightShine_4'
p1161
aS'animations/Stand/Reactions/LightShine_1'
p1162
aS'animations/Stand/Reactions/LightShine_2'
p1163
aS'animations/Stand/Reactions/LightShine_3'
p1164
aS'animations/Stand/Reactions/LightShine_4'
p1165
aS'animations/Stand/Gestures/CountOne_1'
p1166
aS'animations/Stand/Gestures/CountOne_2'
p1167
aS'animations/Stand/Waiting/Helicopter_1'
p1168
aS'animations/Stand/Waiting/Knight_1'
p1169
aS'animations/Stand/Emotions/Neutral/Mischievous_1'
p1170
aS'animations/Sit/Emotions/Neutral/AskForAttention_3'
p1171
aS'animations/Stand/Emotions/Neutral/AskForAttention_3'
p1172
aS'animations/Stand/Gestures/CalmDown_1'
p1173
aS'animations/Stand/Gestures/CalmDown_2'
p1174
aS'animations/Stand/Gestures/CalmDown_3'
p1175
aS'animations/Stand/Gestures/CalmDown_4'
p1176
aS'animations/Stand/Gestures/CalmDown_5'
p1177
aS'animations/Stand/Gestures/CalmDown_6'
p1178
aS'animations/Stand/Waiting/ShowMuscles_4'
p1179
aS'animations/Stand/Waiting/Vacuum_1'
p1180
aS'animations/SitOnPod/Gestures/Everything_1'
p1181
aS'animations/SitOnPod/Gestures/Everything_2'
p1182
aS'animations/SitOnPod/Gestures/Everything_3'
p1183
aS'animations/SitOnPod/Gestures/Everything_4'
p1184
aS'animations/SitOnPod/Gestures/Everything_6'
p1185
aS'animations/Stand/Gestures/Everything_1'
p1186
aS'animations/Stand/Gestures/Everything_2'
p1187
aS'animations/Stand/Gestures/Everything_3'
p1188
aS'animations/Stand/Gestures/Everything_4'
p1189
aS'animations/Stand/Gestures/Everything_5'
p1190
aS'animations/Stand/Gestures/Everything_6'
p1191
aS'animations/SitOnPod/Gestures/Everything_1'
p1192
aS'animations/SitOnPod/Gestures/Everything_3'
p1193
aS'animations/SitOnPod/Gestures/Everything_4'
p1194
aS'animations/SitOnPod/Gestures/Everything_6'
p1195
aS'animations/Stand/Gestures/Everything_1'
p1196
aS'animations/Stand/Gestures/Everything_3'
p1197
aS'animations/Stand/Gestures/Everything_4'
p1198
aS'animations/Stand/Gestures/Everything_6'
p1199
aS'animations/Sit/Waiting/PlayHands_1'
p1200
aS'animations/Sit/Waiting/PlayHands_2'
p1201
aS'animations/Sit/Waiting/PlayHands_3'
p1202
aS'animations/Sit/Waiting/Pong_1'
p1203
aS'animations/Stand/Waiting/HideHands_1'
p1204
aS'animations/Stand/Waiting/PlayHands_1'
p1205
aS'animations/Stand/Waiting/PlayHands_2'
p1206
aS'animations/Stand/Waiting/PlayHands_3'
p1207
aS'animations/Stand/Emotions/Neutral/Mischievous_1'
p1208
aS'animations/Stand/Gestures/Nothing_1'
p1209
aS'animations/Stand/Gestures/Nothing_2'
p1210
aS'animations/Stand/Waiting/Headbang_1'
p1211
aS'animations/Sit/Emotions/Negative/Fear_1'
p1212
aS'animations/Sit/Emotions/Negative/Surprise_1'
p1213
aS'animations/Stand/Emotions/Negative/Fear_1'
p1214
aS'animations/Stand/Emotions/Negative/Fear_2'
p1215
aS'animations/Stand/Emotions/Negative/Surprise_1'
p1216
aS'animations/Stand/Emotions/Negative/Surprise_2'
p1217
aS'animations/Stand/Emotions/Negative/Surprise_3'
p1218
aS'animations/Stand/Gestures/ShowFloor_1'
p1219
aS'animations/Stand/Gestures/ShowFloor_2'
p1220
aS'animations/Stand/Gestures/ShowFloor_3'
p1221
aS'animations/Stand/Gestures/ShowFloor_4'
p1222
aS'animations/Stand/Gestures/ShowFloor_5'
p1223
aS'animations/Stand/Gestures/Applause_1'
p1224
aS'animations/Sit/Emotions/Positive/Happy_1'
p1225
aS'animations/Sit/Emotions/Positive/Happy_2'
p1226
aS'animations/Sit/Emotions/Positive/Happy_3'
p1227
aS'animations/Sit/Emotions/Positive/Happy_4'
p1228
aS'animations/Sit/Emotions/Positive/Winner_1'
p1229
aS'animations/Stand/Emotions/Positive/Happy_1'
p1230
aS'animations/Stand/Emotions/Positive/Happy_2'
p1231
aS'animations/Stand/Emotions/Positive/Happy_3'
p1232
aS'animations/Stand/Emotions/Positive/Happy_4'
p1233
aS'animations/Stand/Emotions/Positive/Winner_1'
p1234
aS'animations/Stand/Emotions/Positive/Winner_2'
p1235
aS'animations/Stand/Gestures/Hungry_1'
p1236
aS'animations/Stand/Gestures/Far_3'
p1237
aS'animations/Stand/Waiting/HideHands_1'
p1238
aS'animations/Stand/Gestures/Freeze_1'
p1239
aS'animations/Stand/Gestures/Claw_1'
p1240
aS'animations/Stand/Gestures/Claw_2'
p1241
aS'animations/Stand/Emotions/Neutral/Determined_1'
p1242
aS'animations/Sit/Waiting/Music_VieEnRose_1'
p1243
aS'animations/Stand/Gestures/Claw_1'
p1244
aS'animations/Stand/Gestures/Claw_2'
p1245
aS'animations/Sit/Waiting/ScratchLeg_1'
p1246
aS'animations/Stand/Waiting/ScratchLeg_1'
p1247
aS'animations/Stand/Waiting/AirGuitar_1'
p1248
aS'animations/Stand/Gestures/CalmDown_1'
p1249
aS'animations/Stand/Gestures/CalmDown_2'
p1250
aS'animations/Stand/Gestures/CalmDown_3'
p1251
aS'animations/Stand/Gestures/CalmDown_4'
p1252
aS'animations/Stand/Gestures/CalmDown_5'
p1253
aS'animations/Stand/Gestures/CalmDown_6'
p1254
aS'animations/Sit/Waiting/Relaxation_1'
p1255
aS'animations/Sit/Waiting/Relaxation_2'
p1256
aS'animations/Sit/Waiting/Relaxation_3'
p1257
aS'animations/Stand/Gestures/Stretch_1'
p1258
aS'animations/Stand/Gestures/Stretch_2'
p1259
aS'animations/Stand/Waiting/Relaxation_1'
p1260
aS'animations/Stand/Waiting/Relaxation_2'
p1261
aS'animations/Stand/Waiting/Stretch_1'
p1262
aS'animations/Stand/Waiting/Stretch_2'
p1263
aS'animations/Stand/Waiting/Stretch_3'
p1264
aS'animations/Stand/Waiting/WakeUp_1'
p1265
aS'animations/Stand/Waiting/Helicopter_1'
p1266
aS'animations/Stand/Gestures/Maybe_1'
p1267
aS'animations/Stand/Gestures/JointHands_1'
p1268
aS'animations/Stand/Gestures/JointHands_2'
p1269
aS'animations/Stand/Gestures/JointHands_3'
p1270
aS'animations/Stand/Waiting/Drink_1'
p1271
aS'animations/Stand/Emotions/Neutral/Determined_1'
p1272
aS'animations/Stand/Emotions/Neutral/Stubborn_1'
p1273
aS'animations/Sit/Reactions/EthernetOff_1'
p1274
aS'animations/Stand/Reactions/EthernetOff_1'
p1275
aS'animations/Sit/Emotions/Negative/Angry_1'
p1276
aS'animations/Stand/Emotions/Negative/Angry_1'
p1277
aS'animations/Stand/Emotions/Negative/Angry_2'
p1278
aS'animations/Stand/Emotions/Negative/Angry_3'
p1279
aS'animations/Stand/Emotions/Negative/Angry_4'
p1280
aS'animations/Stand/Waiting/Taxi_1'
p1281
aS'animations/Stand/Waiting/KungFu_1'
p1282
aS'animations/Stand/Gestures/But_1'
p1283
aS'animations/Stand/Emotions/Neutral/Determined_1'
p1284
aS'animations/Sit/Waiting/Pong_1'
p1285
aS'animations/Stand/Waiting/Vacuum_1'
p1286
aS'animations/Stand/Gestures/Claw_1'
p1287
aS'animations/Stand/Gestures/Claw_2'
p1288
aS'animations/Stand/Gestures/Caress_2'
p1289
aS'animations/Stand/Gestures/But_1'
p1290
aS'animations/Stand/Gestures/Take_1'
p1291
aS'animations/Stand/Gestures/Hide_1'
p1292
aS'animations/Stand/Waiting/Bandmaster_1'
p1293
aS'animations/Sit/Waiting/MysticalPower_1'
p1294
aS'animations/Stand/Waiting/MysticalPower_1'
p1295
aS'animations/Stand/Emotions/Neutral/Cautious_1'
p1296
aS'animations/SitOnPod/Gestures/Choice_1'
p1297
aS'animations/Stand/Gestures/Choice_1'
p1298
aS'animations/Stand/Gestures/Choice_2'
p1299
aS'animations/Stand/Waiting/KungFu_1'
p1300
aS'animations/Stand/Emotions/Positive/Ecstatic_1'
p1301
aS'animations/Sit/Reactions/TouchHead_1'
p1302
aS'animations/Sit/Reactions/TouchHead_2'
p1303
aS'animations/Sit/Reactions/TouchHead_3'
p1304
aS'animations/Sit/Reactions/TouchHead_4'
p1305
aS'animations/Stand/Reactions/TouchHead_1'
p1306
aS'animations/Stand/Reactions/TouchHead_2'
p1307
aS'animations/Stand/Reactions/TouchHead_3'
p1308
aS'animations/Stand/Reactions/TouchHead_4'
p1309
aS'animations/LED/CircleEyes'
p1310
aS'animations/Stand/Emotions/Neutral/Mischievous_1'
p1311
aS'animations/Stand/Emotions/Neutral/Lonely_1'
p1312
aS'animations/SitOnPod/Gestures/No_1'
p1313
aS'animations/SitOnPod/Gestures/No_2'
p1314
aS'animations/SitOnPod/Gestures/No_3'
p1315
aS'animations/SitOnPod/Gestures/No_4'
p1316
aS'animations/SitOnPod/Gestures/No_5'
p1317
aS'animations/SitOnPod/Gestures/No_6'
p1318
aS'animations/SitOnPod/Gestures/No_7'
p1319
aS'animations/SitOnPod/Gestures/No_8'
p1320
aS'animations/SitOnPod/Gestures/No_9'
p1321
aS'animations/Stand/Gestures/No_1'
p1322
aS'animations/Stand/Gestures/No_2'
p1323
aS'animations/Stand/Gestures/No_3'
p1324
aS'animations/Stand/Gestures/No_4'
p1325
aS'animations/Stand/Gestures/No_5'
p1326
aS'animations/Stand/Gestures/No_6'
p1327
aS'animations/Stand/Gestures/No_7'
p1328
aS'animations/Stand/Gestures/No_8'
p1329
aS'animations/Stand/Gestures/No_9'
p1330
aS'animations/Stand/Emotions/Neutral/Determined_1'
p1331
aS'animations/Stand/Emotions/Neutral/Innocent_1'
p1332
aS'animations/Stand/Waiting/Innocent_1'
p1333
aS'animations/Stand/Emotions/Neutral/Stubborn_1'
p1334
asg1
(g2
(S'S8'
p1335
I0
I1
tp1336
Rp1337
(I3
S'|'
p1338
NNNI8
I1
I0
tp1339
bS'greeting'
p1340
tp1341
Rp1342
(lp1343
S'animations/Stand/Waiting/FunnyDancer_1'
p1344
aS'animations/Stand/Waiting/Headbang_1'
p1345
aS'animations/Stand/Waiting/ShowMuscles_5'
p1346
aS'animations/Stand/Gestures/ShowSky_1'
p1347
aS'animations/Stand/Gestures/ShowSky_10'
p1348
aS'animations/Stand/Gestures/ShowSky_11'
p1349
aS'animations/Stand/Gestures/ShowSky_12'
p1350
aS'animations/Stand/Gestures/ShowSky_2'
p1351
aS'animations/Stand/Gestures/ShowSky_3'
p1352
aS'animations/Stand/Gestures/ShowSky_4'
p1353
aS'animations/Stand/Gestures/ShowSky_5'
p1354
aS'animations/Stand/Gestures/ShowSky_6'
p1355
aS'animations/Stand/Gestures/ShowSky_7'
p1356
aS'animations/Stand/Gestures/ShowSky_8'
p1357
aS'animations/Stand/Gestures/ShowSky_9'
p1358
aS'animations/Stand/Gestures/Wings_1'
p1359
aS'animations/Stand/Gestures/Wings_2'
p1360
aS'animations/Stand/Gestures/Wings_3'
p1361
aS'animations/Stand/Gestures/Wings_4'
p1362
aS'animations/Stand/Gestures/Wings_5'
p1363
aS'animations/SitOnPod/Gestures/Everything_1'
p1364
aS'animations/SitOnPod/Gestures/Everything_2'
p1365
aS'animations/SitOnPod/Gestures/Everything_3'
p1366
aS'animations/SitOnPod/Gestures/Everything_4'
p1367
aS'animations/SitOnPod/Gestures/Everything_6'
p1368
aS'animations/Stand/Gestures/Everything_1'
p1369
aS'animations/Stand/Gestures/Everything_2'
p1370
aS'animations/Stand/Gestures/Everything_3'
p1371
aS'animations/Stand/Gestures/Everything_4'
p1372
aS'animations/Stand/Gestures/Everything_5'
p1373
aS'animations/Stand/Gestures/Everything_6'
p1374
aS'animations/Stand/Waiting/HappyBirthday_1'
p1375
aS'animations/Stand/Gestures/Shoot_1'
p1376
aS'animations/Stand/Gestures/Kisses_1'
p1377
aS'animations/Sit/Waiting/Fitness_1'
p1378
aS'animations/Stand/Waiting/Fitness_1'
p1379
aS'animations/Stand/Waiting/Fitness_2'
p1380
aS'animations/Stand/Waiting/Fitness_3'
p1381
aS'animations/Sit/Waiting/Pong_1'
p1382
aS'animations/Stand/Gestures/Claw_1'
p1383
aS'animations/Stand/Gestures/Claw_2'
p1384
aS'animations/Stand/Gestures/OnTheEvening_1'
p1385
aS'animations/Stand/Gestures/OnTheEvening_2'
p1386
aS'animations/Stand/Gestures/OnTheEvening_3'
p1387
aS'animations/Stand/Gestures/OnTheEvening_4'
p1388
aS'animations/Stand/Gestures/OnTheEvening_5'
p1389
aS'animations/Stand/Waiting/SpaceShuttle_1'
p1390
aS'animations/Stand/Waiting/HappyBirthday_1'
p1391
aS'animations/Stand/Gestures/ShowSky_1'
p1392
aS'animations/Stand/Gestures/ShowSky_10'
p1393
aS'animations/Stand/Gestures/ShowSky_11'
p1394
aS'animations/Stand/Gestures/ShowSky_12'
p1395
aS'animations/Stand/Gestures/ShowSky_2'
p1396
aS'animations/Stand/Gestures/ShowSky_3'
p1397
aS'animations/Stand/Gestures/ShowSky_4'
p1398
aS'animations/Stand/Gestures/ShowSky_5'
p1399
aS'animations/Stand/Gestures/ShowSky_6'
p1400
aS'animations/Stand/Gestures/ShowSky_7'
p1401
aS'animations/Stand/Gestures/ShowSky_8'
p1402
aS'animations/Stand/Gestures/ShowSky_9'
p1403
aS'animations/Stand/Waiting/ShowSky_1'
p1404
aS'animations/Stand/Waiting/ShowSky_2'
p1405
aS'animations/Stand/Gestures/OnTheEvening_1'
p1406
aS'animations/Stand/Gestures/OnTheEvening_2'
p1407
aS'animations/Stand/Gestures/OnTheEvening_3'
p1408
aS'animations/Stand/Gestures/OnTheEvening_4'
p1409
aS'animations/Stand/Gestures/OnTheEvening_5'
p1410
aS'animations/Stand/Gestures/Shoot_1'
p1411
aS'animations/SitOnPod/Emotions/Neutral/Hello_1'
p1412
aS'animations/SitOnPod/Gestures/Hey_1'
p1413
aS'animations/SitOnPod/Gestures/Hey_2'
p1414
aS'animations/SitOnPod/Gestures/Hey_3'
p1415
aS'animations/SitOnPod/Gestures/Hey_4'
p1416
aS'animations/SitOnPod/Gestures/Hey_6'
p1417
aS'animations/SitOnPod/Gestures/Hey_7'
p1418
aS'animations/Stand/Emotions/Neutral/Hello_1'
p1419
aS'animations/Stand/Gestures/Hey_1'
p1420
aS'animations/Stand/Gestures/Hey_2'
p1421
aS'animations/Stand/Gestures/Hey_3'
p1422
aS'animations/Stand/Gestures/Hey_4'
p1423
aS'animations/Stand/Gestures/Hey_5'
p1424
aS'animations/Stand/Gestures/Hey_6'
p1425
aS'animations/SitOnPod/Emotions/Neutral/Hello_1'
p1426
aS'animations/SitOnPod/Gestures/Hey_1'
p1427
aS'animations/SitOnPod/Gestures/Hey_2'
p1428
aS'animations/SitOnPod/Gestures/Hey_3'
p1429
aS'animations/SitOnPod/Gestures/Hey_4'
p1430
aS'animations/SitOnPod/Gestures/Hey_6'
p1431
aS'animations/SitOnPod/Gestures/Hey_7'
p1432
aS'animations/Stand/Emotions/Neutral/Hello_1'
p1433
aS'animations/Stand/Gestures/Hey_1'
p1434
aS'animations/Stand/Gestures/Hey_2'
p1435
aS'animations/Stand/Gestures/Hey_3'
p1436
aS'animations/Stand/Gestures/Hey_4'
p1437
aS'animations/Stand/Gestures/Hey_5'
p1438
aS'animations/Stand/Gestures/Hey_6'
p1439
aS'animations/Stand/Gestures/Hey_7'
p1440
asg1
(g2
(S'S4'
p1441
I0
I1
tp1442
Rp1443
(I3
S'|'
p1444
NNNI4
I1
I0
tp1445
bS'tell'
p1446
tp1447
Rp1448
(lp1449
S'animations/Stand/Gestures/ShowSky_1'
p1450
aS'animations/Stand/Gestures/ShowSky_10'
p1451
aS'animations/Stand/Gestures/ShowSky_11'
p1452
aS'animations/Stand/Gestures/ShowSky_12'
p1453
aS'animations/Stand/Gestures/ShowSky_2'
p1454
aS'animations/Stand/Gestures/ShowSky_3'
p1455
aS'animations/Stand/Gestures/ShowSky_4'
p1456
aS'animations/Stand/Gestures/ShowSky_5'
p1457
aS'animations/Stand/Gestures/ShowSky_6'
p1458
aS'animations/Stand/Gestures/ShowSky_7'
p1459
aS'animations/Stand/Gestures/ShowSky_8'
p1460
aS'animations/Stand/Gestures/ShowSky_9'
p1461
aS'animations/SitOnPod/Gestures/HeSays_1'
p1462
aS'animations/SitOnPod/Gestures/HeSays_2'
p1463
aS'animations/SitOnPod/Gestures/HeSays_3'
p1464
aS'animations/Stand/Gestures/HeSays_1'
p1465
aS'animations/Stand/Gestures/HeSays_2'
p1466
aS'animations/Stand/Gestures/HeSays_3'
p1467
aS'animations/Stand/Gestures/Thinking_1'
p1468
aS'animations/Stand/Gestures/Thinking_2'
p1469
aS'animations/Stand/Gestures/Thinking_3'
p1470
aS'animations/Stand/Gestures/Thinking_4'
p1471
aS'animations/Stand/Gestures/Thinking_5'
p1472
aS'animations/Stand/Gestures/Thinking_6'
p1473
aS'animations/Stand/Gestures/Thinking_7'
p1474
aS'animations/Stand/Gestures/Thinking_8'
p1475
aS'animations/Stand/Waiting/ShowSky_1'
p1476
aS'animations/Stand/Waiting/ShowSky_2'
p1477
aS'animations/Sit/Gestures/You_4'
p1478
aS'animations/SitOnPod/Gestures/HeSays_1'
p1479
aS'animations/SitOnPod/Gestures/HeSays_2'
p1480
aS'animations/SitOnPod/Gestures/HeSays_3'
p1481
aS'animations/SitOnPod/Gestures/You_1'
p1482
aS'animations/SitOnPod/Gestures/You_2'
p1483
aS'animations/SitOnPod/Gestures/You_3'
p1484
aS'animations/SitOnPod/Gestures/You_4'
p1485
aS'animations/SitOnPod/Gestures/You_5'
p1486
aS'animations/Stand/Gestures/HeSays_1'
p1487
aS'animations/Stand/Gestures/HeSays_2'
p1488
aS'animations/Stand/Gestures/HeSays_3'
p1489
aS'animations/Stand/Gestures/You_1'
p1490
aS'animations/Stand/Gestures/You_2'
p1491
aS'animations/Stand/Gestures/You_3'
p1492
aS'animations/Stand/Gestures/You_4'
p1493
aS'animations/Stand/Gestures/You_5'
p1494
aS'animations/SitOnPod/Gestures/No_1'
p1495
aS'animations/SitOnPod/Gestures/No_2'
p1496
aS'animations/SitOnPod/Gestures/No_3'
p1497
aS'animations/SitOnPod/Gestures/No_4'
p1498
aS'animations/SitOnPod/Gestures/No_5'
p1499
aS'animations/SitOnPod/Gestures/No_6'
p1500
aS'animations/SitOnPod/Gestures/No_7'
p1501
aS'animations/SitOnPod/Gestures/No_8'
p1502
aS'animations/SitOnPod/Gestures/No_9'
p1503
aS'animations/Stand/Gestures/No_1'
p1504
aS'animations/Stand/Gestures/No_2'
p1505
aS'animations/Stand/Gestures/No_3'
p1506
aS'animations/Stand/Gestures/No_4'
p1507
aS'animations/Stand/Gestures/No_5'
p1508
aS'animations/Stand/Gestures/No_6'
p1509
aS'animations/Stand/Gestures/No_7'
p1510
aS'animations/Stand/Gestures/No_8'
p1511
aS'animations/Stand/Gestures/No_9'
p1512
aS'animations/Sit/Gestures/You_4'
p1513
aS'animations/SitOnPod/Gestures/You_1'
p1514
aS'animations/SitOnPod/Gestures/You_2'
p1515
aS'animations/SitOnPod/Gestures/You_3'
p1516
aS'animations/SitOnPod/Gestures/You_4'
p1517
aS'animations/SitOnPod/Gestures/You_5'
p1518
aS'animations/Stand/Gestures/You_1'
p1519
aS'animations/Stand/Gestures/You_2'
p1520
aS'animations/Stand/Gestures/You_3'
p1521
aS'animations/Stand/Gestures/You_4'
p1522
aS'animations/Stand/Gestures/You_5'
p1523
aS'animations/Stand/Gestures/Explain_1'
p1524
aS'animations/Stand/Gestures/Explain_10'
p1525
aS'animations/Stand/Gestures/Explain_11'
p1526
aS'animations/Stand/Gestures/Explain_2'
p1527
aS'animations/Stand/Gestures/Explain_3'
p1528
aS'animations/Stand/Gestures/Explain_4'
p1529
aS'animations/Stand/Gestures/Explain_5'
p1530
aS'animations/Stand/Gestures/Explain_6'
p1531
aS'animations/Stand/Gestures/Explain_7'
p1532
aS'animations/Stand/Gestures/Explain_8'
p1533
aS'animations/Stand/Gestures/Explain_9'
p1534
aS'animations/Stand/Gestures/YouKnowWhat_1'
p1535
aS'animations/Stand/Gestures/YouKnowWhat_2'
p1536
aS'animations/Stand/Gestures/YouKnowWhat_3'
p1537
aS'animations/Stand/Gestures/YouKnowWhat_4'
p1538
aS'animations/Stand/Gestures/YouKnowWhat_5'
p1539
aS'animations/Stand/Gestures/YouKnowWhat_6'
p1540
aS'animations/Sit/Waiting/GeoCircle_1'
p1541
aS'animations/Sit/Waiting/ZenCircles_1'
p1542
aS'animations/Sit/Waiting/GeoTriangle_1'
p1543
aS'animations/Stand/Waiting/HideEyes_1'
p1544
aS'animations/Stand/Waiting/ShowMuscles_1'
p1545
aS'animations/Stand/Waiting/ShowMuscles_2'
p1546
aS'animations/Stand/Waiting/ShowMuscles_3'
p1547
aS'animations/Stand/Waiting/ShowMuscles_4'
p1548
aS'animations/Stand/Waiting/ShowMuscles_5'
p1549
aS'animations/Sit/Reactions/SeeColor_1'
p1550
aS'animations/Sit/Reactions/SeeColor_2'
p1551
aS'animations/Sit/Reactions/SeeColor_3'
p1552
aS'animations/Stand/Reactions/SeeColor_1'
p1553
aS'animations/Stand/Reactions/SeeColor_2'
p1554
aS'animations/Stand/Reactions/SeeColor_3'
p1555
aS'animations/Sit/Reactions/SeeColor_1'
p1556
aS'animations/Sit/Reactions/SeeColor_2'
p1557
aS'animations/Sit/Reactions/SeeColor_3'
p1558
aS'animations/Stand/Reactions/SeeColor_1'
p1559
aS'animations/Stand/Reactions/SeeColor_2'
p1560
aS'animations/Stand/Reactions/SeeColor_3'
p1561
aS'animations/Stand/Gestures/Explain_1'
p1562
aS'animations/Stand/Gestures/Explain_10'
p1563
aS'animations/Stand/Gestures/Explain_11'
p1564
aS'animations/Stand/Gestures/Explain_2'
p1565
aS'animations/Stand/Gestures/Explain_3'
p1566
aS'animations/Stand/Gestures/Explain_4'
p1567
aS'animations/Stand/Gestures/Explain_5'
p1568
aS'animations/Stand/Gestures/Explain_6'
p1569
aS'animations/Stand/Gestures/Explain_7'
p1570
aS'animations/Stand/Gestures/Explain_8'
p1571
aS'animations/Stand/Gestures/Explain_9'
p1572
aS'animations/Stand/Gestures/Give_1'
p1573
aS'animations/Stand/Gestures/Give_2'
p1574
aS'animations/Stand/Gestures/Give_3'
p1575
aS'animations/Stand/Gestures/Give_4'
p1576
aS'animations/Stand/Gestures/Give_5'
p1577
aS'animations/Stand/Gestures/Give_6'
p1578
aS'animations/Stand/Gestures/Look_1'
p1579
aS'animations/Stand/Gestures/Look_2'
p1580
aS'animations/Sit/Reactions/EthernetOn_1'
p1581
aS'animations/Stand/Reactions/EthernetOn_1'
p1582
aS'animations/Stand/Emotions/Neutral/Innocent_1'
p1583
aS'animations/Stand/Gestures/Explain_1'
p1584
aS'animations/Stand/Gestures/Explain_10'
p1585
aS'animations/Stand/Gestures/Explain_11'
p1586
aS'animations/Stand/Gestures/Explain_2'
p1587
aS'animations/Stand/Gestures/Explain_3'
p1588
aS'animations/Stand/Gestures/Explain_4'
p1589
aS'animations/Stand/Gestures/Explain_5'
p1590
aS'animations/Stand/Gestures/Explain_6'
p1591
aS'animations/Stand/Gestures/Explain_7'
p1592
aS'animations/Stand/Gestures/Explain_8'
p1593
aS'animations/Stand/Gestures/Explain_9'
p1594
aS'animations/Stand/Waiting/Innocent_1'
p1595
aS'animations/Stand/Emotions/Positive/Interested_1'
p1596
aS'animations/Stand/Emotions/Positive/Interested_2'
p1597
aS'animations/Sit/Waiting/TakePicture_1'
p1598
aS'animations/Stand/Waiting/TakePicture_1'
p1599
asg1
(g2
(S'S5'
p1600
I0
I1
tp1601
Rp1602
(I3
S'|'
p1603
NNNI5
I1
I0
tp1604
bS'other'
p1605
tp1606
Rp1607
(lp1608
S'animations/SitOnPod/Gestures/Everything_1'
p1609
aS'animations/SitOnPod/Gestures/Everything_2'
p1610
aS'animations/SitOnPod/Gestures/Everything_3'
p1611
aS'animations/SitOnPod/Gestures/Everything_4'
p1612
aS'animations/SitOnPod/Gestures/Everything_6'
p1613
aS'animations/Stand/Gestures/Everything_1'
p1614
aS'animations/Stand/Gestures/Everything_2'
p1615
aS'animations/Stand/Gestures/Everything_3'
p1616
aS'animations/Stand/Gestures/Everything_4'
p1617
aS'animations/Stand/Gestures/Everything_5'
p1618
aS'animations/Stand/Gestures/Everything_6'
p1619
aS'animations/Stand/Gestures/CountFour_1'
p1620
aS'animations/Stand/Gestures/CountFour_2'
p1621
aS'animations/SitOnPod/Gestures/Choice_1'
p1622
aS'animations/Stand/Gestures/Choice_1'
p1623
aS'animations/Stand/Gestures/Choice_2'
p1624
aS'animations/Sit/Waiting/Phone_1'
p1625
aS'animations/SitOnPod/Gestures/Everything_1'
p1626
aS'animations/SitOnPod/Gestures/Everything_2'
p1627
aS'animations/SitOnPod/Gestures/Everything_3'
p1628
aS'animations/SitOnPod/Gestures/Everything_4'
p1629
aS'animations/SitOnPod/Gestures/Everything_6'
p1630
aS'animations/Stand/Gestures/Everything_1'
p1631
aS'animations/Stand/Gestures/Everything_2'
p1632
aS'animations/Stand/Gestures/Everything_3'
p1633
aS'animations/Stand/Gestures/Everything_4'
p1634
aS'animations/Stand/Gestures/Everything_5'
p1635
aS'animations/Stand/Gestures/Everything_6'
p1636
aS'animations/SitOnPod/Gestures/Choice_1'
p1637
aS'animations/Stand/Gestures/Choice_1'
p1638
aS'animations/Stand/Gestures/Choice_2'
p1639
aS'animations/Sit/Waiting/Music_HighwayToHell_1'
p1640
aS'animations/Sit/Waiting/Music_VieEnRose_1'
p1641
aS'animations/Stand/Waiting/AirGuitar_1'
p1642
aS'animations/Stand/Waiting/Bandmaster_1'
p1643
aS'animations/Sit/Waiting/ScratchHand_1'
p1644
aS'animations/Stand/Waiting/ScratchHand_1'
p1645
aS'animations/Sit/Waiting/DriveCar_1'
p1646
aS'animations/Stand/Waiting/DriveCar_1'
p1647
aS'animations/Stand/Gestures/ShowSky_1'
p1648
aS'animations/Stand/Gestures/ShowSky_10'
p1649
aS'animations/Stand/Gestures/ShowSky_11'
p1650
aS'animations/Stand/Gestures/ShowSky_12'
p1651
aS'animations/Stand/Gestures/ShowSky_2'
p1652
aS'animations/Stand/Gestures/ShowSky_3'
p1653
aS'animations/Stand/Gestures/ShowSky_4'
p1654
aS'animations/Stand/Gestures/ShowSky_5'
p1655
aS'animations/Stand/Gestures/ShowSky_6'
p1656
aS'animations/Stand/Gestures/ShowSky_7'
p1657
aS'animations/Stand/Gestures/ShowSky_8'
p1658
aS'animations/Stand/Gestures/ShowSky_9'
p1659
aS'animations/Sit/Waiting/ScratchEye_1'
p1660
aS'animations/Stand/Waiting/ScratchEye_1'
p1661
aS'animations/Sit/Waiting/ScratchHead_1'
p1662
aS'animations/Stand/Waiting/ScratchHead_1'
p1663
aS'animations/Sit/Waiting/PlayHands_1'
p1664
aS'animations/Sit/Waiting/PlayHands_2'
p1665
aS'animations/Sit/Waiting/PlayHands_3'
p1666
aS'animations/Stand/Waiting/PlayHands_1'
p1667
aS'animations/Stand/Waiting/PlayHands_2'
p1668
aS'animations/Stand/Waiting/PlayHands_3'
p1669
aS'animations/SitOnPod/Gestures/Choice_1'
p1670
aS'animations/Stand/Gestures/Choice_1'
p1671
aS'animations/Stand/Gestures/Choice_2'
p1672
aS'animations/Stand/Gestures/Far_3'
p1673
aS'animations/Sit/Waiting/AutoFormat_1'
p1674
aS'animations/Stand/Gestures/ShowSky_1'
p1675
aS'animations/Stand/Gestures/ShowSky_10'
p1676
aS'animations/Stand/Gestures/ShowSky_11'
p1677
aS'animations/Stand/Gestures/ShowSky_12'
p1678
aS'animations/Stand/Gestures/ShowSky_2'
p1679
aS'animations/Stand/Gestures/ShowSky_3'
p1680
aS'animations/Stand/Gestures/ShowSky_4'
p1681
aS'animations/Stand/Gestures/ShowSky_5'
p1682
aS'animations/Stand/Gestures/ShowSky_6'
p1683
aS'animations/Stand/Gestures/ShowSky_7'
p1684
aS'animations/Stand/Gestures/ShowSky_8'
p1685
aS'animations/Stand/Gestures/ShowSky_9'
p1686
aS'animations/Sit/Waiting/ScratchBack_1'
p1687
aS'animations/Stand/Waiting/ScratchBack_1'
p1688
aS'animations/Stand/Gestures/Take_1'
p1689
aS'animations/Sit/Emotions/Negative/Hurt_1'
p1690
aS'animations/Stand/Emotions/Negative/Hurt_1'
p1691
aS'animations/Stand/Emotions/Negative/Hurt_2'
p1692
aS'animations/Sit/Waiting/Oar_1'
p1693
aS'animations/Stand/Waiting/ShowMuscles_1'
p1694
aS'animations/Stand/Waiting/ShowMuscles_2'
p1695
aS'animations/Stand/Waiting/ShowMuscles_3'
p1696
aS'animations/Stand/Waiting/ShowMuscles_4'
p1697
aS'animations/Stand/Waiting/ShowMuscles_5'
p1698
aS'animations/Stand/Waiting/Stretch_1'
p1699
aS'animations/Stand/Waiting/Stretch_2'
p1700
aS'animations/Stand/Waiting/Stretch_3'
p1701
aS'animations/Stand/Emotions/Negative/Fearful_1'
p1702
aS'animations/SitOnPod/Gestures/CountThree_1'
p1703
aS'animations/SitOnPod/Gestures/CountThree_2'
p1704
aS'animations/Stand/Gestures/CountThree_1'
p1705
aS'animations/Stand/Gestures/CountThree_2'
p1706
aS'animations/Stand/Waiting/ScratchBottom_1'
p1707
aS'animations/Stand/Gestures/CatchFly_1'
p1708
aS'animations/Stand/Gestures/CatchFly_2'
p1709
aS'animations/Stand/Gestures/Take_1'
p1710
aS'animations/Sit/Waiting/Fitness_1'
p1711
aS'animations/Stand/Waiting/Fitness_1'
p1712
aS'animations/Stand/Waiting/Fitness_2'
p1713
aS'animations/Stand/Waiting/Fitness_3'
p1714
aS'animations/Sit/Waiting/TakePicture_1'
p1715
aS'animations/Stand/Waiting/TakePicture_1'
p1716
aS'animations/Sit/Reactions/BumperLeft_1'
p1717
aS'animations/Sit/Reactions/BumperRight_1'
p1718
aS'animations/Sit/Reactions/Bumpers_1'
p1719
aS'animations/Sit/Reactions/Bumpers_2'
p1720
aS'animations/Sit/Reactions/Bumpers_3'
p1721
aS'animations/Sit/Reactions/TouchHead_1'
p1722
aS'animations/Sit/Reactions/TouchHead_2'
p1723
aS'animations/Sit/Reactions/TouchHead_3'
p1724
aS'animations/Sit/Reactions/TouchHead_4'
p1725
aS'animations/Stand/Reactions/BumperLeft_1'
p1726
aS'animations/Stand/Reactions/BumperRight_1'
p1727
aS'animations/Stand/Reactions/Bumpers_1'
p1728
aS'animations/Stand/Reactions/Bumpers_2'
p1729
aS'animations/Stand/Reactions/Bumpers_3'
p1730
aS'animations/Stand/Reactions/TouchHead_1'
p1731
aS'animations/Stand/Reactions/TouchHead_2'
p1732
aS'animations/Stand/Reactions/TouchHead_3'
p1733
aS'animations/Stand/Reactions/TouchHead_4'
p1734
aS'animations/Stand/Gestures/CountFive_1'
p1735
aS'animations/Stand/Gestures/CountFive_2'
p1736
aS'animations/Sit/Reactions/BumperRight_1'
p1737
aS'animations/Stand/Reactions/BumperRight_1'
p1738
aS'animations/SitOnPod/Gestures/WhatSThis_1'
p1739
aS'animations/SitOnPod/Gestures/WhatSThis_10'
p1740
aS'animations/SitOnPod/Gestures/WhatSThis_11'
p1741
aS'animations/SitOnPod/Gestures/WhatSThis_12'
p1742
aS'animations/SitOnPod/Gestures/WhatSThis_13'
p1743
aS'animations/SitOnPod/Gestures/WhatSThis_14'
p1744
aS'animations/SitOnPod/Gestures/WhatSThis_15'
p1745
aS'animations/SitOnPod/Gestures/WhatSThis_16'
p1746
aS'animations/SitOnPod/Gestures/WhatSThis_2'
p1747
aS'animations/SitOnPod/Gestures/WhatSThis_3'
p1748
aS'animations/SitOnPod/Gestures/WhatSThis_4'
p1749
aS'animations/SitOnPod/Gestures/WhatSThis_5'
p1750
aS'animations/SitOnPod/Gestures/WhatSThis_6'
p1751
aS'animations/SitOnPod/Gestures/WhatSThis_7'
p1752
aS'animations/SitOnPod/Gestures/WhatSThis_8'
p1753
aS'animations/SitOnPod/Gestures/WhatSThis_9'
p1754
aS'animations/Stand/Gestures/WhatSThis_1'
p1755
aS'animations/Stand/Gestures/WhatSThis_10'
p1756
aS'animations/Stand/Gestures/WhatSThis_11'
p1757
aS'animations/Stand/Gestures/WhatSThis_12'
p1758
aS'animations/Stand/Gestures/WhatSThis_13'
p1759
aS'animations/Stand/Gestures/WhatSThis_14'
p1760
aS'animations/Stand/Gestures/WhatSThis_15'
p1761
aS'animations/Stand/Gestures/WhatSThis_16'
p1762
aS'animations/Stand/Gestures/WhatSThis_2'
p1763
aS'animations/Stand/Gestures/WhatSThis_3'
p1764
aS'animations/Stand/Gestures/WhatSThis_4'
p1765
aS'animations/Stand/Gestures/WhatSThis_5'
p1766
aS'animations/Stand/Gestures/WhatSThis_6'
p1767
aS'animations/Stand/Gestures/WhatSThis_7'
p1768
aS'animations/Stand/Gestures/WhatSThis_8'
p1769
aS'animations/Stand/Gestures/WhatSThis_9'
p1770
aS'animations/Stand/Waiting/BackRubs_1'
p1771
aS'animations/SitOnPod/Gestures/CountTwo_1'
p1772
aS'animations/SitOnPod/Gestures/CountTwo_2'
p1773
aS'animations/Stand/Gestures/CountTwo_1'
p1774
aS'animations/Stand/Gestures/CountTwo_2'
p1775
aS'animations/Sit/Gestures/You_4'
p1776
aS'animations/SitOnPod/Gestures/You_1'
p1777
aS'animations/SitOnPod/Gestures/You_2'
p1778
aS'animations/SitOnPod/Gestures/You_3'
p1779
aS'animations/SitOnPod/Gestures/You_4'
p1780
aS'animations/SitOnPod/Gestures/You_5'
p1781
aS'animations/Stand/Gestures/You_1'
p1782
aS'animations/Stand/Gestures/You_2'
p1783
aS'animations/Stand/Gestures/You_3'
p1784
aS'animations/Stand/Gestures/You_4'
p1785
aS'animations/Stand/Gestures/You_5'
p1786
aS'animations/Stand/Gestures/Give_1'
p1787
aS'animations/Stand/Gestures/Give_2'
p1788
aS'animations/Stand/Gestures/Give_3'
p1789
aS'animations/Stand/Gestures/Give_4'
p1790
aS'animations/Stand/Gestures/Give_5'
p1791
aS'animations/Stand/Gestures/Give_6'
p1792
aS'animations/Stand/Gestures/Joy_1'
p1793
aS'animations/Sit/Reactions/Heat_1'
p1794
aS'animations/Stand/Reactions/Heat_1'
p1795
aS'animations/Stand/Reactions/Heat_2'
p1796
aS'animations/Stand/Gestures/Next_1'
p1797
aS'animations/Stand/Gestures/JointHands_1'
p1798
aS'animations/Stand/Gestures/JointHands_2'
p1799
aS'animations/Stand/Gestures/JointHands_3'
p1800
asg1
(g2
(S'S3'
p1801
I0
I1
tp1802
Rp1803
(I3
S'|'
p1804
NNNI3
I1
I0
tp1805
bS'ask'
p1806
tp1807
Rp1808
(lp1809
S'animations/Stand/Gestures/Follow_1'
p1810
aS'animations/Stand/Gestures/Next_1'
p1811
aS'animations/Stand/Gestures/CalmDown_1'
p1812
aS'animations/Stand/Gestures/CalmDown_2'
p1813
aS'animations/Stand/Gestures/CalmDown_3'
p1814
aS'animations/Stand/Gestures/CalmDown_4'
p1815
aS'animations/Stand/Gestures/CalmDown_5'
p1816
aS'animations/Stand/Gestures/CalmDown_6'
p1817
aS'animations/Stand/Emotions/Neutral/Determined_1'
p1818
aS'animations/Stand/Emotions/Neutral/Stubborn_1'
p1819
aS'animations/Sit/Waiting/MysticalPower_1'
p1820
aS'animations/Stand/Waiting/MysticalPower_1'
p1821
aS'animations/Stand/Gestures/Reject_1'
p1822
aS'animations/Stand/Gestures/Reject_2'
p1823
aS'animations/Stand/Gestures/Reject_3'
p1824
aS'animations/Stand/Gestures/Reject_4'
p1825
aS'animations/Stand/Gestures/Reject_5'
p1826
aS'animations/Stand/Gestures/Reject_6'
p1827
aS'animations/Stand/Emotions/Neutral/Hesitation_1'
p1828
aS'animations/Stand/Gestures/Give_1'
p1829
aS'animations/Stand/Gestures/Give_2'
p1830
aS'animations/Stand/Gestures/Give_3'
p1831
aS'animations/Stand/Gestures/Give_4'
p1832
aS'animations/Stand/Gestures/Give_5'
p1833
aS'animations/Stand/Gestures/Give_6'
p1834
aS'animations/Stand/Reactions/SeeSomething_1'
p1835
aS'animations/SitOnPod/Gestures/This_1'
p1836
aS'animations/SitOnPod/Gestures/This_10'
p1837
aS'animations/SitOnPod/Gestures/This_11'
p1838
aS'animations/SitOnPod/Gestures/This_12'
p1839
aS'animations/SitOnPod/Gestures/This_13'
p1840
aS'animations/SitOnPod/Gestures/This_14'
p1841
aS'animations/SitOnPod/Gestures/This_15'
p1842
aS'animations/SitOnPod/Gestures/This_2'
p1843
aS'animations/SitOnPod/Gestures/This_3'
p1844
aS'animations/SitOnPod/Gestures/This_4'
p1845
aS'animations/SitOnPod/Gestures/This_5'
p1846
aS'animations/SitOnPod/Gestures/This_6'
p1847
aS'animations/SitOnPod/Gestures/This_7'
p1848
aS'animations/SitOnPod/Gestures/This_8'
p1849
aS'animations/SitOnPod/Gestures/This_9'
p1850
aS'animations/Stand/Gestures/Far_1'
p1851
aS'animations/Stand/Gestures/Far_2'
p1852
aS'animations/Stand/Gestures/Far_3'
p1853
aS'animations/Stand/Gestures/Next_1'
p1854
aS'animations/Stand/Gestures/ShowFloor_1'
p1855
aS'animations/Stand/Gestures/ShowFloor_2'
p1856
aS'animations/Stand/Gestures/ShowFloor_3'
p1857
aS'animations/Stand/Gestures/ShowFloor_4'
p1858
aS'animations/Stand/Gestures/ShowFloor_5'
p1859
aS'animations/Stand/Gestures/This_1'
p1860
aS'animations/Stand/Gestures/This_10'
p1861
aS'animations/Stand/Gestures/This_11'
p1862
aS'animations/Stand/Gestures/This_12'
p1863
aS'animations/Stand/Gestures/This_13'
p1864
aS'animations/Stand/Gestures/This_14'
p1865
aS'animations/Stand/Gestures/This_15'
p1866
aS'animations/Stand/Gestures/This_2'
p1867
aS'animations/Stand/Gestures/This_3'
p1868
aS'animations/Stand/Gestures/This_4'
p1869
aS'animations/Stand/Gestures/This_5'
p1870
aS'animations/Stand/Gestures/This_6'
p1871
aS'animations/Stand/Gestures/This_7'
p1872
aS'animations/Stand/Gestures/This_8'
p1873
aS'animations/Stand/Gestures/This_9'
p1874
aS'animations/Stand/Waiting/HappyBirthday_1'
p1875
aS'animations/Sit/Emotions/Negative/Late_1'
p1876
aS'animations/Stand/Emotions/Negative/Late_1'
p1877
aS'animations/Stand/Gestures/Please_1'
p1878
aS'animations/Stand/Gestures/Please_2'
p1879
aS'animations/Stand/Gestures/Please_3'
p1880
aS'animations/Stand/Gestures/Please_1'
p1881
aS'animations/Stand/Gestures/Please_2'
p1882
aS'animations/Stand/Gestures/Please_3'
p1883
aS'animations/Stand/Emotions/Neutral/Embarrassed_1'
p1884
aS'animations/Stand/Gestures/Give_1'
p1885
aS'animations/Stand/Gestures/Give_2'
p1886
aS'animations/Stand/Gestures/Give_3'
p1887
aS'animations/Stand/Gestures/Give_4'
p1888
aS'animations/Stand/Gestures/Give_5'
p1889
aS'animations/Stand/Gestures/Give_6'
p1890
aS'animations/Stand/Gestures/Joy_1'
p1891
aS'animations/Stand/Emotions/Neutral/Hesitation_1'
p1892
aS'animations/SitOnPod/Gestures/No_1'
p1893
aS'animations/SitOnPod/Gestures/No_2'
p1894
aS'animations/SitOnPod/Gestures/No_3'
p1895
aS'animations/SitOnPod/Gestures/No_4'
p1896
aS'animations/SitOnPod/Gestures/No_5'
p1897
aS'animations/SitOnPod/Gestures/No_6'
p1898
aS'animations/SitOnPod/Gestures/No_7'
p1899
aS'animations/SitOnPod/Gestures/No_8'
p1900
aS'animations/SitOnPod/Gestures/No_9'
p1901
aS'animations/Stand/Gestures/No_1'
p1902
aS'animations/Stand/Gestures/No_2'
p1903
aS'animations/Stand/Gestures/No_3'
p1904
aS'animations/Stand/Gestures/No_4'
p1905
aS'animations/Stand/Gestures/No_5'
p1906
aS'animations/Stand/Gestures/No_6'
p1907
aS'animations/Stand/Gestures/No_7'
p1908
aS'animations/Stand/Gestures/No_8'
p1909
aS'animations/Stand/Gestures/No_9'
p1910
aS'animations/Stand/Gestures/Reject_1'
p1911
aS'animations/Stand/Gestures/Reject_2'
p1912
aS'animations/Stand/Gestures/Reject_3'
p1913
aS'animations/Stand/Gestures/Reject_4'
p1914
aS'animations/Stand/Gestures/Reject_5'
p1915
aS'animations/Stand/Gestures/Reject_6'
p1916
aS'animations/Stand/Emotions/Neutral/Mischievous_1'
p1917
aS'animations/Stand/Waiting/Taxi_1'
p1918
aS'animations/Stand/Gestures/CalmDown_1'
p1919
aS'animations/Stand/Gestures/CalmDown_2'
p1920
aS'animations/Stand/Gestures/CalmDown_3'
p1921
aS'animations/Stand/Gestures/CalmDown_4'
p1922
aS'animations/Stand/Gestures/CalmDown_5'
p1923
aS'animations/Stand/Gestures/CalmDown_6'
p1924
aS'animations/Stand/Gestures/Follow_1'
p1925
aS'animations/Stand/Gestures/Please_1'
p1926
aS'animations/Stand/Gestures/Please_2'
p1927
aS'animations/Stand/Gestures/Please_3'
p1928
aS'animations/Stand/Gestures/Caress_1'
p1929
aS'animations/Stand/Gestures/Caress_2'
p1930
aS'animations/Stand/Gestures/Excited_1'
p1931
aS'animations/Stand/Gestures/CatchFly_1'
p1932
aS'animations/Stand/Gestures/CatchFly_2'
p1933
aS'animations/Stand/Gestures/Take_1'
p1934
aS'animations/Stand/Gestures/Look_1'
p1935
aS'animations/Stand/Gestures/Look_2'
p1936
aS'animations/Sit/Waiting/Think_1'
p1937
aS'animations/Sit/Waiting/Think_2'
p1938
aS'animations/Sit/Waiting/Think_3'
p1939
aS'animations/Stand/Gestures/Thinking_1'
p1940
aS'animations/Stand/Gestures/Thinking_2'
p1941
aS'animations/Stand/Gestures/Thinking_3'
p1942
aS'animations/Stand/Gestures/Thinking_4'
p1943
aS'animations/Stand/Gestures/Thinking_5'
p1944
aS'animations/Stand/Gestures/Thinking_6'
p1945
aS'animations/Stand/Gestures/Thinking_7'
p1946
aS'animations/Stand/Gestures/Thinking_8'
p1947
aS'animations/Stand/Waiting/Think_1'
p1948
aS'animations/Stand/Waiting/Think_2'
p1949
aS'animations/Stand/Waiting/Think_3'
p1950
aS'animations/Stand/Waiting/Think_4'
p1951
aS'animations/Stand/Gestures/Please_1'
p1952
aS'animations/Stand/Gestures/Please_2'
p1953
aS'animations/Stand/Gestures/Please_3'
p1954
aS'animations/Stand/Emotions/Neutral/Annoyed_1'
p1955
aS'animations/Stand/Gestures/Please_1'
p1956
aS'animations/Stand/Gestures/Please_2'
p1957
aS'animations/Stand/Gestures/Please_3'
p1958
aS'animations/Sit/Emotions/Neutral/AskForAttention_1'
p1959
aS'animations/Sit/Emotions/Neutral/AskForAttention_2'
p1960
aS'animations/Sit/Emotions/Neutral/AskForAttention_3'
p1961
aS'animations/Sit/Gestures/Hey_3'
p1962
aS'animations/Sit/Waiting/CallSomeone_1'
p1963
aS'animations/Sit/Waiting/Phone_1'
p1964
aS'animations/SitOnPod/Gestures/Hey_1'
p1965
aS'animations/SitOnPod/Gestures/Hey_2'
p1966
aS'animations/SitOnPod/Gestures/Hey_3'
p1967
aS'animations/SitOnPod/Gestures/Hey_4'
p1968
aS'animations/SitOnPod/Gestures/Hey_6'
p1969
aS'animations/SitOnPod/Gestures/Hey_7'
p1970
aS'animations/Stand/Emotions/Neutral/AskForAttention_1'
p1971
aS'animations/Stand/Emotions/Neutral/AskForAttention_2'
p1972
aS'animations/Stand/Emotions/Neutral/AskForAttention_3'
p1973
aS'animations/Stand/Gestures/Hey_1'
p1974
aS'animations/Stand/Gestures/Hey_2'
p1975
aS'animations/Stand/Gestures/Hey_3'
p1976
aS'animations/Stand/Gestures/Hey_4'
p1977
aS'animations/Stand/Gestures/Hey_5'
p1978
aS'animations/Stand/Gestures/Hey_6'
p1979
aS'animations/Stand/Gestures/Hey_7'
p1980
aS'animations/Stand/Waiting/CallSomeone_1'
p1981
aS'animations/Stand/Waiting/Taxi_1'
p1982
aS'animations/Stand/Emotions/Negative/Shocked_1'
p1983
aS'animations/Stand/Emotions/Neutral/Hesitation_1'
p1984
aS'animations/Stand/Gestures/Coaxing_1'
p1985
aS'animations/Stand/Gestures/Coaxing_2'
p1986
aS'animations/Sit/Waiting/MysticalPower_1'
p1987
aS'animations/Stand/Waiting/MysticalPower_1'
p1988
aS'animations/Sit/Reactions/SeeColor_1'
p1989
aS'animations/Sit/Reactions/SeeColor_2'
p1990
aS'animations/Sit/Reactions/SeeColor_3'
p1991
aS'animations/Stand/Gestures/Look_1'
p1992
aS'animations/Stand/Gestures/Look_2'
p1993
aS'animations/Stand/Reactions/SeeColor_1'
p1994
aS'animations/Stand/Reactions/SeeColor_2'
p1995
aS'animations/Stand/Reactions/SeeColor_3'
p1996
aS'animations/Stand/Reactions/SeeSomething_3'
p1997
aS'animations/Stand/Reactions/SeeSomething_4'
p1998
aS'animations/Stand/Reactions/SeeSomething_5'
p1999
aS'animations/Stand/Reactions/SeeSomething_6'
p2000
aS'animations/Stand/Reactions/SeeSomething_7'
p2001
aS'animations/Stand/Reactions/SeeSomething_8'
p2002
aS'animations/Stand/Gestures/CalmDown_1'
p2003
aS'animations/Stand/Gestures/CalmDown_2'
p2004
aS'animations/Stand/Gestures/CalmDown_3'
p2005
aS'animations/Stand/Gestures/CalmDown_4'
p2006
aS'animations/Stand/Gestures/CalmDown_5'
p2007
aS'animations/Stand/Gestures/CalmDown_6'
p2008
aS'animations/Sit/Waiting/Rest_1'
p2009
aS'animations/Stand/Waiting/Rest_1'
p2010
aS'animations/Sit/Emotions/Negative/Sad_1'
p2011
aS'animations/Stand/Emotions/Negative/Sad_1'
p2012
aS'animations/Stand/Emotions/Negative/Sad_2'
p2013
aS'animations/Stand/Emotions/Positive/Interested_1'
p2014
aS'animations/Stand/Emotions/Positive/Interested_2'
p2015
aS'animations/SitOnPod/Gestures/WhatSThis_1'
p2016
aS'animations/SitOnPod/Gestures/WhatSThis_10'
p2017
aS'animations/SitOnPod/Gestures/WhatSThis_11'
p2018
aS'animations/SitOnPod/Gestures/WhatSThis_12'
p2019
aS'animations/SitOnPod/Gestures/WhatSThis_13'
p2020
aS'animations/SitOnPod/Gestures/WhatSThis_14'
p2021
aS'animations/SitOnPod/Gestures/WhatSThis_15'
p2022
aS'animations/SitOnPod/Gestures/WhatSThis_16'
p2023
aS'animations/SitOnPod/Gestures/WhatSThis_2'
p2024
aS'animations/SitOnPod/Gestures/WhatSThis_3'
p2025
aS'animations/SitOnPod/Gestures/WhatSThis_4'
p2026
aS'animations/SitOnPod/Gestures/WhatSThis_5'
p2027
aS'animations/SitOnPod/Gestures/WhatSThis_6'
p2028
aS'animations/SitOnPod/Gestures/WhatSThis_7'
p2029
aS'animations/SitOnPod/Gestures/WhatSThis_8'
p2030
aS'animations/SitOnPod/Gestures/WhatSThis_9'
p2031
aS'animations/Stand/Gestures/WhatSThis_1'
p2032
aS'animations/Stand/Gestures/WhatSThis_10'
p2033
aS'animations/Stand/Gestures/WhatSThis_11'
p2034
aS'animations/Stand/Gestures/WhatSThis_12'
p2035
aS'animations/Stand/Gestures/WhatSThis_13'
p2036
aS'animations/Stand/Gestures/WhatSThis_14'
p2037
aS'animations/Stand/Gestures/WhatSThis_15'
p2038
aS'animations/Stand/Gestures/WhatSThis_16'
p2039
aS'animations/Stand/Gestures/WhatSThis_2'
p2040
aS'animations/Stand/Gestures/WhatSThis_3'
p2041
aS'animations/Stand/Gestures/WhatSThis_4'
p2042
aS'animations/Stand/Gestures/WhatSThis_5'
p2043
aS'animations/Stand/Gestures/WhatSThis_6'
p2044
aS'animations/Stand/Gestures/WhatSThis_7'
p2045
aS'animations/Stand/Gestures/WhatSThis_8'
p2046
aS'animations/Stand/Gestures/WhatSThis_9'
p2047
aS'animations/Sit/Waiting/Think_1'
p2048
aS'animations/Sit/Waiting/Think_2'
p2049
aS'animations/Sit/Waiting/Think_3'
p2050
aS'animations/Stand/Waiting/Think_1'
p2051
aS'animations/Stand/Waiting/Think_2'
p2052
aS'animations/Stand/Waiting/Think_3'
p2053
aS'animations/Stand/Waiting/Think_4'
p2054
aS'animations/Stand/Gestures/Give_1'
p2055
aS'animations/Stand/Gestures/Give_2'
p2056
aS'animations/Stand/Gestures/Give_3'
p2057
aS'animations/Stand/Gestures/Give_4'
p2058
aS'animations/Stand/Gestures/Give_5'
p2059
aS'animations/Stand/Gestures/Give_6'
p2060
aS'animations/Stand/Gestures/Follow_1'
p2061
aS'animations/Stand/Waiting/FunnySlide_1'
p2062
aS'animations/Stand/Emotions/Negative/Anxious_1'
p2063
aS'animations/SitOnPod/Gestures/Choice_1'
p2064
aS'animations/Stand/Gestures/Choice_1'
p2065
aS'animations/Stand/Gestures/Choice_2'
p2066
aS'animations/SitOnPod/Gestures/HeSays_1'
p2067
aS'animations/SitOnPod/Gestures/HeSays_2'
p2068
aS'animations/SitOnPod/Gestures/HeSays_3'
p2069
aS'animations/Stand/Gestures/HeSays_1'
p2070
aS'animations/Stand/Gestures/HeSays_2'
p2071
aS'animations/Stand/Gestures/HeSays_3'
p2072
aS'animations/Stand/Gestures/Salute_1'
p2073
aS'animations/Stand/Gestures/Salute_2'
p2074
aS'animations/Stand/Gestures/Salute_3'
p2075
aS'animations/Sit/Reactions/LightShine_1'
p2076
aS'animations/Sit/Reactions/LightShine_2'
p2077
aS'animations/Sit/Reactions/LightShine_3'
p2078
aS'animations/Sit/Reactions/LightShine_4'
p2079
aS'animations/Stand/Reactions/LightShine_1'
p2080
aS'animations/Stand/Reactions/LightShine_2'
p2081
aS'animations/Stand/Reactions/LightShine_3'
p2082
aS'animations/Stand/Reactions/LightShine_4'
p2083
aS'animations/Stand/Gestures/Reject_1'
p2084
aS'animations/Stand/Gestures/Reject_2'
p2085
aS'animations/Stand/Gestures/Reject_3'
p2086
aS'animations/Stand/Gestures/Reject_4'
p2087
aS'animations/Stand/Gestures/Reject_5'
p2088
aS'animations/Stand/Gestures/Reject_6'
p2089
aS'animations/Stand/Gestures/CalmDown_1'
p2090
aS'animations/Stand/Gestures/CalmDown_2'
p2091
aS'animations/Stand/Gestures/CalmDown_3'
p2092
aS'animations/Stand/Gestures/CalmDown_4'
p2093
aS'animations/Stand/Gestures/CalmDown_5'
p2094
aS'animations/Stand/Gestures/CalmDown_6'
p2095
aS'animations/Stand/Gestures/CalmDown_1'
p2096
aS'animations/Stand/Gestures/CalmDown_2'
p2097
aS'animations/Stand/Gestures/CalmDown_3'
p2098
aS'animations/Stand/Gestures/CalmDown_4'
p2099
aS'animations/Stand/Gestures/CalmDown_5'
p2100
aS'animations/Stand/Gestures/CalmDown_6'
p2101
aS'animations/Stand/Gestures/Freeze_1'
p2102
aS'animations/Sit/Gestures/You_4'
p2103
aS'animations/SitOnPod/Gestures/You_1'
p2104
aS'animations/SitOnPod/Gestures/You_2'
p2105
aS'animations/SitOnPod/Gestures/You_3'
p2106
aS'animations/SitOnPod/Gestures/You_4'
p2107
aS'animations/SitOnPod/Gestures/You_5'
p2108
aS'animations/Stand/Gestures/Joy_1'
p2109
aS'animations/Stand/Gestures/You_1'
p2110
aS'animations/Stand/Gestures/You_2'
p2111
aS'animations/Stand/Gestures/You_3'
p2112
aS'animations/Stand/Gestures/You_4'
p2113
aS'animations/Stand/Gestures/You_5'
p2114
aS'animations/Stand/Gestures/CalmDown_1'
p2115
aS'animations/Stand/Gestures/CalmDown_2'
p2116
aS'animations/Stand/Gestures/CalmDown_3'
p2117
aS'animations/Stand/Gestures/CalmDown_4'
p2118
aS'animations/Stand/Gestures/CalmDown_5'
p2119
aS'animations/Stand/Gestures/CalmDown_6'
p2120
aS'animations/Stand/Emotions/Negative/Sorry_1'
p2121
aS'animations/Stand/Emotions/Neutral/Confused_1'
p2122
aS'animations/Sit/Waiting/Phone_1'
p2123
aS'animations/Stand/Gestures/Please_1'
p2124
aS'animations/Stand/Gestures/Please_2'
p2125
aS'animations/Stand/Gestures/Please_3'
p2126
asg1
(g2
(S'S5'
p2127
I0
I1
tp2128
Rp2129
(I3
S'|'
p2130
NNNI5
I1
I0
tp2131
bS'agree'
p2132
tp2133
Rp2134
(lp2135
S'animations/Sit/Emotions/Negative/Hurt_1'
p2136
aS'animations/Stand/Emotions/Negative/Hurt_1'
p2137
aS'animations/Stand/Emotions/Negative/Hurt_2'
p2138
aS'animations/Stand/Gestures/Reject_1'
p2139
aS'animations/Stand/Gestures/Reject_2'
p2140
aS'animations/Stand/Gestures/Reject_3'
p2141
aS'animations/Stand/Gestures/Reject_4'
p2142
aS'animations/Stand/Gestures/Reject_5'
p2143
aS'animations/Stand/Gestures/Reject_6'
p2144
aS'animations/Stand/Emotions/Negative/Sorry_1'
p2145
aS'animations/Stand/Emotions/Neutral/Confused_1'
p2146
aS'animations/Stand/Gestures/Confused_1'
p2147
aS'animations/Stand/Gestures/Confused_2'
p2148
aS'animations/Stand/Gestures/Angry_1'
p2149
aS'animations/Stand/Gestures/Angry_2'
p2150
aS'animations/Stand/Gestures/Angry_3'
p2151
aS'animations/Sit/Reactions/Heat_1'
p2152
aS'animations/Sit/Waiting/Yawn_1'
p2153
aS'animations/Stand/Gestures/Stretch_1'
p2154
aS'animations/Stand/Gestures/Stretch_2'
p2155
aS'animations/Stand/Reactions/Heat_1'
p2156
aS'animations/Stand/Reactions/Heat_2'
p2157
aS'animations/Sit/Waiting/Robot_1'
p2158
aS'animations/Stand/Waiting/Robot_1'
p2159
aS'animations/SitOnPod/Gestures/WhatSThis_1'
p2160
aS'animations/SitOnPod/Gestures/WhatSThis_10'
p2161
aS'animations/SitOnPod/Gestures/WhatSThis_11'
p2162
aS'animations/SitOnPod/Gestures/WhatSThis_12'
p2163
aS'animations/SitOnPod/Gestures/WhatSThis_13'
p2164
aS'animations/SitOnPod/Gestures/WhatSThis_14'
p2165
aS'animations/SitOnPod/Gestures/WhatSThis_15'
p2166
aS'animations/SitOnPod/Gestures/WhatSThis_16'
p2167
aS'animations/SitOnPod/Gestures/WhatSThis_2'
p2168
aS'animations/SitOnPod/Gestures/WhatSThis_3'
p2169
aS'animations/SitOnPod/Gestures/WhatSThis_4'
p2170
aS'animations/SitOnPod/Gestures/WhatSThis_5'
p2171
aS'animations/SitOnPod/Gestures/WhatSThis_6'
p2172
aS'animations/SitOnPod/Gestures/WhatSThis_7'
p2173
aS'animations/SitOnPod/Gestures/WhatSThis_8'
p2174
aS'animations/SitOnPod/Gestures/WhatSThis_9'
p2175
aS'animations/Stand/Gestures/WhatSThis_1'
p2176
aS'animations/Stand/Gestures/WhatSThis_10'
p2177
aS'animations/Stand/Gestures/WhatSThis_11'
p2178
aS'animations/Stand/Gestures/WhatSThis_12'
p2179
aS'animations/Stand/Gestures/WhatSThis_13'
p2180
aS'animations/Stand/Gestures/WhatSThis_14'
p2181
aS'animations/Stand/Gestures/WhatSThis_15'
p2182
aS'animations/Stand/Gestures/WhatSThis_16'
p2183
aS'animations/Stand/Gestures/WhatSThis_2'
p2184
aS'animations/Stand/Gestures/WhatSThis_3'
p2185
aS'animations/Stand/Gestures/WhatSThis_4'
p2186
aS'animations/Stand/Gestures/WhatSThis_5'
p2187
aS'animations/Stand/Gestures/WhatSThis_6'
p2188
aS'animations/Stand/Gestures/WhatSThis_7'
p2189
aS'animations/Stand/Gestures/WhatSThis_8'
p2190
aS'animations/Stand/Gestures/WhatSThis_9'
p2191
aS'animations/Stand/Emotions/Positive/Relieved_1'
p2192
aS'animations/Sit/Emotions/Negative/Angry_1'
p2193
aS'animations/Stand/Emotions/Negative/Angry_1'
p2194
aS'animations/Stand/Emotions/Negative/Angry_2'
p2195
aS'animations/Stand/Emotions/Negative/Angry_3'
p2196
aS'animations/Stand/Emotions/Negative/Angry_4'
p2197
aS'animations/Stand/Gestures/Angry_1'
p2198
aS'animations/Stand/Gestures/Angry_2'
p2199
aS'animations/Stand/Gestures/Angry_3'
p2200
aS'animations/Stand/Waiting/Monster_1'
p2201
aS'animations/Stand/Emotions/Negative/Sorry_1'
p2202
aS'animations/Stand/Emotions/Neutral/Confused_1'
p2203
aS'animations/SitOnPod/Gestures/Yes_1'
p2204
aS'animations/SitOnPod/Gestures/Yes_2'
p2205
aS'animations/SitOnPod/Gestures/Yes_3'
p2206
aS'animations/Stand/Gestures/Yes_1'
p2207
aS'animations/Stand/Gestures/Yes_2'
p2208
aS'animations/Stand/Gestures/Yes_3'
p2209
aS'animations/Stand/Emotions/Positive/Enthusiastic_1'
p2210
aS'animations/Stand/Emotions/Positive/Hysterical_1'
p2211
aS'animations/Sit/Waiting/Pong_1'
p2212
aS'animations/SitOnPod/Gestures/No_1'
p2213
aS'animations/SitOnPod/Gestures/No_2'
p2214
aS'animations/SitOnPod/Gestures/No_3'
p2215
aS'animations/SitOnPod/Gestures/No_4'
p2216
aS'animations/SitOnPod/Gestures/No_5'
p2217
aS'animations/SitOnPod/Gestures/No_6'
p2218
aS'animations/SitOnPod/Gestures/No_7'
p2219
aS'animations/SitOnPod/Gestures/No_8'
p2220
aS'animations/SitOnPod/Gestures/No_9'
p2221
aS'animations/Stand/Gestures/No_1'
p2222
aS'animations/Stand/Gestures/No_2'
p2223
aS'animations/Stand/Gestures/No_3'
p2224
aS'animations/Stand/Gestures/No_4'
p2225
aS'animations/Stand/Gestures/No_5'
p2226
aS'animations/Stand/Gestures/No_6'
p2227
aS'animations/Stand/Gestures/No_7'
p2228
aS'animations/Stand/Gestures/No_8'
p2229
aS'animations/Stand/Gestures/No_9'
p2230
aS'animations/Stand/Emotions/Neutral/Alienated_1'
p2231
aS'animations/Stand/Gestures/Wings_1'
p2232
aS'animations/Stand/Gestures/Wings_2'
p2233
aS'animations/Stand/Gestures/Wings_3'
p2234
aS'animations/Stand/Gestures/Wings_4'
p2235
aS'animations/Stand/Gestures/Wings_5'
p2236
aS'animations/Sit/Reactions/ShakeBody_1'
p2237
aS'animations/Sit/Reactions/ShakeBody_2'
p2238
aS'animations/Sit/Reactions/ShakeBody_3'
p2239
aS'animations/Stand/Reactions/ShakeBody_1'
p2240
aS'animations/Stand/Reactions/ShakeBody_2'
p2241
aS'animations/Stand/Reactions/ShakeBody_3'
p2242
aS'animations/Stand/Emotions/Positive/Proud_1'
p2243
aS'animations/Stand/Emotions/Positive/Proud_2'
p2244
aS'animations/Stand/Emotions/Positive/Proud_3'
p2245
aS'animations/Stand/Emotions/Neutral/Alienated_1'
p2246
aS'animations/Stand/Waiting/Bandmaster_1'
p2247
aS'animations/Sit/Waiting/Fitness_1'
p2248
aS'animations/Stand/Waiting/Fitness_1'
p2249
aS'animations/Stand/Waiting/Fitness_2'
p2250
aS'animations/Stand/Waiting/Fitness_3'
p2251
aS'animations/Stand/Gestures/ShowSky_1'
p2252
aS'animations/Stand/Gestures/ShowSky_10'
p2253
aS'animations/Stand/Gestures/ShowSky_11'
p2254
aS'animations/Stand/Gestures/ShowSky_12'
p2255
aS'animations/Stand/Gestures/ShowSky_2'
p2256
aS'animations/Stand/Gestures/ShowSky_3'
p2257
aS'animations/Stand/Gestures/ShowSky_4'
p2258
aS'animations/Stand/Gestures/ShowSky_5'
p2259
aS'animations/Stand/Gestures/ShowSky_6'
p2260
aS'animations/Stand/Gestures/ShowSky_7'
p2261
aS'animations/Stand/Gestures/ShowSky_8'
p2262
aS'animations/Stand/Gestures/ShowSky_9'
p2263
aS'animations/SitOnPod/Gestures/Yes_1'
p2264
aS'animations/SitOnPod/Gestures/Yes_2'
p2265
aS'animations/SitOnPod/Gestures/Yes_3'
p2266
aS'animations/Stand/Gestures/Yes_1'
p2267
aS'animations/Stand/Gestures/Yes_2'
p2268
aS'animations/Stand/Gestures/Yes_3'
p2269
aS'animations/Stand/Waiting/Zombie_1'
p2270
aS'animations/Stand/Waiting/Headbang_1'
p2271
aS'animations/Stand/Gestures/Hungry_1'
p2272
aS'animations/Stand/Gestures/Yum_1'
p2273
aS'animationMode/.'
p2274
aS'animations/Sit/Waiting/Puppet_1'
p2275
aS'animations/Sit/Emotions/Negative/Sad_1'
p2276
aS'animations/Stand/Emotions/Negative/Sad_1'
p2277
aS'animations/Stand/Emotions/Negative/Sad_2'
p2278
aS'animations/Sit/Emotions/Positive/Shy_1'
p2279
aS'animations/Stand/Emotions/Positive/Shy_1'
p2280
aS'animations/Stand/Emotions/Positive/Shy_2'
p2281
aS'animations/Stand/Gestures/Shy_1'
p2282
aS'animations/Stand/Waiting/KungFu_1'
p2283
aS'animations/Stand/Gestures/Maybe_1'
p2284
aS'animations/Sit/Emotions/Negative/Sad_1'
p2285
aS'animations/Stand/Emotions/Negative/Sad_1'
p2286
aS'animations/Stand/Emotions/Negative/Sad_2'
p2287
aS'animations/Stand/Emotions/Neutral/Lonely_1'
p2288
aS'animations/Stand/Gestures/Desperate_1'
p2289
aS'animations/Stand/Gestures/Desperate_2'
p2290
aS'animations/Stand/Gestures/Desperate_3'
p2291
aS'animations/Stand/Gestures/Desperate_4'
p2292
aS'animations/Stand/Gestures/Desperate_5'
p2293
aS'animations/Sit/Waiting/Yawn_1'
p2294
aS'animations/Sit/Reactions/EthernetOff_1'
p2295
aS'animations/Sit/Reactions/EthernetOn_1'
p2296
aS'animations/Stand/Reactions/EthernetOff_1'
p2297
aS'animations/Stand/Reactions/EthernetOn_1'
p2298
aS'animations/Stand/Gestures/Excited_1'
p2299
aS'animations/Sit/Emotions/Negative/Sad_1'
p2300
aS'animations/Stand/Emotions/Negative/Sad_1'
p2301
aS'animations/Stand/Emotions/Negative/Sad_2'
p2302
aS'animations/Stand/Emotions/Neutral/Alienated_1'
p2303
aS'animations/Sit/Waiting/Cramp_1'
p2304
aS'animations/Sit/Waiting/AutoFormat_1'
p2305
aS'animations/Sit/Waiting/FalseStop_1'
p2306
aS'animations/Sit/Waiting/FalseStop_2'
p2307
aS'animations/Sit/Waiting/Phone_1'
p2308
aS'animations/Sit/Waiting/Puppet_1'
p2309
aS'animations/Stand/Waiting/HideHands_1'
p2310
aS'animations/Sit/Emotions/Positive/Laugh_1'
p2311
aS'animations/Sit/Emotions/Positive/Laugh_2'
p2312
aS'animations/Sit/Emotions/Positive/Mocker_1'
p2313
aS'animations/Stand/Emotions/Positive/Amused_1'
p2314
aS'animations/Stand/Emotions/Positive/Laugh_1'
p2315
aS'animations/Stand/Emotions/Positive/Laugh_2'
p2316
aS'animations/Stand/Emotions/Positive/Laugh_3'
p2317
aS'animations/Stand/Emotions/Positive/Mocker_1'
p2318
aS'animations/SitOnPod/Gestures/Yes_1'
p2319
aS'animations/SitOnPod/Gestures/Yes_2'
p2320
aS'animations/SitOnPod/Gestures/Yes_3'
p2321
aS'animations/Stand/Gestures/Yes_1'
p2322
aS'animations/Stand/Gestures/Yes_2'
p2323
aS'animations/Stand/Gestures/Yes_3'
p2324
aS'animations/Stand/Gestures/Shoot_1'
p2325
aS'animations/Stand/Reactions/SeeSomething_1'
p2326
aS'animations/Stand/Gestures/ShowFloor_1'
p2327
aS'animations/Stand/Gestures/ShowFloor_2'
p2328
aS'animations/Stand/Gestures/ShowFloor_3'
p2329
aS'animations/Stand/Gestures/ShowFloor_4'
p2330
aS'animations/Stand/Gestures/ShowFloor_5'
p2331
aS'animations/Stand/Reactions/SeeSomething_3'
p2332
aS'animations/Stand/Reactions/SeeSomething_4'
p2333
aS'animations/Stand/Reactions/SeeSomething_5'
p2334
aS'animations/Stand/Reactions/SeeSomething_6'
p2335
aS'animations/Stand/Reactions/SeeSomething_7'
p2336
aS'animations/Stand/Reactions/SeeSomething_8'
p2337
aS'animations/Sit/Emotions/Neutral/AskForAttention_1'
p2338
aS'animations/Stand/Emotions/Neutral/AskForAttention_1'
p2339
aS'animations/Sit/Waiting/Yawn_1'
p2340
aS'animations/SitOnPod/Gestures/Yes_1'
p2341
aS'animations/SitOnPod/Gestures/Yes_2'
p2342
aS'animations/SitOnPod/Gestures/Yes_3'
p2343
aS'animations/Stand/Gestures/Yes_1'
p2344
aS'animations/Stand/Gestures/Yes_2'
p2345
aS'animations/Stand/Gestures/Yes_3'
p2346
aS'animations/Stand/Emotions/Positive/Interested_1'
p2347
aS'animations/Stand/Emotions/Positive/Interested_2'
p2348
aS'animations/Stand/Waiting/AirJuggle_1'
p2349
aS'animations/Stand/Gestures/Applause_1'
p2350
aS'animations/Stand/Gestures/Caress_1'
p2351
aS'animations/Stand/Gestures/Caress_2'
p2352
aS'animations/Sit/Emotions/Negative/Fear_1'
p2353
aS'animations/Sit/Emotions/Negative/Surprise_1'
p2354
aS'animations/Stand/Emotions/Negative/Fear_1'
p2355
aS'animations/Stand/Emotions/Negative/Fear_2'
p2356
aS'animations/Stand/Emotions/Negative/Surprise_1'
p2357
aS'animations/Stand/Emotions/Negative/Surprise_2'
p2358
aS'animations/Stand/Emotions/Negative/Surprise_3'
p2359
aS'animations/Stand/Gestures/Surprised_1'
p2360
aS'animations/Stand/Emotions/Neutral/Alienated_1'
p2361
aS'animations/Stand/Waiting/Zombie_1'
p2362
aS'animations/Stand/Emotions/Positive/Relieved_1'
p2363
aS'animations/Stand/Emotions/Neutral/Annoyed_1'
p2364
aS'animations/Stand/Emotions/Neutral/Determined_1'
p2365
aS'animations/Stand/Gestures/Reject_1'
p2366
aS'animations/Stand/Gestures/Reject_2'
p2367
aS'animations/Stand/Gestures/Reject_3'
p2368
aS'animations/Stand/Gestures/Reject_4'
p2369
aS'animations/Stand/Gestures/Reject_5'
p2370
aS'animations/Stand/Gestures/Reject_6'
p2371
aS'animations/Sit/Emotions/Neutral/AskForAttention_1'
p2372
aS'animations/Sit/Emotions/Neutral/AskForAttention_2'
p2373
aS'animations/Sit/Emotions/Neutral/AskForAttention_3'
p2374
aS'animations/Sit/Gestures/Hey_3'
p2375
aS'animations/SitOnPod/Emotions/Neutral/Hello_1'
p2376
aS'animations/SitOnPod/Gestures/Hey_1'
p2377
aS'animations/SitOnPod/Gestures/Hey_2'
p2378
aS'animations/SitOnPod/Gestures/Hey_3'
p2379
aS'animations/SitOnPod/Gestures/Hey_4'
p2380
aS'animations/SitOnPod/Gestures/Hey_6'
p2381
aS'animations/SitOnPod/Gestures/Hey_7'
p2382
aS'animations/Stand/Emotions/Neutral/AskForAttention_1'
p2383
aS'animations/Stand/Emotions/Neutral/AskForAttention_2'
p2384
aS'animations/Stand/Emotions/Neutral/AskForAttention_3'
p2385
aS'animations/Stand/Emotions/Neutral/Hello_1'
p2386
aS'animations/Stand/Gestures/Hey_1'
p2387
aS'animations/Stand/Gestures/Hey_2'
p2388
aS'animations/Stand/Gestures/Hey_3'
p2389
aS'animations/Stand/Gestures/Hey_4'
p2390
aS'animations/Stand/Gestures/Hey_5'
p2391
aS'animations/Stand/Gestures/Hey_6'
p2392
aS'animations/Stand/Gestures/Hey_7'
p2393
aS'animations/Sit/Emotions/Negative/Late_1'
p2394
aS'animations/Sit/Waiting/Bored_1'
p2395
aS'animations/Stand/Emotions/Negative/Bored_1'
p2396
aS'animations/Stand/Emotions/Negative/Bored_2'
p2397
aS'animations/Stand/Emotions/Negative/Late_1'
p2398
aS'animations/Stand/Emotions/Neutral/Lonely_1'
p2399
aS'animations/Stand/Emotions/Positive/Hysterical_1'
p2400
aS'animations/Stand/Gestures/CalmDown_1'
p2401
aS'animations/Stand/Gestures/CalmDown_2'
p2402
aS'animations/Stand/Gestures/CalmDown_3'
p2403
aS'animations/Stand/Gestures/CalmDown_4'
p2404
aS'animations/Stand/Gestures/CalmDown_5'
p2405
aS'animations/Stand/Gestures/CalmDown_6'
p2406
aS'animations/Stand/Waiting/AirJuggle_1'
p2407
aS'animations/Stand/Emotions/Positive/Relieved_1'
p2408
aS'animations/Sit/Emotions/Positive/Mocker_1'
p2409
aS'animations/Stand/Emotions/Positive/Mocker_1'
p2410
aS'animations/Stand/Gestures/Mime_1'
p2411
aS'animations/Stand/Gestures/Mime_2'
p2412
aS'animations/Sit/Emotions/Neutral/Sneeze_1'
p2413
aS'animations/Stand/Emotions/Neutral/Sneeze'
p2414
aS'animations/Stand/Waiting/Monster_1'
p2415
aS'animations/SitOnPod/Gestures/Yes_1'
p2416
aS'animations/SitOnPod/Gestures/Yes_2'
p2417
aS'animations/SitOnPod/Gestures/Yes_3'
p2418
aS'animations/Stand/Gestures/Yes_1'
p2419
aS'animations/Stand/Gestures/Yes_2'
p2420
aS'animations/Stand/Gestures/Yes_3'
p2421
as.