(lp0
S"^start(animations/Stand/Gestures/Hey_1) Hello. I'm NAO. ^wait(animations/Stand/Gestures/Hey_1)"
p1
aS'^start(animations/Stand/Gestures/IDontKnow_1) I like robots. ^wait(animations/Stand/Gestures/IDontKnow_1)'
p2
aS'^start(animations/Stand/Gestures/Hey_6) Goodbye! ^wait(animations/Stand/Gestures/Hey_6)'
p3
a.