(dp0
S'all'
p1
(lp2
S'animations/SitOnPod/Gestures/Everything_1'
p3
aS'animations/SitOnPod/Gestures/Everything_2'
p4
aS'animations/SitOnPod/Gestures/Everything_3'
p5
aS'animations/SitOnPod/Gestures/Everything_4'
p6
aS'animations/SitOnPod/Gestures/Everything_6'
p7
aS'animations/Stand/Gestures/Everything_1'
p8
aS'animations/Stand/Gestures/Everything_2'
p9
aS'animations/Stand/Gestures/Everything_3'
p10
aS'animations/Stand/Gestures/Everything_4'
p11
aS'animations/Stand/Gestures/Everything_5'
p12
aS'animations/Stand/Gestures/Everything_6'
p13
asS'dance'
p14
(lp15
S'animations/Stand/Waiting/FunnyDancer_1'
p16
aS'animations/Stand/Waiting/Headbang_1'
p17
aS'animations/Stand/Waiting/ShowMuscles_5'
p18
asS'ouch'
p19
(lp20
S'animations/Sit/Emotions/Negative/Hurt_1'
p21
aS'animations/Stand/Emotions/Negative/Hurt_1'
p22
aS'animations/Stand/Emotions/Negative/Hurt_2'
p23
asS'four'
p24
(lp25
S'animations/Stand/Gestures/CountFour_1'
p26
aS'animations/Stand/Gestures/CountFour_2'
p27
asS'mild'
p28
(lp29
S'animations/Stand/Gestures/Caress_2'
p30
asS'follow'
p31
(lp32
S'animations/Stand/Gestures/Follow_1'
p33
aS'animations/Stand/Gestures/Next_1'
p34
asS'hate'
p35
(lp36
S'animations/Stand/Gestures/Reject_1'
p37
aS'animations/Stand/Gestures/Reject_2'
p38
aS'animations/Stand/Gestures/Reject_3'
p39
aS'animations/Stand/Gestures/Reject_4'
p40
aS'animations/Stand/Gestures/Reject_5'
p41
aS'animations/Stand/Gestures/Reject_6'
p42
asS'smell good'
p43
(lp44
S'animations/Sit/Emotions/Positive/Hungry_1'
p45
aS'animations/Stand/Emotions/Positive/Hungry_1'
p46
asS'anguished'
p47
(lp48
S'animations/Stand/Emotions/Negative/Anxious_1'
p49
asS'rousing'
p50
(lp51
S'animations/Stand/Gestures/Enthusiastic_1'
p52
aS'animations/Stand/Gestures/Enthusiastic_2'
p53
aS'animations/Stand/Gestures/Enthusiastic_3'
p54
aS'animations/Stand/Gestures/Enthusiastic_4'
p55
aS'animations/Stand/Gestures/Enthusiastic_5'
p56
asS'assuage'
p57
(lp58
S'animations/Stand/Gestures/CalmDown_1'
p59
aS'animations/Stand/Gestures/CalmDown_2'
p60
aS'animations/Stand/Gestures/CalmDown_3'
p61
aS'animations/Stand/Gestures/CalmDown_4'
p62
aS'animations/Stand/Gestures/CalmDown_5'
p63
aS'animations/Stand/Gestures/CalmDown_6'
p64
asS'flash'
p65
(lp66
S'animations/Sit/Waiting/TakePicture_1'
p67
aS'animations/Stand/Waiting/TakePicture_1'
p68
asS'obstinate'
p69
(lp70
S'animations/Stand/Emotions/Neutral/Determined_1'
p71
aS'animations/Stand/Emotions/Neutral/Stubborn_1'
p72
asS'unplug'
p73
(lp74
S'animations/Sit/Reactions/EthernetOff_1'
p75
aS'animations/Stand/Reactions/EthernetOff_1'
p76
asS'sorry'
p77
(lp78
S'animations/Stand/Emotions/Negative/Sorry_1'
p79
aS'animations/Stand/Emotions/Neutral/Confused_1'
p80
aS'animations/Stand/Gestures/Confused_1'
p81
aS'animations/Stand/Gestures/Confused_2'
p82
asS'friendly'
p83
(lp84
S'animations/Stand/Gestures/Caress_1'
p85
aS'animations/Stand/Gestures/Caress_2'
p86
aS'animations/Stand/Gestures/Coaxing_1'
p87
aS'animations/Stand/Gestures/Coaxing_2'
p88
aS'animations/Stand/Gestures/Give_1'
p89
aS'animations/Stand/Gestures/Give_2'
p90
aS'animations/Stand/Gestures/Give_3'
p91
aS'animations/Stand/Gestures/Give_4'
p92
aS'animations/Stand/Gestures/Give_5'
p93
aS'animations/Stand/Gestures/Give_6'
p94
aS'animations/Stand/Gestures/Joy_1'
p95
asS'nervousness'
p96
(lp97
S'animations/SitOnPod/Gestures/WhatSThis_1'
p98
aS'animations/SitOnPod/Gestures/WhatSThis_10'
p99
aS'animations/SitOnPod/Gestures/WhatSThis_11'
p100
aS'animations/SitOnPod/Gestures/WhatSThis_12'
p101
aS'animations/SitOnPod/Gestures/WhatSThis_13'
p102
aS'animations/SitOnPod/Gestures/WhatSThis_14'
p103
aS'animations/SitOnPod/Gestures/WhatSThis_15'
p104
aS'animations/SitOnPod/Gestures/WhatSThis_16'
p105
aS'animations/SitOnPod/Gestures/WhatSThis_2'
p106
aS'animations/SitOnPod/Gestures/WhatSThis_3'
p107
aS'animations/SitOnPod/Gestures/WhatSThis_4'
p108
aS'animations/SitOnPod/Gestures/WhatSThis_5'
p109
aS'animations/SitOnPod/Gestures/WhatSThis_6'
p110
aS'animations/SitOnPod/Gestures/WhatSThis_7'
p111
aS'animations/SitOnPod/Gestures/WhatSThis_8'
p112
aS'animations/SitOnPod/Gestures/WhatSThis_9'
p113
aS'animations/Stand/Gestures/WhatSThis_1'
p114
aS'animations/Stand/Gestures/WhatSThis_10'
p115
aS'animations/Stand/Gestures/WhatSThis_11'
p116
aS'animations/Stand/Gestures/WhatSThis_12'
p117
aS'animations/Stand/Gestures/WhatSThis_13'
p118
aS'animations/Stand/Gestures/WhatSThis_14'
p119
aS'animations/Stand/Gestures/WhatSThis_15'
p120
aS'animations/Stand/Gestures/WhatSThis_16'
p121
aS'animations/Stand/Gestures/WhatSThis_2'
p122
aS'animations/Stand/Gestures/WhatSThis_3'
p123
aS'animations/Stand/Gestures/WhatSThis_4'
p124
aS'animations/Stand/Gestures/WhatSThis_5'
p125
aS'animations/Stand/Gestures/WhatSThis_6'
p126
aS'animations/Stand/Gestures/WhatSThis_7'
p127
aS'animations/Stand/Gestures/WhatSThis_8'
p128
aS'animations/Stand/Gestures/WhatSThis_9'
p129
asS'me'
p130
(lp131
S'animations/Sit/Gestures/Me_7'
p132
aS'animations/SitOnPod/Gestures/Me_1'
p133
aS'animations/SitOnPod/Gestures/Me_2'
p134
aS'animations/SitOnPod/Gestures/Me_4'
p135
aS'animations/SitOnPod/Gestures/Me_7'
p136
aS'animations/SitOnPod/Gestures/Me_8'
p137
aS'animations/Stand/Gestures/Me_1'
p138
aS'animations/Stand/Gestures/Me_2'
p139
aS'animations/Stand/Gestures/Me_3'
p140
aS'animations/Stand/Gestures/Me_4'
p141
aS'animations/Stand/Gestures/Me_5'
p142
aS'animations/Stand/Gestures/Me_6'
p143
aS'animations/Stand/Gestures/Me_7'
p144
aS'animations/Stand/Gestures/Me_8'
p145
asS'puzzled'
p146
(lp147
S'animations/Stand/Emotions/Neutral/Puzzled_1'
p148
asS'far'
p149
(lp150
S'animations/Stand/Gestures/Far_1'
p151
aS'animations/Stand/Gestures/Far_2'
p152
aS'animations/Stand/Gestures/Far_3'
p153
asS'void'
p154
(lp155
S'animations/Stand/Gestures/Nothing_1'
p156
aS'animations/Stand/Gestures/Nothing_2'
p157
asS'intriguing'
p158
(lp159
S'animations/Stand/Emotions/Positive/Interested_1'
p160
aS'animations/Stand/Emotions/Positive/Interested_2'
p161
asS'unfamiliar'
p162
(lp163
S'animations/Stand/Gestures/IDontKnow_1'
p164
aS'animations/Stand/Gestures/IDontKnow_2'
p165
aS'animations/Stand/Gestures/IDontKnow_3'
p166
aS'animations/Stand/Gestures/IDontKnow_4'
p167
aS'animations/Stand/Gestures/IDontKnow_5'
p168
aS'animations/Stand/Gestures/IDontKnow_6'
p169
asS'choice'
p170
(lp171
S'animations/SitOnPod/Gestures/Choice_1'
p172
aS'animations/Stand/Gestures/Choice_1'
p173
aS'animations/Stand/Gestures/Choice_2'
p174
asS'back rubs'
p175
(lp176
S'animations/Stand/Waiting/BackRubs_1'
p177
asS'vibrator'
p178
(lp179
S'animations/Sit/Waiting/Phone_1'
p180
asS'every'
p181
(lp182
S'animations/SitOnPod/Gestures/Everything_1'
p183
aS'animations/SitOnPod/Gestures/Everything_2'
p184
aS'animations/SitOnPod/Gestures/Everything_3'
p185
aS'animations/SitOnPod/Gestures/Everything_4'
p186
aS'animations/SitOnPod/Gestures/Everything_6'
p187
aS'animations/Stand/Gestures/Everything_1'
p188
aS'animations/Stand/Gestures/Everything_2'
p189
aS'animations/Stand/Gestures/Everything_3'
p190
aS'animations/Stand/Gestures/Everything_4'
p191
aS'animations/Stand/Gestures/Everything_5'
p192
aS'animations/Stand/Gestures/Everything_6'
p193
asS'look hand'
p194
(lp195
S'animations/Sit/Waiting/LookHand_1'
p196
aS'animations/Sit/Waiting/LookHand_2'
p197
aS'animations/Stand/Waiting/LookHand_1'
p198
aS'animations/Stand/Waiting/LookHand_2'
p199
asS'clement'
p200
(lp201
S'animations/Stand/Gestures/Caress_2'
p202
asS'cool'
p203
(lp204
S'animations/Stand/Emotions/Positive/Peaceful_1'
p205
aS'animations/Stand/Gestures/CalmDown_1'
p206
aS'animations/Stand/Gestures/CalmDown_2'
p207
aS'animations/Stand/Gestures/CalmDown_3'
p208
aS'animations/Stand/Gestures/CalmDown_4'
p209
aS'animations/Stand/Gestures/CalmDown_5'
p210
aS'animations/Stand/Gestures/CalmDown_6'
p211
aS'animations/Stand/Gestures/Freeze_1'
p212
aS'animations/Stand/Gestures/Great_1'
p213
asS'entire'
p214
(lp215
S'animations/SitOnPod/Gestures/Everything_1'
p216
aS'animations/SitOnPod/Gestures/Everything_2'
p217
aS'animations/SitOnPod/Gestures/Everything_3'
p218
aS'animations/SitOnPod/Gestures/Everything_4'
p219
aS'animations/SitOnPod/Gestures/Everything_6'
p220
aS'animations/Stand/Gestures/Everything_1'
p221
aS'animations/Stand/Gestures/Everything_2'
p222
aS'animations/Stand/Gestures/Everything_3'
p223
aS'animations/Stand/Gestures/Everything_4'
p224
aS'animations/Stand/Gestures/Everything_5'
p225
aS'animations/Stand/Gestures/Everything_6'
p226
asS'heaven'
p227
(lp228
S'animations/Sit/Waiting/MysticalPower_1'
p229
aS'animations/Stand/Waiting/MysticalPower_1'
p230
asS'magic'
p231
(lp232
S'animations/Sit/Waiting/MysticalPower_1'
p233
aS'animations/Stand/Waiting/MysticalPower_1'
p234
asS'knight'
p235
(lp236
S'animations/Stand/Waiting/Knight_1'
p237
asS'protest'
p238
(lp239
S'animations/Stand/Gestures/Angry_1'
p240
aS'animations/Stand/Gestures/Angry_2'
p241
aS'animations/Stand/Gestures/Angry_3'
p242
asS'leave'
p243
(lp244
S'animations/Stand/Gestures/Reject_1'
p245
aS'animations/Stand/Gestures/Reject_2'
p246
aS'animations/Stand/Gestures/Reject_3'
p247
aS'animations/Stand/Gestures/Reject_4'
p248
aS'animations/Stand/Gestures/Reject_5'
p249
aS'animations/Stand/Gestures/Reject_6'
p250
asS'these'
p251
(lp252
S'animations/SitOnPod/Gestures/This_1'
p253
aS'animations/SitOnPod/Gestures/This_10'
p254
aS'animations/SitOnPod/Gestures/This_11'
p255
aS'animations/SitOnPod/Gestures/This_12'
p256
aS'animations/SitOnPod/Gestures/This_13'
p257
aS'animations/SitOnPod/Gestures/This_14'
p258
aS'animations/SitOnPod/Gestures/This_15'
p259
aS'animations/SitOnPod/Gestures/This_2'
p260
aS'animations/SitOnPod/Gestures/This_3'
p261
aS'animations/SitOnPod/Gestures/This_4'
p262
aS'animations/SitOnPod/Gestures/This_5'
p263
aS'animations/SitOnPod/Gestures/This_6'
p264
aS'animations/SitOnPod/Gestures/This_7'
p265
aS'animations/SitOnPod/Gestures/This_8'
p266
aS'animations/SitOnPod/Gestures/This_9'
p267
aS'animations/Stand/Gestures/This_1'
p268
aS'animations/Stand/Gestures/This_10'
p269
aS'animations/Stand/Gestures/This_11'
p270
aS'animations/Stand/Gestures/This_12'
p271
aS'animations/Stand/Gestures/This_13'
p272
aS'animations/Stand/Gestures/This_14'
p273
aS'animations/Stand/Gestures/This_15'
p274
aS'animations/Stand/Gestures/This_2'
p275
aS'animations/Stand/Gestures/This_3'
p276
aS'animations/Stand/Gestures/This_4'
p277
aS'animations/Stand/Gestures/This_5'
p278
aS'animations/Stand/Gestures/This_6'
p279
aS'animations/Stand/Gestures/This_7'
p280
aS'animations/Stand/Gestures/This_8'
p281
aS'animations/Stand/Gestures/This_9'
p282
asS'salute'
p283
(lp284
S'animations/Stand/Gestures/Salute_1'
p285
aS'animations/Stand/Gestures/Salute_2'
p286
aS'animations/Stand/Gestures/Salute_3'
p287
asS'droid'
p288
(lp289
S'animations/Sit/Waiting/Robot_1'
p290
aS'animations/Stand/Waiting/Robot_1'
p291
asS'tired'
p292
(lp293
S'animations/Sit/Reactions/Heat_1'
p294
aS'animations/Sit/Waiting/Yawn_1'
p295
aS'animations/Stand/Gestures/Stretch_1'
p296
aS'animations/Stand/Gestures/Stretch_2'
p297
aS'animations/Stand/Reactions/Heat_1'
p298
aS'animations/Stand/Reactions/Heat_2'
p299
asS'copter'
p300
(lp301
S'animations/Stand/Waiting/Helicopter_1'
p302
asS'zero'
p303
(lp304
S'animations/Stand/Gestures/Nothing_1'
p305
aS'animations/Stand/Gestures/Nothing_2'
p306
asS'uncomfortable'
p307
(lp308
S'animations/Stand/Emotions/Neutral/Embarrassed_1'
p309
asS'irritated'
p310
(lp311
S'animations/Sit/Emotions/Negative/Angry_1'
p312
aS'animations/Stand/Emotions/Negative/Angry_1'
p313
aS'animations/Stand/Emotions/Negative/Angry_2'
p314
aS'animations/Stand/Emotions/Negative/Angry_3'
p315
aS'animations/Stand/Emotions/Negative/Angry_4'
p316
asS'hesitation'
p317
(lp318
S'animations/Stand/Emotions/Neutral/Hesitation_1'
p319
asS'sun'
p320
(lp321
S'animations/Stand/Gestures/ShowSky_1'
p322
aS'animations/Stand/Gestures/ShowSky_10'
p323
aS'animations/Stand/Gestures/ShowSky_11'
p324
aS'animations/Stand/Gestures/ShowSky_12'
p325
aS'animations/Stand/Gestures/ShowSky_2'
p326
aS'animations/Stand/Gestures/ShowSky_3'
p327
aS'animations/Stand/Gestures/ShowSky_4'
p328
aS'animations/Stand/Gestures/ShowSky_5'
p329
aS'animations/Stand/Gestures/ShowSky_6'
p330
aS'animations/Stand/Gestures/ShowSky_7'
p331
aS'animations/Stand/Gestures/ShowSky_8'
p332
aS'animations/Stand/Gestures/ShowSky_9'
p333
asS'orchestra'
p334
(lp335
S'animations/Stand/Waiting/Bandmaster_1'
p336
asS'R2D2'
p337
(lp338
S'animations/Sit/Waiting/Robot_1'
p339
aS'animations/Stand/Waiting/Robot_1'
p340
asS'mischievous'
p341
(lp342
S'animations/Stand/Emotions/Neutral/Mischievous_1'
p343
asS'above'
p344
(lp345
S'animations/Stand/Gestures/ShowSky_1'
p346
aS'animations/Stand/Gestures/ShowSky_10'
p347
aS'animations/Stand/Gestures/ShowSky_11'
p348
aS'animations/Stand/Gestures/ShowSky_12'
p349
aS'animations/Stand/Gestures/ShowSky_2'
p350
aS'animations/Stand/Gestures/ShowSky_3'
p351
aS'animations/Stand/Gestures/ShowSky_4'
p352
aS'animations/Stand/Gestures/ShowSky_5'
p353
aS'animations/Stand/Gestures/ShowSky_6'
p354
aS'animations/Stand/Gestures/ShowSky_7'
p355
aS'animations/Stand/Gestures/ShowSky_8'
p356
aS'animations/Stand/Gestures/ShowSky_9'
p357
asS'proffer'
p358
(lp359
S'animations/Stand/Gestures/Give_1'
p360
aS'animations/Stand/Gestures/Give_2'
p361
aS'animations/Stand/Gestures/Give_3'
p362
aS'animations/Stand/Gestures/Give_4'
p363
aS'animations/Stand/Gestures/Give_5'
p364
aS'animations/Stand/Gestures/Give_6'
p365
asS'bird'
p366
(lp367
S'animations/Stand/Gestures/Wings_1'
p368
aS'animations/Stand/Gestures/Wings_2'
p369
aS'animations/Stand/Gestures/Wings_3'
p370
aS'animations/Stand/Gestures/Wings_4'
p371
aS'animations/Stand/Gestures/Wings_5'
p372
asS'crouch'
p373
(lp374
S'animations/Stand/Reactions/SeeSomething_1'
p375
asS'here'
p376
(lp377
S'animations/SitOnPod/Gestures/This_1'
p378
aS'animations/SitOnPod/Gestures/This_10'
p379
aS'animations/SitOnPod/Gestures/This_11'
p380
aS'animations/SitOnPod/Gestures/This_12'
p381
aS'animations/SitOnPod/Gestures/This_13'
p382
aS'animations/SitOnPod/Gestures/This_14'
p383
aS'animations/SitOnPod/Gestures/This_15'
p384
aS'animations/SitOnPod/Gestures/This_2'
p385
aS'animations/SitOnPod/Gestures/This_3'
p386
aS'animations/SitOnPod/Gestures/This_4'
p387
aS'animations/SitOnPod/Gestures/This_5'
p388
aS'animations/SitOnPod/Gestures/This_6'
p389
aS'animations/SitOnPod/Gestures/This_7'
p390
aS'animations/SitOnPod/Gestures/This_8'
p391
aS'animations/SitOnPod/Gestures/This_9'
p392
aS'animations/Stand/Gestures/Far_1'
p393
aS'animations/Stand/Gestures/Far_2'
p394
aS'animations/Stand/Gestures/Far_3'
p395
aS'animations/Stand/Gestures/Next_1'
p396
aS'animations/Stand/Gestures/ShowFloor_1'
p397
aS'animations/Stand/Gestures/ShowFloor_2'
p398
aS'animations/Stand/Gestures/ShowFloor_3'
p399
aS'animations/Stand/Gestures/ShowFloor_4'
p400
aS'animations/Stand/Gestures/ShowFloor_5'
p401
aS'animations/Stand/Gestures/This_1'
p402
aS'animations/Stand/Gestures/This_10'
p403
aS'animations/Stand/Gestures/This_11'
p404
aS'animations/Stand/Gestures/This_12'
p405
aS'animations/Stand/Gestures/This_13'
p406
aS'animations/Stand/Gestures/This_14'
p407
aS'animations/Stand/Gestures/This_15'
p408
aS'animations/Stand/Gestures/This_2'
p409
aS'animations/Stand/Gestures/This_3'
p410
aS'animations/Stand/Gestures/This_4'
p411
aS'animations/Stand/Gestures/This_5'
p412
aS'animations/Stand/Gestures/This_6'
p413
aS'animations/Stand/Gestures/This_7'
p414
aS'animations/Stand/Gestures/This_8'
p415
aS'animations/Stand/Gestures/This_9'
p416
asS'conceited'
p417
(lp418
S'animations/Stand/Emotions/Positive/Proud_1'
p419
aS'animations/Stand/Emotions/Positive/Proud_2'
p420
aS'animations/Stand/Emotions/Positive/Proud_3'
p421
asS'relaxation'
p422
(lp423
S'animations/Sit/Waiting/Relaxation_1'
p424
aS'animations/Sit/Waiting/Relaxation_2'
p425
aS'animations/Sit/Waiting/Relaxation_3'
p426
aS'animations/Stand/Waiting/Relaxation_1'
p427
aS'animations/Stand/Waiting/Relaxation_2'
p428
aS'animations/Stand/Waiting/Relaxation_3'
p429
aS'animations/Stand/Waiting/Relaxation_4'
p430
asS'alone'
p431
(lp432
S'animations/Stand/Emotions/Neutral/Lonely_1'
p433
asS'sing'
p434
(lp435
S'animations/Stand/Waiting/HappyBirthday_1'
p436
asS'strong'
p437
(lp438
S'animations/Stand/Emotions/Positive/Proud_1'
p439
aS'animations/Stand/Emotions/Positive/Proud_2'
p440
aS'animations/Stand/Emotions/Positive/Proud_3'
p441
aS'animations/Stand/Waiting/ShowMuscles_1'
p442
aS'animations/Stand/Waiting/ShowMuscles_2'
p443
aS'animations/Stand/Waiting/ShowMuscles_3'
p444
aS'animations/Stand/Waiting/ShowMuscles_4'
p445
aS'animations/Stand/Waiting/ShowMuscles_5'
p446
asS'wait'
p447
(lp448
S'animations/Sit/Emotions/Negative/Late_1'
p449
aS'animations/Stand/Emotions/Negative/Late_1'
p450
asS'great'
p451
(lp452
S'animations/Stand/Gestures/Great_1'
p453
asS'stupor'
p454
(lp455
S'animations/SitOnPod/Gestures/WhatSThis_1'
p456
aS'animations/SitOnPod/Gestures/WhatSThis_10'
p457
aS'animations/SitOnPod/Gestures/WhatSThis_11'
p458
aS'animations/SitOnPod/Gestures/WhatSThis_12'
p459
aS'animations/SitOnPod/Gestures/WhatSThis_13'
p460
aS'animations/SitOnPod/Gestures/WhatSThis_14'
p461
aS'animations/SitOnPod/Gestures/WhatSThis_15'
p462
aS'animations/SitOnPod/Gestures/WhatSThis_16'
p463
aS'animations/SitOnPod/Gestures/WhatSThis_2'
p464
aS'animations/SitOnPod/Gestures/WhatSThis_3'
p465
aS'animations/SitOnPod/Gestures/WhatSThis_4'
p466
aS'animations/SitOnPod/Gestures/WhatSThis_5'
p467
aS'animations/SitOnPod/Gestures/WhatSThis_6'
p468
aS'animations/SitOnPod/Gestures/WhatSThis_7'
p469
aS'animations/SitOnPod/Gestures/WhatSThis_8'
p470
aS'animations/SitOnPod/Gestures/WhatSThis_9'
p471
aS'animations/Stand/Gestures/WhatSThis_1'
p472
aS'animations/Stand/Gestures/WhatSThis_10'
p473
aS'animations/Stand/Gestures/WhatSThis_11'
p474
aS'animations/Stand/Gestures/WhatSThis_12'
p475
aS'animations/Stand/Gestures/WhatSThis_13'
p476
aS'animations/Stand/Gestures/WhatSThis_14'
p477
aS'animations/Stand/Gestures/WhatSThis_15'
p478
aS'animations/Stand/Gestures/WhatSThis_16'
p479
aS'animations/Stand/Gestures/WhatSThis_2'
p480
aS'animations/Stand/Gestures/WhatSThis_3'
p481
aS'animations/Stand/Gestures/WhatSThis_4'
p482
aS'animations/Stand/Gestures/WhatSThis_5'
p483
aS'animations/Stand/Gestures/WhatSThis_6'
p484
aS'animations/Stand/Gestures/WhatSThis_7'
p485
aS'animations/Stand/Gestures/WhatSThis_8'
p486
aS'animations/Stand/Gestures/WhatSThis_9'
p487
asS'catch a fly'
p488
(lp489
S'animations/Sit/Waiting/CatchFly_1'
p490
asS'bow'
p491
(lp492
S'animations/Stand/Gestures/BowShort_1'
p493
asS'sword'
p494
(lp495
S'animations/Stand/Waiting/Knight_1'
p496
asS'pick'
p497
(lp498
S'animations/SitOnPod/Gestures/Choice_1'
p499
aS'animations/Stand/Gestures/Choice_1'
p500
aS'animations/Stand/Gestures/Choice_2'
p501
asS'supplicate'
p502
(lp503
S'animations/Stand/Gestures/Please_1'
p504
aS'animations/Stand/Gestures/Please_2'
p505
aS'animations/Stand/Gestures/Please_3'
p506
asS'concerned'
p507
(lp508
S'animations/Stand/Emotions/Neutral/Annoyed_1'
p509
asS'felled'
p510
(lp511
S'animations/Sit/Emotions/Negative/Sad_1'
p512
aS'animations/Stand/Emotions/Negative/Sad_1'
p513
aS'animations/Stand/Emotions/Negative/Sad_2'
p514
asS'win'
p515
(lp516
S'animations/Stand/Gestures/Great_1'
p517
asS'gosh'
p518
(lp519
S'animations/Stand/Emotions/Positive/Relieved_1'
p520
asS'cloud'
p521
(lp522
S'animations/Stand/Gestures/ShowSky_1'
p523
aS'animations/Stand/Gestures/ShowSky_10'
p524
aS'animations/Stand/Gestures/ShowSky_11'
p525
aS'animations/Stand/Gestures/ShowSky_12'
p526
aS'animations/Stand/Gestures/ShowSky_2'
p527
aS'animations/Stand/Gestures/ShowSky_3'
p528
aS'animations/Stand/Gestures/ShowSky_4'
p529
aS'animations/Stand/Gestures/ShowSky_5'
p530
aS'animations/Stand/Gestures/ShowSky_6'
p531
aS'animations/Stand/Gestures/ShowSky_7'
p532
aS'animations/Stand/Gestures/ShowSky_8'
p533
aS'animations/Stand/Gestures/ShowSky_9'
p534
asS'angry'
p535
(lp536
S'animations/Sit/Emotions/Negative/Angry_1'
p537
aS'animations/Stand/Emotions/Negative/Angry_1'
p538
aS'animations/Stand/Emotions/Negative/Angry_2'
p539
aS'animations/Stand/Emotions/Negative/Angry_3'
p540
aS'animations/Stand/Emotions/Negative/Angry_4'
p541
aS'animations/Stand/Gestures/Angry_1'
p542
aS'animations/Stand/Gestures/Angry_2'
p543
aS'animations/Stand/Gestures/Angry_3'
p544
aS'animations/Stand/Waiting/Monster_1'
p545
asS'negative'
p546
(lp547
S'animations/SitOnPod/Gestures/No_1'
p548
aS'animations/SitOnPod/Gestures/No_2'
p549
aS'animations/SitOnPod/Gestures/No_3'
p550
aS'animations/SitOnPod/Gestures/No_4'
p551
aS'animations/SitOnPod/Gestures/No_5'
p552
aS'animations/SitOnPod/Gestures/No_6'
p553
aS'animations/SitOnPod/Gestures/No_7'
p554
aS'animations/SitOnPod/Gestures/No_8'
p555
aS'animations/SitOnPod/Gestures/No_9'
p556
aS'animations/Stand/Gestures/No_1'
p557
aS'animations/Stand/Gestures/No_2'
p558
aS'animations/Stand/Gestures/No_3'
p559
aS'animations/Stand/Gestures/No_4'
p560
aS'animations/Stand/Gestures/No_5'
p561
aS'animations/Stand/Gestures/No_6'
p562
aS'animations/Stand/Gestures/No_7'
p563
aS'animations/Stand/Gestures/No_8'
p564
aS'animations/Stand/Gestures/No_9'
p565
asS'next'
p566
(lp567
S'animations/Stand/Gestures/Next_1'
p568
asS'implore'
p569
(lp570
S'animations/Stand/Gestures/Please_1'
p571
aS'animations/Stand/Gestures/Please_2'
p572
aS'animations/Stand/Gestures/Please_3'
p573
asS'doubt'
p574
(lp575
S'animations/Stand/Emotions/Neutral/Hesitation_1'
p576
asS'music'
p577
(lp578
S'animations/Sit/Waiting/Music_HighwayToHell_1'
p579
aS'animations/Sit/Waiting/Music_VieEnRose_1'
p580
aS'animations/Stand/Waiting/AirGuitar_1'
p581
aS'animations/Stand/Waiting/Bandmaster_1'
p582
asS'calm'
p583
(lp584
S'animations/Stand/Emotions/Positive/Peaceful_1'
p585
aS'animations/Stand/Gestures/CalmDown_1'
p586
aS'animations/Stand/Gestures/CalmDown_2'
p587
aS'animations/Stand/Gestures/CalmDown_3'
p588
aS'animations/Stand/Gestures/CalmDown_4'
p589
aS'animations/Stand/Gestures/CalmDown_5'
p590
aS'animations/Stand/Gestures/CalmDown_6'
p591
asS'more'
p592
(lp593
S'animations/Stand/Gestures/CountMore_1'
p594
aS'animations/Stand/Gestures/CountMore_2'
p595
asS'mystical'
p596
(lp597
S'animations/Sit/Waiting/MysticalPower_1'
p598
aS'animations/Stand/Waiting/MysticalPower_1'
p599
asS'shine'
p600
(lp601
S'animations/Sit/Reactions/LightShine_1'
p602
aS'animations/Sit/Reactions/LightShine_2'
p603
aS'animations/Sit/Reactions/LightShine_3'
p604
aS'animations/Sit/Reactions/LightShine_4'
p605
aS'animations/Stand/Reactions/LightShine_1'
p606
aS'animations/Stand/Reactions/LightShine_2'
p607
aS'animations/Stand/Reactions/LightShine_3'
p608
aS'animations/Stand/Reactions/LightShine_4'
p609
asS'conductor'
p610
(lp611
S'animations/Stand/Waiting/Bandmaster_1'
p612
asS'afford'
p613
(lp614
S'animations/Stand/Gestures/Give_1'
p615
aS'animations/Stand/Gestures/Give_2'
p616
aS'animations/Stand/Gestures/Give_3'
p617
aS'animations/Stand/Gestures/Give_4'
p618
aS'animations/Stand/Gestures/Give_5'
p619
aS'animations/Stand/Gestures/Give_6'
p620
asS'musician'
p621
(lp622
S'animations/Stand/Waiting/AirGuitar_1'
p623
asS'confused'
p624
(lp625
S'animations/Stand/Emotions/Neutral/Confused_1'
p626
aS'animations/Stand/Gestures/Confused_1'
p627
aS'animations/Stand/Gestures/Confused_2'
p628
asS'excuse'
p629
(lp630
S'animations/Stand/Emotions/Negative/Sorry_1'
p631
aS'animations/Stand/Emotions/Neutral/Confused_1'
p632
asS'train'
p633
(lp634
S'animations/Stand/Waiting/Stretch_1'
p635
aS'animations/Stand/Waiting/Stretch_2'
p636
aS'animations/Stand/Waiting/Stretch_3'
p637
asS'ashamed'
p638
(lp639
S'animations/Stand/Emotions/Neutral/Embarrassed_1'
p640
asS'preoccupied'
p641
(lp642
S'animations/Stand/Emotions/Neutral/Annoyed_1'
p643
asS'scratch hand'
p644
(lp645
S'animations/Sit/Waiting/ScratchHand_1'
p646
aS'animations/Stand/Waiting/ScratchHand_1'
p647
asS'fly'
p648
(lp649
S'animations/Stand/Gestures/Wings_1'
p650
aS'animations/Stand/Gestures/Wings_2'
p651
aS'animations/Stand/Gestures/Wings_3'
p652
aS'animations/Stand/Gestures/Wings_4'
p653
aS'animations/Stand/Gestures/Wings_5'
p654
aS'animations/Stand/Waiting/SpaceShuttle_1'
p655
asS'meek'
p656
(lp657
S'animations/Stand/Gestures/Caress_2'
p658
asS'this'
p659
(lp660
S'animations/SitOnPod/Gestures/This_1'
p661
aS'animations/SitOnPod/Gestures/This_10'
p662
aS'animations/SitOnPod/Gestures/This_11'
p663
aS'animations/SitOnPod/Gestures/This_12'
p664
aS'animations/SitOnPod/Gestures/This_13'
p665
aS'animations/SitOnPod/Gestures/This_14'
p666
aS'animations/SitOnPod/Gestures/This_15'
p667
aS'animations/SitOnPod/Gestures/This_2'
p668
aS'animations/SitOnPod/Gestures/This_3'
p669
aS'animations/SitOnPod/Gestures/This_4'
p670
aS'animations/SitOnPod/Gestures/This_5'
p671
aS'animations/SitOnPod/Gestures/This_6'
p672
aS'animations/SitOnPod/Gestures/This_7'
p673
aS'animations/SitOnPod/Gestures/This_8'
p674
aS'animations/SitOnPod/Gestures/This_9'
p675
aS'animations/Stand/Gestures/This_1'
p676
aS'animations/Stand/Gestures/This_10'
p677
aS'animations/Stand/Gestures/This_11'
p678
aS'animations/Stand/Gestures/This_12'
p679
aS'animations/Stand/Gestures/This_13'
p680
aS'animations/Stand/Gestures/This_14'
p681
aS'animations/Stand/Gestures/This_15'
p682
aS'animations/Stand/Gestures/This_2'
p683
aS'animations/Stand/Gestures/This_3'
p684
aS'animations/Stand/Gestures/This_4'
p685
aS'animations/Stand/Gestures/This_5'
p686
aS'animations/Stand/Gestures/This_6'
p687
aS'animations/Stand/Gestures/This_7'
p688
aS'animations/Stand/Gestures/This_8'
p689
aS'animations/Stand/Gestures/This_9'
p690
asS'car'
p691
(lp692
S'animations/Sit/Waiting/DriveCar_1'
p693
aS'animations/Stand/Waiting/DriveCar_1'
p694
asS'worn'
p695
(lp696
S'animations/Stand/Gestures/Stretch_1'
p697
aS'animations/Stand/Gestures/Stretch_2'
p698
asS'cat'
p699
(lp700
S'animations/Stand/Gestures/Claw_1'
p701
aS'animations/Stand/Gestures/Claw_2'
p702
asS'cuddle'
p703
(lp704
S'animations/Stand/Gestures/Caress_1'
p705
aS'animations/Stand/Gestures/Caress_2'
p706
asS'my'
p707
(lp708
S'animations/Sit/Gestures/Me_7'
p709
aS'animations/SitOnPod/Gestures/Me_1'
p710
aS'animations/SitOnPod/Gestures/Me_2'
p711
aS'animations/SitOnPod/Gestures/Me_4'
p712
aS'animations/SitOnPod/Gestures/Me_7'
p713
aS'animations/SitOnPod/Gestures/Me_8'
p714
aS'animations/Stand/Gestures/Me_1'
p715
aS'animations/Stand/Gestures/Me_2'
p716
aS'animations/Stand/Gestures/Me_3'
p717
aS'animations/Stand/Gestures/Me_4'
p718
aS'animations/Stand/Gestures/Me_5'
p719
aS'animations/Stand/Gestures/Me_6'
p720
aS'animations/Stand/Gestures/Me_7'
p721
aS'animations/Stand/Gestures/Me_8'
p722
asS'something'
p723
(lp724
S'animations/Stand/Reactions/SeeSomething_3'
p725
aS'animations/Stand/Reactions/SeeSomething_4'
p726
aS'animations/Stand/Reactions/SeeSomething_5'
p727
aS'animations/Stand/Reactions/SeeSomething_6'
p728
aS'animations/Stand/Reactions/SeeSomething_7'
p729
aS'animations/Stand/Reactions/SeeSomething_8'
p730
asS'stubborn'
p731
(lp732
S'animations/Stand/Emotions/Neutral/Stubborn_1'
p733
asS'crazy'
p734
(lp735
S'animations/Stand/Emotions/Positive/Enthusiastic_1'
p736
aS'animations/Stand/Emotions/Positive/Hysterical_1'
p737
asS'reserved'
p738
(lp739
S'animations/Sit/Emotions/Positive/Shy_1'
p740
aS'animations/Stand/Emotions/Positive/Shy_1'
p741
aS'animations/Stand/Emotions/Positive/Shy_2'
p742
aS'animations/Stand/Gestures/Shy_1'
p743
asS'give'
p744
(lp745
S'animations/Stand/Gestures/Give_1'
p746
aS'animations/Stand/Gestures/Give_2'
p747
aS'animations/Stand/Gestures/Give_3'
p748
aS'animations/Stand/Gestures/Give_4'
p749
aS'animations/Stand/Gestures/Give_5'
p750
aS'animations/Stand/Gestures/Give_6'
p751
aS'animations/Stand/Gestures/Joy_1'
p752
asS'conspire'
p753
(lp754
S'animations/Stand/Emotions/Neutral/Mischievous_1'
p755
asS'high'
p756
(lp757
S'animations/Stand/Gestures/ShowSky_1'
p758
aS'animations/Stand/Gestures/ShowSky_10'
p759
aS'animations/Stand/Gestures/ShowSky_11'
p760
aS'animations/Stand/Gestures/ShowSky_12'
p761
aS'animations/Stand/Gestures/ShowSky_2'
p762
aS'animations/Stand/Gestures/ShowSky_3'
p763
aS'animations/Stand/Gestures/ShowSky_4'
p764
aS'animations/Stand/Gestures/ShowSky_5'
p765
aS'animations/Stand/Gestures/ShowSky_6'
p766
aS'animations/Stand/Gestures/ShowSky_7'
p767
aS'animations/Stand/Gestures/ShowSky_8'
p768
aS'animations/Stand/Gestures/ShowSky_9'
p769
asS'stroke'
p770
(lp771
S'animations/Sit/Emotions/Negative/Hurt_1'
p772
aS'animations/Stand/Emotions/Negative/Hurt_1'
p773
aS'animations/Stand/Emotions/Negative/Hurt_2'
p774
asS'imitation'
p775
(lp776
S'animations/Sit/Waiting/Robot_1'
p777
aS'animations/Stand/Waiting/Robot_1'
p778
aS'animations/Stand/Waiting/Vacuum_1'
p779
asS'triangle'
p780
(lp781
S'animations/Sit/Waiting/GeoTriangle_1'
p782
asS'pong'
p783
(lp784
S'animations/Sit/Waiting/Pong_1'
p785
asS'hesitate'
p786
(lp787
S'animations/Stand/Emotions/Neutral/Hesitation_1'
p788
asS'chilly'
p789
(lp790
S'animations/Stand/Gestures/Freeze_1'
p791
asS'song'
p792
(lp793
S'animations/Sit/Waiting/Music_HighwayToHell_1'
p794
aS'animations/Sit/Waiting/Music_VieEnRose_1'
p795
aS'animations/Stand/Waiting/HappyBirthday_1'
p796
asS'not know'
p797
(lp798
S'animations/Stand/Gestures/IDontKnow_1'
p799
aS'animations/Stand/Gestures/IDontKnow_2'
p800
aS'animations/Stand/Gestures/IDontKnow_3'
p801
aS'animations/Stand/Gestures/IDontKnow_4'
p802
aS'animations/Stand/Gestures/IDontKnow_5'
p803
aS'animations/Stand/Gestures/IDontKnow_6'
p804
asS'scratch eye'
p805
(lp806
S'animations/Sit/Waiting/ScratchEye_1'
p807
aS'animations/Stand/Waiting/ScratchEye_1'
p808
asS'reject'
p809
(lp810
S'animations/SitOnPod/Gestures/No_1'
p811
aS'animations/SitOnPod/Gestures/No_2'
p812
aS'animations/SitOnPod/Gestures/No_3'
p813
aS'animations/SitOnPod/Gestures/No_4'
p814
aS'animations/SitOnPod/Gestures/No_5'
p815
aS'animations/SitOnPod/Gestures/No_6'
p816
aS'animations/SitOnPod/Gestures/No_7'
p817
aS'animations/SitOnPod/Gestures/No_8'
p818
aS'animations/SitOnPod/Gestures/No_9'
p819
aS'animations/Stand/Gestures/No_1'
p820
aS'animations/Stand/Gestures/No_2'
p821
aS'animations/Stand/Gestures/No_3'
p822
aS'animations/Stand/Gestures/No_4'
p823
aS'animations/Stand/Gestures/No_5'
p824
aS'animations/Stand/Gestures/No_6'
p825
aS'animations/Stand/Gestures/No_7'
p826
aS'animations/Stand/Gestures/No_8'
p827
aS'animations/Stand/Gestures/No_9'
p828
aS'animations/Stand/Gestures/Reject_1'
p829
aS'animations/Stand/Gestures/Reject_2'
p830
aS'animations/Stand/Gestures/Reject_3'
p831
aS'animations/Stand/Gestures/Reject_4'
p832
aS'animations/Stand/Gestures/Reject_5'
p833
aS'animations/Stand/Gestures/Reject_6'
p834
asS'yum'
p835
(lp836
S'animations/Stand/Gestures/Hungry_1'
p837
aS'animations/Stand/Gestures/Yum_1'
p838
asS'collude'
p839
(lp840
S'animations/Stand/Emotions/Neutral/Mischievous_1'
p841
asS'emulate'
p842
(lp843
S'animations/Stand/Gestures/Mime_1'
p844
aS'animations/Stand/Gestures/Mime_2'
p845
asS'watch'
p846
(lp847
S'animations/Stand/Gestures/Look_1'
p848
aS'animations/Stand/Gestures/Look_2'
p849
asS'modest'
p850
(lp851
S'animations/Stand/Emotions/Neutral/Embarrassed_1'
p852
asS'plane'
p853
(lp854
S'animations/Stand/Waiting/Helicopter_1'
p855
asS'mad'
p856
(lp857
S'animations/Stand/Emotions/Neutral/Alienated_1'
p858
asS'maybe'
p859
(lp860
S'animations/Stand/Gestures/Maybe_1'
p861
asS'robot'
p862
(lp863
S'animations/Sit/Waiting/Robot_1'
p864
aS'animations/Stand/Waiting/Robot_1'
p865
asS'scratch head'
p866
(lp867
S'animations/Sit/Waiting/ScratchHead_1'
p868
aS'animations/Stand/Waiting/ScratchHead_1'
p869
asS'furious'
p870
(lp871
S'animations/Sit/Emotions/Negative/Angry_1'
p872
aS'animations/Stand/Emotions/Negative/Angry_1'
p873
aS'animations/Stand/Emotions/Negative/Angry_2'
p874
aS'animations/Stand/Emotions/Negative/Angry_3'
p875
aS'animations/Stand/Emotions/Negative/Angry_4'
p876
aS'animations/Stand/Gestures/Angry_1'
p877
aS'animations/Stand/Gestures/Angry_2'
p878
aS'animations/Stand/Gestures/Angry_3'
p879
asS'false stop'
p880
(lp881
S'animations/Sit/Waiting/FalseStop_1'
p882
aS'animations/Sit/Waiting/FalseStop_2'
p883
asS'wing'
p884
(lp885
S'animations/Stand/Gestures/Wings_1'
p886
aS'animations/Stand/Gestures/Wings_2'
p887
aS'animations/Stand/Gestures/Wings_3'
p888
aS'animations/Stand/Gestures/Wings_4'
p889
aS'animations/Stand/Gestures/Wings_5'
p890
asS'talk'
p891
(lp892
S'animations/SitOnPod/Gestures/HeSays_1'
p893
aS'animations/SitOnPod/Gestures/HeSays_2'
p894
aS'animations/SitOnPod/Gestures/HeSays_3'
p895
aS'animations/Stand/Gestures/HeSays_1'
p896
aS'animations/Stand/Gestures/HeSays_2'
p897
aS'animations/Stand/Gestures/HeSays_3'
p898
asS'zen'
p899
(lp900
S'animations/Sit/Waiting/ZenCircles_1'
p901
asS'shake'
p902
(lp903
S'animations/Sit/Reactions/ShakeBody_1'
p904
aS'animations/Sit/Reactions/ShakeBody_2'
p905
aS'animations/Sit/Reactions/ShakeBody_3'
p906
aS'animations/Stand/Reactions/ShakeBody_1'
p907
aS'animations/Stand/Reactions/ShakeBody_2'
p908
aS'animations/Stand/Reactions/ShakeBody_3'
p909
asS'cold'
p910
(lp911
S'animations/Stand/Gestures/Freeze_1'
p912
asS'arrogant'
p913
(lp914
S'animations/Stand/Emotions/Positive/Proud_1'
p915
aS'animations/Stand/Emotions/Positive/Proud_2'
p916
aS'animations/Stand/Emotions/Positive/Proud_3'
p917
asS'haughty'
p918
(lp919
S'animations/Stand/Emotions/Positive/Proud_1'
p920
aS'animations/Stand/Emotions/Positive/Proud_2'
p921
aS'animations/Stand/Emotions/Positive/Proud_3'
p922
asS'play with hands'
p923
(lp924
S'animations/Sit/Waiting/PlayHands_1'
p925
aS'animations/Sit/Waiting/PlayHands_2'
p926
aS'animations/Sit/Waiting/PlayHands_3'
p927
aS'animations/Stand/Waiting/PlayHands_1'
p928
aS'animations/Stand/Waiting/PlayHands_2'
p929
aS'animations/Stand/Waiting/PlayHands_3'
p930
asS'late'
p931
(lp932
S'animations/Sit/Emotions/Negative/Late_1'
p933
aS'animations/Stand/Emotions/Negative/Late_1'
p934
aS'animations/Stand/Gestures/OnTheEvening_1'
p935
aS'animations/Stand/Gestures/OnTheEvening_2'
p936
aS'animations/Stand/Gestures/OnTheEvening_3'
p937
aS'animations/Stand/Gestures/OnTheEvening_4'
p938
aS'animations/Stand/Gestures/OnTheEvening_5'
p939
asS'choose'
p940
(lp941
S'animations/SitOnPod/Gestures/Choice_1'
p942
aS'animations/Stand/Gestures/Choice_1'
p943
aS'animations/Stand/Gestures/Choice_2'
p944
asS'shy'
p945
(lp946
S'animations/Sit/Emotions/Positive/Shy_1'
p947
aS'animations/Stand/Emotions/Neutral/Embarrassed_1'
p948
aS'animations/Stand/Emotions/Positive/Shy_1'
p949
aS'animations/Stand/Emotions/Positive/Shy_2'
p950
aS'animations/Stand/Gestures/Shy_1'
p951
asS'soccer'
p952
(lp953
S'animations/Stand/Gestures/Shoot_1'
p954
asS'them'
p955
(lp956
S'animations/Stand/Gestures/Far_3'
p957
asS'lonely'
p958
(lp959
S'animations/Stand/Emotions/Neutral/Lonely_1'
p960
asS'lunatic'
p961
(lp962
S'animations/Stand/Emotions/Neutral/Alienated_1'
p963
asS'bashful'
p964
(lp965
S'animations/Stand/Emotions/Neutral/Embarrassed_1'
p966
asS'bandmaster'
p967
(lp968
S'animations/Stand/Waiting/Bandmaster_1'
p969
asS'kiss'
p970
(lp971
S'animations/Stand/Gestures/Kisses_1'
p972
asS'foot'
p973
(lp974
S'animations/Sit/Reactions/BumperLeft_1'
p975
aS'animations/Sit/Reactions/BumperRight_1'
p976
aS'animations/Sit/Reactions/Bumpers_1'
p977
aS'animations/Sit/Reactions/Bumpers_2'
p978
aS'animations/Sit/Reactions/Bumpers_3'
p979
aS'animations/Stand/Reactions/BumperLeft_1'
p980
aS'animations/Stand/Reactions/BumperRight_1'
p981
aS'animations/Stand/Reactions/Bumpers_1'
p982
aS'animations/Stand/Reactions/Bumpers_2'
p983
aS'animations/Stand/Reactions/Bumpers_3'
p984
asS'placate'
p985
(lp986
S'animations/Stand/Gestures/CalmDown_1'
p987
aS'animations/Stand/Gestures/CalmDown_2'
p988
aS'animations/Stand/Gestures/CalmDown_3'
p989
aS'animations/Stand/Gestures/CalmDown_4'
p990
aS'animations/Stand/Gestures/CalmDown_5'
p991
aS'animations/Stand/Gestures/CalmDown_6'
p992
asS'servant'
p993
(lp994
S'animations/Stand/Gestures/Salute_3'
p995
asS'a lot'
p996
(lp997
S'animations/Stand/Gestures/CountMore_1'
p998
aS'animations/Stand/Gestures/CountMore_2'
p999
asS'good'
p1000
(lp1001
S'animations/Stand/Gestures/Caress_1'
p1002
aS'animations/Stand/Gestures/Caress_2'
p1003
asS'victory'
p1004
(lp1005
S'animations/Sit/Emotions/Positive/Winner_1'
p1006
aS'animations/Stand/Emotions/Positive/Winner_1'
p1007
aS'animations/Stand/Emotions/Positive/Winner_2'
p1008
asS'fitness'
p1009
(lp1010
S'animations/Sit/Waiting/Fitness_1'
p1011
aS'animations/Stand/Waiting/Fitness_1'
p1012
aS'animations/Stand/Waiting/Fitness_2'
p1013
aS'animations/Stand/Waiting/Fitness_3'
p1014
asS'call a taxi'
p1015
(lp1016
S'animations/Stand/Waiting/Taxi_1'
p1017
asS'dumbbells'
p1018
(lp1019
S'animations/Sit/Waiting/Fitness_1'
p1020
aS'animations/Stand/Waiting/Fitness_1'
p1021
aS'animations/Stand/Waiting/Fitness_2'
p1022
aS'animations/Stand/Waiting/Fitness_3'
p1023
asS'upstairs'
p1024
(lp1025
S'animations/Stand/Gestures/ShowSky_1'
p1026
aS'animations/Stand/Gestures/ShowSky_10'
p1027
aS'animations/Stand/Gestures/ShowSky_11'
p1028
aS'animations/Stand/Gestures/ShowSky_12'
p1029
aS'animations/Stand/Gestures/ShowSky_2'
p1030
aS'animations/Stand/Gestures/ShowSky_3'
p1031
aS'animations/Stand/Gestures/ShowSky_4'
p1032
aS'animations/Stand/Gestures/ShowSky_5'
p1033
aS'animations/Stand/Gestures/ShowSky_6'
p1034
aS'animations/Stand/Gestures/ShowSky_7'
p1035
aS'animations/Stand/Gestures/ShowSky_8'
p1036
aS'animations/Stand/Gestures/ShowSky_9'
p1037
asS'martial art'
p1038
(lp1039
S'animations/Stand/Waiting/KungFu_1'
p1040
asS'yeah'
p1041
(lp1042
S'animations/SitOnPod/Gestures/Yes_1'
p1043
aS'animations/SitOnPod/Gestures/Yes_2'
p1044
aS'animations/SitOnPod/Gestures/Yes_3'
p1045
aS'animations/Stand/Gestures/Yes_1'
p1046
aS'animations/Stand/Gestures/Yes_2'
p1047
aS'animations/Stand/Gestures/Yes_3'
p1048
asS'wake up'
p1049
(lp1050
S'animations/Sit/Waiting/WakeUp_1'
p1051
aS'animations/Stand/Waiting/WakeUp_1'
p1052
asS'not me'
p1053
(lp1054
S'animations/Stand/Emotions/Neutral/Innocent_1'
p1055
aS'animations/Stand/Waiting/Innocent_1'
p1056
asS'anxious'
p1057
(lp1058
S'animations/Stand/Emotions/Negative/Anxious_1'
p1059
aS'animations/Stand/Emotions/Neutral/Annoyed_1'
p1060
asS'shamefaced'
p1061
(lp1062
S'animations/Stand/Emotions/Neutral/Embarrassed_1'
p1063
asS'space'
p1064
(lp1065
S'animations/Stand/Waiting/SpaceShuttle_1'
p1066
asS'your'
p1067
(lp1068
S'animations/Sit/Gestures/You_4'
p1069
aS'animations/SitOnPod/Gestures/You_1'
p1070
aS'animations/SitOnPod/Gestures/You_2'
p1071
aS'animations/SitOnPod/Gestures/You_3'
p1072
aS'animations/SitOnPod/Gestures/You_4'
p1073
aS'animations/SitOnPod/Gestures/You_5'
p1074
aS'animations/Stand/Gestures/You_1'
p1075
aS'animations/Stand/Gestures/You_2'
p1076
aS'animations/Stand/Gestures/You_3'
p1077
aS'animations/Stand/Gestures/You_4'
p1078
aS'animations/Stand/Gestures/You_5'
p1079
asS'detestation'
p1080
(lp1081
S'animations/Stand/Gestures/Reject_1'
p1082
aS'animations/Stand/Gestures/Reject_2'
p1083
aS'animations/Stand/Gestures/Reject_3'
p1084
aS'animations/Stand/Gestures/Reject_4'
p1085
aS'animations/Stand/Gestures/Reject_5'
p1086
aS'animations/Stand/Gestures/Reject_6'
p1087
asS'surprise'
p1088
(lp1089
S'animations/SitOnPod/Gestures/WhatSThis_1'
p1090
aS'animations/SitOnPod/Gestures/WhatSThis_10'
p1091
aS'animations/SitOnPod/Gestures/WhatSThis_11'
p1092
aS'animations/SitOnPod/Gestures/WhatSThis_12'
p1093
aS'animations/SitOnPod/Gestures/WhatSThis_13'
p1094
aS'animations/SitOnPod/Gestures/WhatSThis_14'
p1095
aS'animations/SitOnPod/Gestures/WhatSThis_15'
p1096
aS'animations/SitOnPod/Gestures/WhatSThis_16'
p1097
aS'animations/SitOnPod/Gestures/WhatSThis_2'
p1098
aS'animations/SitOnPod/Gestures/WhatSThis_3'
p1099
aS'animations/SitOnPod/Gestures/WhatSThis_4'
p1100
aS'animations/SitOnPod/Gestures/WhatSThis_5'
p1101
aS'animations/SitOnPod/Gestures/WhatSThis_6'
p1102
aS'animations/SitOnPod/Gestures/WhatSThis_7'
p1103
aS'animations/SitOnPod/Gestures/WhatSThis_8'
p1104
aS'animations/SitOnPod/Gestures/WhatSThis_9'
p1105
aS'animations/Stand/Gestures/WhatSThis_1'
p1106
aS'animations/Stand/Gestures/WhatSThis_10'
p1107
aS'animations/Stand/Gestures/WhatSThis_11'
p1108
aS'animations/Stand/Gestures/WhatSThis_12'
p1109
aS'animations/Stand/Gestures/WhatSThis_13'
p1110
aS'animations/Stand/Gestures/WhatSThis_14'
p1111
aS'animations/Stand/Gestures/WhatSThis_15'
p1112
aS'animations/Stand/Gestures/WhatSThis_16'
p1113
aS'animations/Stand/Gestures/WhatSThis_2'
p1114
aS'animations/Stand/Gestures/WhatSThis_3'
p1115
aS'animations/Stand/Gestures/WhatSThis_4'
p1116
aS'animations/Stand/Gestures/WhatSThis_5'
p1117
aS'animations/Stand/Gestures/WhatSThis_6'
p1118
aS'animations/Stand/Gestures/WhatSThis_7'
p1119
aS'animations/Stand/Gestures/WhatSThis_8'
p1120
aS'animations/Stand/Gestures/WhatSThis_9'
p1121
asS'despairing'
p1122
(lp1123
S'animations/Stand/Gestures/Desperate_1'
p1124
aS'animations/Stand/Gestures/Desperate_2'
p1125
aS'animations/Stand/Gestures/Desperate_3'
p1126
aS'animations/Stand/Gestures/Desperate_4'
p1127
aS'animations/Stand/Gestures/Desperate_5'
p1128
asS'undead'
p1129
(lp1130
S'animations/Stand/Waiting/Zombie_1'
p1131
asS'unless'
p1132
(lp1133
S'animations/Stand/Gestures/But_1'
p1134
asS'monster'
p1135
(lp1136
S'animations/Stand/Waiting/Monster_1'
p1137
asS'assured'
p1138
(lp1139
S'animations/Stand/Emotions/Positive/Confident_1'
p1140
aS'animations/Stand/Emotions/Positive/Sure_1'
p1141
asS'waddle'
p1142
(lp1143
S'animations/Stand/Waiting/Waddle_1'
p1144
aS'animations/Stand/Waiting/Waddle_2'
p1145
asS'story'
p1146
(lp1147
S'animations/Sit/Waiting/Puppet_1'
p1148
asS'reason'
p1149
(lp1150
S'animations/Stand/Gestures/Thinking_1'
p1151
aS'animations/Stand/Gestures/Thinking_2'
p1152
aS'animations/Stand/Gestures/Thinking_3'
p1153
aS'animations/Stand/Gestures/Thinking_4'
p1154
aS'animations/Stand/Gestures/Thinking_5'
p1155
aS'animations/Stand/Gestures/Thinking_6'
p1156
aS'animations/Stand/Gestures/Thinking_7'
p1157
aS'animations/Stand/Gestures/Thinking_8'
p1158
asS'mime'
p1159
(lp1160
S'animations/Stand/Gestures/Mime_1'
p1161
aS'animations/Stand/Gestures/Mime_2'
p1162
asS'body language'
p1163
(lp1164
S'animations/Sit/BodyTalk/Speaking/BodyTalk_1'
p1165
aS'animations/Sit/BodyTalk/Speaking/BodyTalk_10'
p1166
aS'animations/Sit/BodyTalk/Speaking/BodyTalk_11'
p1167
aS'animations/Sit/BodyTalk/Speaking/BodyTalk_12'
p1168
aS'animations/Sit/BodyTalk/Speaking/BodyTalk_2'
p1169
aS'animations/Sit/BodyTalk/Speaking/BodyTalk_3'
p1170
aS'animations/Sit/BodyTalk/Speaking/BodyTalk_4'
p1171
aS'animations/Sit/BodyTalk/Speaking/BodyTalk_5'
p1172
aS'animations/Sit/BodyTalk/Speaking/BodyTalk_6'
p1173
aS'animations/Sit/BodyTalk/Speaking/BodyTalk_7'
p1174
aS'animations/Sit/BodyTalk/Speaking/BodyTalk_8'
p1175
aS'animations/Sit/BodyTalk/Speaking/BodyTalk_9'
p1176
aS'animations/SitOnPod/Gestures/HeSays_1'
p1177
aS'animations/SitOnPod/Gestures/HeSays_2'
p1178
aS'animations/SitOnPod/Gestures/HeSays_3'
p1179
aS'animations/Stand/BodyTalk/Speaking/BodyTalk_1'
p1180
aS'animations/Stand/BodyTalk/Speaking/BodyTalk_10'
p1181
aS'animations/Stand/BodyTalk/Speaking/BodyTalk_11'
p1182
aS'animations/Stand/BodyTalk/Speaking/BodyTalk_12'
p1183
aS'animations/Stand/BodyTalk/Speaking/BodyTalk_13'
p1184
aS'animations/Stand/BodyTalk/Speaking/BodyTalk_14'
p1185
aS'animations/Stand/BodyTalk/Speaking/BodyTalk_15'
p1186
aS'animations/Stand/BodyTalk/Speaking/BodyTalk_16'
p1187
aS'animations/Stand/BodyTalk/Speaking/BodyTalk_17'
p1188
aS'animations/Stand/BodyTalk/Speaking/BodyTalk_18'
p1189
aS'animations/Stand/BodyTalk/Speaking/BodyTalk_19'
p1190
aS'animations/Stand/BodyTalk/Speaking/BodyTalk_2'
p1191
aS'animations/Stand/BodyTalk/Speaking/BodyTalk_20'
p1192
aS'animations/Stand/BodyTalk/Speaking/BodyTalk_21'
p1193
aS'animations/Stand/BodyTalk/Speaking/BodyTalk_22'
p1194
aS'animations/Stand/BodyTalk/Speaking/BodyTalk_3'
p1195
aS'animations/Stand/BodyTalk/Speaking/BodyTalk_4'
p1196
aS'animations/Stand/BodyTalk/Speaking/BodyTalk_5'
p1197
aS'animations/Stand/BodyTalk/Speaking/BodyTalk_6'
p1198
aS'animations/Stand/BodyTalk/Speaking/BodyTalk_7'
p1199
aS'animations/Stand/BodyTalk/Speaking/BodyTalk_8'
p1200
aS'animations/Stand/BodyTalk/Speaking/BodyTalk_9'
p1201
aS'animations/Stand/Gestures/Explain_1'
p1202
aS'animations/Stand/Gestures/Explain_10'
p1203
aS'animations/Stand/Gestures/Explain_11'
p1204
aS'animations/Stand/Gestures/Explain_2'
p1205
aS'animations/Stand/Gestures/Explain_3'
p1206
aS'animations/Stand/Gestures/Explain_4'
p1207
aS'animations/Stand/Gestures/Explain_5'
p1208
aS'animations/Stand/Gestures/Explain_6'
p1209
aS'animations/Stand/Gestures/Explain_7'
p1210
aS'animations/Stand/Gestures/Explain_8'
p1211
aS'animations/Stand/Gestures/Explain_9'
p1212
aS'animations/Stand/Gestures/HeSays_1'
p1213
aS'animations/Stand/Gestures/HeSays_2'
p1214
aS'animations/Stand/Gestures/HeSays_3'
p1215
aS'animations/Stand/Gestures/JointHands_1'
p1216
aS'animations/Stand/Gestures/JointHands_2'
p1217
aS'animations/Stand/Gestures/JointHands_3'
p1218
aS'animations/Stand/Gestures/YouKnowWhat_1'
p1219
aS'animations/Stand/Gestures/YouKnowWhat_2'
p1220
aS'animations/Stand/Gestures/YouKnowWhat_3'
p1221
aS'animations/Stand/Gestures/YouKnowWhat_4'
p1222
aS'animations/Stand/Gestures/YouKnowWhat_5'
p1223
aS'animations/Stand/Gestures/YouKnowWhat_6'
p1224
asS'headbang'
p1225
(lp1226
S'animations/Stand/Waiting/Headbang_1'
p1227
asS'estimate'
p1228
(lp1229
S'animations/Stand/Gestures/Thinking_1'
p1230
aS'animations/Stand/Gestures/Thinking_2'
p1231
aS'animations/Stand/Gestures/Thinking_3'
p1232
aS'animations/Stand/Gestures/Thinking_4'
p1233
aS'animations/Stand/Gestures/Thinking_5'
p1234
aS'animations/Stand/Gestures/Thinking_6'
p1235
aS'animations/Stand/Gestures/Thinking_7'
p1236
aS'animations/Stand/Gestures/Thinking_8'
p1237
asS'care'
p1238
(lp1239
S'animations/Stand/Emotions/Neutral/Cautious_1'
p1240
asS'show sky'
p1241
(lp1242
S'animations/Stand/Waiting/ShowSky_1'
p1243
aS'animations/Stand/Waiting/ShowSky_2'
p1244
asS'come on'
p1245
(lp1246
S'animations/Sit/Gestures/ComeOn_1'
p1247
aS'animations/Sit/Waiting/CallSomeone_1'
p1248
aS'animations/Stand/Gestures/ComeOn_1'
p1249
aS'animations/Stand/Waiting/CallSomeone_1'
p1250
asS'keen'
p1251
(lp1252
S'animations/Stand/Emotions/Positive/Enthusiastic_1'
p1253
asS'birthday'
p1254
(lp1255
S'animations/Stand/Waiting/HappyBirthday_1'
p1256
asS'oppose'
p1257
(lp1258
S'animations/SitOnPod/Gestures/No_1'
p1259
aS'animations/SitOnPod/Gestures/No_2'
p1260
aS'animations/SitOnPod/Gestures/No_3'
p1261
aS'animations/SitOnPod/Gestures/No_4'
p1262
aS'animations/SitOnPod/Gestures/No_5'
p1263
aS'animations/SitOnPod/Gestures/No_6'
p1264
aS'animations/SitOnPod/Gestures/No_7'
p1265
aS'animations/SitOnPod/Gestures/No_8'
p1266
aS'animations/SitOnPod/Gestures/No_9'
p1267
aS'animations/Stand/Gestures/No_1'
p1268
aS'animations/Stand/Gestures/No_2'
p1269
aS'animations/Stand/Gestures/No_3'
p1270
aS'animations/Stand/Gestures/No_4'
p1271
aS'animations/Stand/Gestures/No_5'
p1272
aS'animations/Stand/Gestures/No_6'
p1273
aS'animations/Stand/Gestures/No_7'
p1274
aS'animations/Stand/Gestures/No_8'
p1275
aS'animations/Stand/Gestures/No_9'
p1276
asS'hopeless'
p1277
(lp1278
S'animations/Stand/Gestures/Desperate_1'
p1279
aS'animations/Stand/Gestures/Desperate_2'
p1280
aS'animations/Stand/Gestures/Desperate_3'
p1281
aS'animations/Stand/Gestures/Desperate_4'
p1282
aS'animations/Stand/Gestures/Desperate_5'
p1283
asS'bumper'
p1284
(lp1285
S'animations/Sit/Reactions/BumperLeft_1'
p1286
aS'animations/Sit/Reactions/BumperRight_1'
p1287
aS'animations/Sit/Reactions/Bumpers_1'
p1288
aS'animations/Sit/Reactions/Bumpers_2'
p1289
aS'animations/Sit/Reactions/Bumpers_3'
p1290
aS'animations/Stand/Reactions/BumperLeft_1'
p1291
aS'animations/Stand/Reactions/BumperRight_1'
p1292
aS'animations/Stand/Reactions/Bumpers_1'
p1293
aS'animations/Stand/Reactions/Bumpers_2'
p1294
aS'animations/Stand/Reactions/Bumpers_3'
p1295
asS'think'
p1296
(lp1297
S'animations/Sit/Waiting/Think_1'
p1298
aS'animations/Sit/Waiting/Think_2'
p1299
aS'animations/Sit/Waiting/Think_3'
p1300
aS'animations/Stand/Gestures/Thinking_1'
p1301
aS'animations/Stand/Gestures/Thinking_2'
p1302
aS'animations/Stand/Gestures/Thinking_3'
p1303
aS'animations/Stand/Gestures/Thinking_4'
p1304
aS'animations/Stand/Gestures/Thinking_5'
p1305
aS'animations/Stand/Gestures/Thinking_6'
p1306
aS'animations/Stand/Gestures/Thinking_7'
p1307
aS'animations/Stand/Gestures/Thinking_8'
p1308
aS'animations/Stand/Waiting/Think_1'
p1309
aS'animations/Stand/Waiting/Think_2'
p1310
aS'animations/Stand/Waiting/Think_3'
p1311
aS'animations/Stand/Waiting/Think_4'
p1312
asS'blind'
p1313
(lp1314
S'animations/Sit/Reactions/LightShine_1'
p1315
aS'animations/Sit/Reactions/LightShine_2'
p1316
aS'animations/Sit/Reactions/LightShine_3'
p1317
aS'animations/Sit/Reactions/LightShine_4'
p1318
aS'animations/Stand/Reactions/LightShine_1'
p1319
aS'animations/Stand/Reactions/LightShine_2'
p1320
aS'animations/Stand/Reactions/LightShine_3'
p1321
aS'animations/Stand/Reactions/LightShine_4'
p1322
asS'there'
p1323
(lp1324
S'animations/SitOnPod/Gestures/This_1'
p1325
aS'animations/SitOnPod/Gestures/This_10'
p1326
aS'animations/SitOnPod/Gestures/This_11'
p1327
aS'animations/SitOnPod/Gestures/This_12'
p1328
aS'animations/SitOnPod/Gestures/This_13'
p1329
aS'animations/SitOnPod/Gestures/This_14'
p1330
aS'animations/SitOnPod/Gestures/This_15'
p1331
aS'animations/SitOnPod/Gestures/This_2'
p1332
aS'animations/SitOnPod/Gestures/This_3'
p1333
aS'animations/SitOnPod/Gestures/This_4'
p1334
aS'animations/SitOnPod/Gestures/This_5'
p1335
aS'animations/SitOnPod/Gestures/This_6'
p1336
aS'animations/SitOnPod/Gestures/This_7'
p1337
aS'animations/SitOnPod/Gestures/This_8'
p1338
aS'animations/SitOnPod/Gestures/This_9'
p1339
aS'animations/Stand/Gestures/Far_1'
p1340
aS'animations/Stand/Gestures/Far_2'
p1341
aS'animations/Stand/Gestures/Far_3'
p1342
aS'animations/Stand/Gestures/This_1'
p1343
aS'animations/Stand/Gestures/This_10'
p1344
aS'animations/Stand/Gestures/This_11'
p1345
aS'animations/Stand/Gestures/This_12'
p1346
aS'animations/Stand/Gestures/This_13'
p1347
aS'animations/Stand/Gestures/This_14'
p1348
aS'animations/Stand/Gestures/This_15'
p1349
aS'animations/Stand/Gestures/This_2'
p1350
aS'animations/Stand/Gestures/This_3'
p1351
aS'animations/Stand/Gestures/This_4'
p1352
aS'animations/Stand/Gestures/This_5'
p1353
aS'animations/Stand/Gestures/This_6'
p1354
aS'animations/Stand/Gestures/This_7'
p1355
aS'animations/Stand/Gestures/This_8'
p1356
aS'animations/Stand/Gestures/This_9'
p1357
asS'one'
p1358
(lp1359
S'animations/Stand/Gestures/CountOne_1'
p1360
aS'animations/Stand/Gestures/CountOne_2'
p1361
asS'embarrassed'
p1362
(lp1363
S'animations/Sit/Emotions/Positive/Shy_1'
p1364
aS'animations/Stand/Emotions/Neutral/Confused_1'
p1365
aS'animations/Stand/Emotions/Neutral/Embarrassed_1'
p1366
aS'animations/Stand/Emotions/Positive/Shy_1'
p1367
aS'animations/Stand/Emotions/Positive/Shy_2'
p1368
aS'animations/Stand/Gestures/Confused_1'
p1369
aS'animations/Stand/Gestures/Confused_2'
p1370
aS'animations/Stand/Gestures/Shy_1'
p1371
asS'puppet'
p1372
(lp1373
S'animationMode/.'
p1374
aS'animations/Sit/Waiting/Puppet_1'
p1375
asS'chopper'
p1376
(lp1377
S'animations/Stand/Waiting/Helicopter_1'
p1378
asS'blank'
p1379
(lp1380
S'animations/Stand/Gestures/Nothing_1'
p1381
aS'animations/Stand/Gestures/Nothing_2'
p1382
asS'auto format'
p1383
(lp1384
S'animations/Sit/Waiting/AutoFormat_1'
p1385
asS'unacquainted'
p1386
(lp1387
S'animations/Stand/Gestures/IDontKnow_1'
p1388
aS'animations/Stand/Gestures/IDontKnow_2'
p1389
aS'animations/Stand/Gestures/IDontKnow_3'
p1390
aS'animations/Stand/Gestures/IDontKnow_4'
p1391
aS'animations/Stand/Gestures/IDontKnow_5'
p1392
aS'animations/Stand/Gestures/IDontKnow_6'
p1393
asS'highway to hell'
p1394
(lp1395
S'animations/Sit/Waiting/Music_HighwayToHell_1'
p1396
asS'unknown'
p1397
(lp1398
S'animations/Stand/Gestures/IDontKnow_1'
p1399
aS'animations/Stand/Gestures/IDontKnow_2'
p1400
aS'animations/Stand/Gestures/IDontKnow_3'
p1401
aS'animations/Stand/Gestures/IDontKnow_4'
p1402
aS'animations/Stand/Gestures/IDontKnow_5'
p1403
aS'animations/Stand/Gestures/IDontKnow_6'
p1404
asS'top'
p1405
(lp1406
S'animations/Stand/Gestures/ShowSky_1'
p1407
aS'animations/Stand/Gestures/ShowSky_10'
p1408
aS'animations/Stand/Gestures/ShowSky_11'
p1409
aS'animations/Stand/Gestures/ShowSky_12'
p1410
aS'animations/Stand/Gestures/ShowSky_2'
p1411
aS'animations/Stand/Gestures/ShowSky_3'
p1412
aS'animations/Stand/Gestures/ShowSky_4'
p1413
aS'animations/Stand/Gestures/ShowSky_5'
p1414
aS'animations/Stand/Gestures/ShowSky_6'
p1415
aS'animations/Stand/Gestures/ShowSky_7'
p1416
aS'animations/Stand/Gestures/ShowSky_8'
p1417
aS'animations/Stand/Gestures/ShowSky_9'
p1418
asS'indicate'
p1419
(lp1420
S'animations/Sit/Gestures/You_4'
p1421
aS'animations/SitOnPod/Gestures/HeSays_1'
p1422
aS'animations/SitOnPod/Gestures/HeSays_2'
p1423
aS'animations/SitOnPod/Gestures/HeSays_3'
p1424
aS'animations/SitOnPod/Gestures/You_1'
p1425
aS'animations/SitOnPod/Gestures/You_2'
p1426
aS'animations/SitOnPod/Gestures/You_3'
p1427
aS'animations/SitOnPod/Gestures/You_4'
p1428
aS'animations/SitOnPod/Gestures/You_5'
p1429
aS'animations/Stand/Gestures/HeSays_1'
p1430
aS'animations/Stand/Gestures/HeSays_2'
p1431
aS'animations/Stand/Gestures/HeSays_3'
p1432
aS'animations/Stand/Gestures/You_1'
p1433
aS'animations/Stand/Gestures/You_2'
p1434
aS'animations/Stand/Gestures/You_3'
p1435
aS'animations/Stand/Gestures/You_4'
p1436
aS'animations/Stand/Gestures/You_5'
p1437
asS'attack'
p1438
(lp1439
S'animations/Stand/Waiting/Knight_1'
p1440
asS'scratch back'
p1441
(lp1442
S'animations/Sit/Waiting/ScratchBack_1'
p1443
aS'animations/Stand/Waiting/ScratchBack_1'
p1444
asS'scheme'
p1445
(lp1446
S'animations/Stand/Emotions/Neutral/Mischievous_1'
p1447
asS'accompany'
p1448
(lp1449
S'animations/Stand/Gestures/Follow_1'
p1450
asS'square'
p1451
(lp1452
S'animations/Sit/Waiting/GeoSquare_1'
p1453
asS'relieved'
p1454
(lp1455
S'animations/Stand/Emotions/Positive/Relieved_1'
p1456
asS'hum'
p1457
(lp1458
S'animations/Sit/Emotions/Neutral/AskForAttention_3'
p1459
aS'animations/Stand/Emotions/Neutral/AskForAttention_3'
p1460
asS'applauds'
p1461
(lp1462
S'animations/Sit/Emotions/Positive/Winner_1'
p1463
aS'animations/Stand/Emotions/Positive/Winner_1'
p1464
aS'animations/Stand/Emotions/Positive/Winner_2'
p1465
asS'mollify'
p1466
(lp1467
S'animations/Stand/Gestures/CalmDown_1'
p1468
aS'animations/Stand/Gestures/CalmDown_2'
p1469
aS'animations/Stand/Gestures/CalmDown_3'
p1470
aS'animations/Stand/Gestures/CalmDown_4'
p1471
aS'animations/Stand/Gestures/CalmDown_5'
p1472
aS'animations/Stand/Gestures/CalmDown_6'
p1473
asS'grunt'
p1474
(lp1475
S'animations/Stand/Waiting/ShowMuscles_4'
p1476
asS'yoo-hoo'
p1477
(lp1478
S'animations/Sit/Emotions/Neutral/AskForAttention_2'
p1479
aS'animations/Sit/Gestures/Hey_3'
p1480
aS'animations/SitOnPod/Gestures/Hey_1'
p1481
aS'animations/SitOnPod/Gestures/Hey_2'
p1482
aS'animations/SitOnPod/Gestures/Hey_3'
p1483
aS'animations/SitOnPod/Gestures/Hey_4'
p1484
aS'animations/Stand/Emotions/Neutral/AskForAttention_2'
p1485
aS'animations/Stand/Gestures/Hey_1'
p1486
aS'animations/Stand/Gestures/Hey_2'
p1487
aS'animations/Stand/Gestures/Hey_3'
p1488
aS'animations/Stand/Gestures/Hey_4'
p1489
aS'animations/Stand/Gestures/Hey_5'
p1490
asS'depressed'
p1491
(lp1492
S'animations/Sit/Emotions/Negative/Sad_1'
p1493
aS'animations/Stand/Emotions/Negative/Sad_1'
p1494
aS'animations/Stand/Emotions/Negative/Sad_2'
p1495
asS'coward'
p1496
(lp1497
S'animations/Sit/Emotions/Positive/Shy_1'
p1498
aS'animations/Stand/Emotions/Positive/Shy_1'
p1499
aS'animations/Stand/Emotions/Positive/Shy_2'
p1500
aS'animations/Stand/Gestures/Shy_1'
p1501
asS'beg'
p1502
(lp1503
S'animations/Stand/Gestures/Please_1'
p1504
aS'animations/Stand/Gestures/Please_2'
p1505
aS'animations/Stand/Gestures/Please_3'
p1506
asS'karate'
p1507
(lp1508
S'animations/Stand/Waiting/KungFu_1'
p1509
asS'determined'
p1510
(lp1511
S'animations/Stand/Emotions/Neutral/Determined_1'
p1512
asS'light'
p1513
(lp1514
S'animations/Sit/Reactions/LightShine_1'
p1515
aS'animations/Sit/Reactions/LightShine_2'
p1516
aS'animations/Sit/Reactions/LightShine_3'
p1517
aS'animations/Sit/Reactions/LightShine_4'
p1518
aS'animations/Stand/Reactions/LightShine_1'
p1519
aS'animations/Stand/Reactions/LightShine_2'
p1520
aS'animations/Stand/Reactions/LightShine_3'
p1521
aS'animations/Stand/Reactions/LightShine_4'
p1522
asS'cleaner'
p1523
(lp1524
S'animations/Stand/Waiting/Vacuum_1'
p1525
asS'knock eye'
p1526
(lp1527
S'animations/Sit/Waiting/KnockEye_1'
p1528
aS'animations/Stand/Waiting/KnockEye_1'
p1529
asS'suspicious'
p1530
(lp1531
S'animations/Stand/Emotions/Neutral/Suspicious_1'
p1532
asS'affirmative'
p1533
(lp1534
S'animations/SitOnPod/Gestures/Yes_1'
p1535
aS'animations/SitOnPod/Gestures/Yes_2'
p1536
aS'animations/SitOnPod/Gestures/Yes_3'
p1537
aS'animations/Stand/Gestures/Yes_1'
p1538
aS'animations/Stand/Gestures/Yes_2'
p1539
aS'animations/Stand/Gestures/Yes_3'
p1540
asS'gentle'
p1541
(lp1542
S'animations/Stand/Gestures/CalmDown_1'
p1543
aS'animations/Stand/Gestures/CalmDown_2'
p1544
aS'animations/Stand/Gestures/CalmDown_3'
p1545
aS'animations/Stand/Gestures/CalmDown_4'
p1546
aS'animations/Stand/Gestures/CalmDown_5'
p1547
aS'animations/Stand/Gestures/CalmDown_6'
p1548
aS'animations/Stand/Gestures/Caress_2'
p1549
asS'say'
p1550
(lp1551
S'animations/SitOnPod/Gestures/HeSays_1'
p1552
aS'animations/SitOnPod/Gestures/HeSays_2'
p1553
aS'animations/SitOnPod/Gestures/HeSays_3'
p1554
aS'animations/Stand/Gestures/HeSays_1'
p1555
aS'animations/Stand/Gestures/HeSays_2'
p1556
aS'animations/Stand/Gestures/HeSays_3'
p1557
asS'caress'
p1558
(lp1559
S'animations/Stand/Gestures/Caress_1'
p1560
aS'animations/Stand/Gestures/Caress_2'
p1561
asS'zestful'
p1562
(lp1563
S'animations/Stand/Emotions/Positive/Enthusiastic_1'
p1564
aS'animations/Stand/Gestures/Enthusiastic_1'
p1565
aS'animations/Stand/Gestures/Enthusiastic_2'
p1566
aS'animations/Stand/Gestures/Enthusiastic_3'
p1567
aS'animations/Stand/Gestures/Enthusiastic_4'
p1568
aS'animations/Stand/Gestures/Enthusiastic_5'
p1569
asS'any'
p1570
(lp1571
S'animations/SitOnPod/Gestures/Everything_1'
p1572
aS'animations/SitOnPod/Gestures/Everything_2'
p1573
aS'animations/SitOnPod/Gestures/Everything_3'
p1574
aS'animations/SitOnPod/Gestures/Everything_4'
p1575
aS'animations/SitOnPod/Gestures/Everything_6'
p1576
aS'animations/Stand/Gestures/Everything_1'
p1577
aS'animations/Stand/Gestures/Everything_2'
p1578
aS'animations/Stand/Gestures/Everything_3'
p1579
aS'animations/Stand/Gestures/Everything_4'
p1580
aS'animations/Stand/Gestures/Everything_5'
p1581
aS'animations/Stand/Gestures/Everything_6'
p1582
asS'thoughtful'
p1583
(lp1584
S'animations/Stand/Emotions/Neutral/Puzzled_1'
p1585
asS'refute'
p1586
(lp1587
S'animations/SitOnPod/Gestures/No_1'
p1588
aS'animations/SitOnPod/Gestures/No_2'
p1589
aS'animations/SitOnPod/Gestures/No_3'
p1590
aS'animations/SitOnPod/Gestures/No_4'
p1591
aS'animations/SitOnPod/Gestures/No_5'
p1592
aS'animations/SitOnPod/Gestures/No_6'
p1593
aS'animations/SitOnPod/Gestures/No_7'
p1594
aS'animations/SitOnPod/Gestures/No_8'
p1595
aS'animations/SitOnPod/Gestures/No_9'
p1596
aS'animations/Stand/Gestures/No_1'
p1597
aS'animations/Stand/Gestures/No_2'
p1598
aS'animations/Stand/Gestures/No_3'
p1599
aS'animations/Stand/Gestures/No_4'
p1600
aS'animations/Stand/Gestures/No_5'
p1601
aS'animations/Stand/Gestures/No_6'
p1602
aS'animations/Stand/Gestures/No_7'
p1603
aS'animations/Stand/Gestures/No_8'
p1604
aS'animations/Stand/Gestures/No_9'
p1605
asS'that'
p1606
(lp1607
S'animations/SitOnPod/Gestures/This_1'
p1608
aS'animations/SitOnPod/Gestures/This_10'
p1609
aS'animations/SitOnPod/Gestures/This_11'
p1610
aS'animations/SitOnPod/Gestures/This_12'
p1611
aS'animations/SitOnPod/Gestures/This_13'
p1612
aS'animations/SitOnPod/Gestures/This_14'
p1613
aS'animations/SitOnPod/Gestures/This_15'
p1614
aS'animations/SitOnPod/Gestures/This_2'
p1615
aS'animations/SitOnPod/Gestures/This_3'
p1616
aS'animations/SitOnPod/Gestures/This_4'
p1617
aS'animations/SitOnPod/Gestures/This_5'
p1618
aS'animations/SitOnPod/Gestures/This_6'
p1619
aS'animations/SitOnPod/Gestures/This_7'
p1620
aS'animations/SitOnPod/Gestures/This_8'
p1621
aS'animations/SitOnPod/Gestures/This_9'
p1622
aS'animations/Stand/Gestures/This_1'
p1623
aS'animations/Stand/Gestures/This_10'
p1624
aS'animations/Stand/Gestures/This_11'
p1625
aS'animations/Stand/Gestures/This_12'
p1626
aS'animations/Stand/Gestures/This_13'
p1627
aS'animations/Stand/Gestures/This_14'
p1628
aS'animations/Stand/Gestures/This_15'
p1629
aS'animations/Stand/Gestures/This_2'
p1630
aS'animations/Stand/Gestures/This_3'
p1631
aS'animations/Stand/Gestures/This_4'
p1632
aS'animations/Stand/Gestures/This_5'
p1633
aS'animations/Stand/Gestures/This_6'
p1634
aS'animations/Stand/Gestures/This_7'
p1635
aS'animations/Stand/Gestures/This_8'
p1636
aS'animations/Stand/Gestures/This_9'
p1637
asS'isolated'
p1638
(lp1639
S'animations/Sit/Emotions/Positive/Shy_1'
p1640
aS'animations/Stand/Emotions/Neutral/Lonely_1'
p1641
aS'animations/Stand/Emotions/Positive/Shy_1'
p1642
aS'animations/Stand/Emotions/Positive/Shy_2'
p1643
aS'animations/Stand/Gestures/Shy_1'
p1644
asS'shocked'
p1645
(lp1646
S'animations/Stand/Emotions/Negative/Shocked_1'
p1647
asS'once upon a time'
p1648
(lp1649
S'animations/SitOnPod/Gestures/Everything_1'
p1650
aS'animations/SitOnPod/Gestures/Everything_3'
p1651
aS'animations/SitOnPod/Gestures/Everything_4'
p1652
aS'animations/SitOnPod/Gestures/Everything_6'
p1653
aS'animations/Stand/Gestures/Everything_1'
p1654
aS'animations/Stand/Gestures/Everything_3'
p1655
aS'animations/Stand/Gestures/Everything_4'
p1656
aS'animations/Stand/Gestures/Everything_6'
p1657
asS'animation'
p1658
(lp1659
S'animationMode/.'
p1660
asS'shoot'
p1661
(lp1662
S'animations/Stand/Gestures/Shoot_1'
p1663
asS'take'
p1664
(lp1665
S'animations/Stand/Gestures/Take_1'
p1666
asS'exalted'
p1667
(lp1668
S'animations/Stand/Gestures/Excited_1'
p1669
asS'play'
p1670
(lp1671
S'animations/Sit/Waiting/PlayHands_1'
p1672
aS'animations/Sit/Waiting/PlayHands_2'
p1673
aS'animations/Sit/Waiting/PlayHands_3'
p1674
aS'animations/Sit/Waiting/Pong_1'
p1675
aS'animations/Stand/Waiting/HideHands_1'
p1676
aS'animations/Stand/Waiting/PlayHands_1'
p1677
aS'animations/Stand/Waiting/PlayHands_2'
p1678
aS'animations/Stand/Waiting/PlayHands_3'
p1679
asS'sure'
p1680
(lp1681
S'animations/Stand/Emotions/Positive/Confident_1'
p1682
aS'animations/Stand/Emotions/Positive/Sure_1'
p1683
asS'pain'
p1684
(lp1685
S'animations/Sit/Emotions/Negative/Hurt_1'
p1686
aS'animations/Stand/Emotions/Negative/Hurt_1'
p1687
aS'animations/Stand/Emotions/Negative/Hurt_2'
p1688
asS'deploy'
p1689
(lp1690
S'animations/Stand/Gestures/Stretch_1'
p1691
aS'animations/Stand/Gestures/Stretch_2'
p1692
asS'object'
p1693
(lp1694
S'animations/Stand/Reactions/SeeSomething_3'
p1695
aS'animations/Stand/Reactions/SeeSomething_4'
p1696
aS'animations/Stand/Reactions/SeeSomething_5'
p1697
aS'animations/Stand/Reactions/SeeSomething_6'
p1698
aS'animations/Stand/Reactions/SeeSomething_7'
p1699
aS'animations/Stand/Reactions/SeeSomething_8'
p1700
asS'harmful'
p1701
(lp1702
S'animations/Stand/Emotions/Neutral/Mischievous_1'
p1703
asS'yawn'
p1704
(lp1705
S'animations/Sit/Waiting/Yawn_1'
p1706
asS'ethernet'
p1707
(lp1708
S'animations/Sit/Reactions/EthernetOff_1'
p1709
aS'animations/Sit/Reactions/EthernetOn_1'
p1710
aS'animations/Stand/Reactions/EthernetOff_1'
p1711
aS'animations/Stand/Reactions/EthernetOn_1'
p1712
asS'nothing'
p1713
(lp1714
S'animations/Stand/Gestures/Nothing_1'
p1715
aS'animations/Stand/Gestures/Nothing_2'
p1716
asS'knee'
p1717
(lp1718
S'animations/Sit/Waiting/KnockKnee_1'
p1719
aS'animations/Sit/Waiting/KnockKnee_2'
p1720
asS'seize'
p1721
(lp1722
S'animations/Stand/Gestures/CatchFly_1'
p1723
aS'animations/Stand/Gestures/CatchFly_2'
p1724
aS'animations/Stand/Gestures/Take_1'
p1725
asS'enthusiastic'
p1726
(lp1727
S'animations/Stand/Emotions/Positive/Enthusiastic_1'
p1728
aS'animations/Stand/Emotions/Positive/Excited_1'
p1729
aS'animations/Stand/Emotions/Positive/Excited_2'
p1730
aS'animations/Stand/Emotions/Positive/Excited_3'
p1731
aS'animations/Stand/Gestures/Enthusiastic_1'
p1732
aS'animations/Stand/Gestures/Enthusiastic_2'
p1733
aS'animations/Stand/Gestures/Enthusiastic_3'
p1734
aS'animations/Stand/Gestures/Enthusiastic_4'
p1735
aS'animations/Stand/Gestures/Enthusiastic_5'
p1736
asS'proud'
p1737
(lp1738
S'animations/Stand/Emotions/Positive/Optimistic_1'
p1739
aS'animations/Stand/Emotions/Positive/Proud_1'
p1740
aS'animations/Stand/Emotions/Positive/Proud_2'
p1741
aS'animations/Stand/Emotions/Positive/Proud_3'
p1742
aS'animations/Stand/Emotions/Positive/Sure_1'
p1743
aS'animations/Stand/Waiting/ShowMuscles_1'
p1744
aS'animations/Stand/Waiting/ShowMuscles_2'
p1745
aS'animations/Stand/Waiting/ShowMuscles_3'
p1746
aS'animations/Stand/Waiting/ShowMuscles_4'
p1747
aS'animations/Stand/Waiting/ShowMuscles_5'
p1748
asS'metal'
p1749
(lp1750
S'animations/Stand/Waiting/Headbang_1'
p1751
asS'hungry'
p1752
(lp1753
S'animations/Sit/Emotions/Positive/Hungry_1'
p1754
aS'animations/Stand/Emotions/Positive/Hungry_1'
p1755
aS'animations/Stand/Gestures/Hungry_1'
p1756
aS'animations/Stand/Gestures/Yum_1'
p1757
asS'annoyed'
p1758
(lp1759
S'animations/Stand/Emotions/Neutral/Annoyed_1'
p1760
asS'show'
p1761
(lp1762
S'animations/Sit/Gestures/You_4'
p1763
aS'animations/SitOnPod/Gestures/You_1'
p1764
aS'animations/SitOnPod/Gestures/You_2'
p1765
aS'animations/SitOnPod/Gestures/You_3'
p1766
aS'animations/SitOnPod/Gestures/You_4'
p1767
aS'animations/SitOnPod/Gestures/You_5'
p1768
aS'animations/Stand/Gestures/You_1'
p1769
aS'animations/Stand/Gestures/You_2'
p1770
aS'animations/Stand/Gestures/You_3'
p1771
aS'animations/Stand/Gestures/You_4'
p1772
aS'animations/Stand/Gestures/You_5'
p1773
asS'please'
p1774
(lp1775
S'animations/Stand/Gestures/Please_1'
p1776
aS'animations/Stand/Gestures/Please_2'
p1777
aS'animations/Stand/Gestures/Please_3'
p1778
asS'malignant'
p1779
(lp1780
S'animations/Stand/Emotions/Neutral/Mischievous_1'
p1781
asS'hide hands'
p1782
(lp1783
S'animations/Stand/Waiting/HideHands_1'
p1784
asS'earth'
p1785
(lp1786
S'animations/Stand/Gestures/ShowFloor_1'
p1787
aS'animations/Stand/Gestures/ShowFloor_2'
p1788
aS'animations/Stand/Gestures/ShowFloor_3'
p1789
aS'animations/Stand/Gestures/ShowFloor_4'
p1790
aS'animations/Stand/Gestures/ShowFloor_5'
p1791
asS'fear'
p1792
(lp1793
S'animations/Sit/Emotions/Negative/Fear_1'
p1794
aS'animations/Sit/Emotions/Negative/Surprise_1'
p1795
aS'animations/Stand/Emotions/Negative/Fear_1'
p1796
aS'animations/Stand/Emotions/Negative/Fear_2'
p1797
aS'animations/Stand/Emotions/Negative/Surprise_1'
p1798
aS'animations/Stand/Emotions/Negative/Surprise_2'
p1799
aS'animations/Stand/Emotions/Negative/Surprise_3'
p1800
asS'ground'
p1801
(lp1802
S'animations/Stand/Gestures/ShowFloor_1'
p1803
aS'animations/Stand/Gestures/ShowFloor_2'
p1804
aS'animations/Stand/Gestures/ShowFloor_3'
p1805
aS'animations/Stand/Gestures/ShowFloor_4'
p1806
aS'animations/Stand/Gestures/ShowFloor_5'
p1807
asS'enthusiast'
p1808
(lp1809
S'animations/Stand/Gestures/Applause_1'
p1810
asS'nervous'
p1811
(lp1812
S'animations/Stand/Gestures/Excited_1'
p1813
asS'explain'
p1814
(lp1815
S'animations/Stand/Gestures/Explain_1'
p1816
aS'animations/Stand/Gestures/Explain_10'
p1817
aS'animations/Stand/Gestures/Explain_11'
p1818
aS'animations/Stand/Gestures/Explain_2'
p1819
aS'animations/Stand/Gestures/Explain_3'
p1820
aS'animations/Stand/Gestures/Explain_4'
p1821
aS'animations/Stand/Gestures/Explain_5'
p1822
aS'animations/Stand/Gestures/Explain_6'
p1823
aS'animations/Stand/Gestures/Explain_7'
p1824
aS'animations/Stand/Gestures/Explain_8'
p1825
aS'animations/Stand/Gestures/Explain_9'
p1826
aS'animations/Stand/Gestures/YouKnowWhat_1'
p1827
aS'animations/Stand/Gestures/YouKnowWhat_2'
p1828
aS'animations/Stand/Gestures/YouKnowWhat_3'
p1829
aS'animations/Stand/Gestures/YouKnowWhat_4'
p1830
aS'animations/Stand/Gestures/YouKnowWhat_5'
p1831
aS'animations/Stand/Gestures/YouKnowWhat_6'
p1832
asS'winner'
p1833
(lp1834
S'animations/Sit/Emotions/Positive/Happy_1'
p1835
aS'animations/Sit/Emotions/Positive/Happy_2'
p1836
aS'animations/Sit/Emotions/Positive/Happy_3'
p1837
aS'animations/Sit/Emotions/Positive/Happy_4'
p1838
aS'animations/Sit/Emotions/Positive/Winner_1'
p1839
aS'animations/Stand/Emotions/Positive/Happy_1'
p1840
aS'animations/Stand/Emotions/Positive/Happy_2'
p1841
aS'animations/Stand/Emotions/Positive/Happy_3'
p1842
aS'animations/Stand/Emotions/Positive/Happy_4'
p1843
aS'animations/Stand/Emotions/Positive/Winner_1'
p1844
aS'animations/Stand/Emotions/Positive/Winner_2'
p1845
asS'hopeful'
p1846
(lp1847
S'animations/Stand/Emotions/Positive/Optimistic_1'
p1848
asS'bug'
p1849
(lp1850
S'animations/Sit/Waiting/KnockEye_1'
p1851
aS'animations/Stand/Waiting/KnockEye_1'
p1852
asS'coaxing'
p1853
(lp1854
S'animations/Stand/Gestures/Coaxing_1'
p1855
aS'animations/Stand/Gestures/Coaxing_2'
p1856
asS'circle'
p1857
(lp1858
S'animations/Sit/Waiting/GeoCircle_1'
p1859
aS'animations/Sit/Waiting/ZenCircles_1'
p1860
asS'hit'
p1861
(lp1862
S'animations/Sit/Emotions/Negative/Hurt_1'
p1863
aS'animations/Stand/Emotions/Negative/Hurt_1'
p1864
aS'animations/Stand/Emotions/Negative/Hurt_2'
p1865
aS'animations/Stand/Gestures/Shoot_1'
p1866
asS'get'
p1867
(lp1868
S'animations/Stand/Gestures/Take_1'
p1869
asS'beat'
p1870
(lp1871
S'animations/Sit/Emotions/Negative/Hurt_1'
p1872
aS'animations/Stand/Emotions/Negative/Hurt_1'
p1873
aS'animations/Stand/Emotions/Negative/Hurt_2'
p1874
asS'stop'
p1875
(lp1876
S'animations/Stand/Waiting/Taxi_1'
p1877
asS'whistle'
p1878
(lp1879
S'animations/Sit/Waiting/CallSomeone_1'
p1880
aS'animations/Stand/Waiting/CallSomeone_1'
p1881
asS'meditate'
p1882
(lp1883
S'animations/Sit/Waiting/Think_1'
p1884
aS'animations/Sit/Waiting/Think_2'
p1885
aS'animations/Sit/Waiting/Think_3'
p1886
aS'animations/Stand/Gestures/Thinking_1'
p1887
aS'animations/Stand/Gestures/Thinking_2'
p1888
aS'animations/Stand/Gestures/Thinking_3'
p1889
aS'animations/Stand/Gestures/Thinking_4'
p1890
aS'animations/Stand/Gestures/Thinking_5'
p1891
aS'animations/Stand/Gestures/Thinking_6'
p1892
aS'animations/Stand/Gestures/Thinking_7'
p1893
aS'animations/Stand/Gestures/Thinking_8'
p1894
aS'animations/Stand/Waiting/Think_1'
p1895
aS'animations/Stand/Waiting/Think_2'
p1896
aS'animations/Stand/Waiting/Think_3'
p1897
aS'animations/Stand/Waiting/Think_4'
p1898
asS'him'
p1899
(lp1900
S'animations/Stand/Gestures/Far_3'
p1901
asS'beseech'
p1902
(lp1903
S'animations/Stand/Gestures/Please_1'
p1904
aS'animations/Stand/Gestures/Please_2'
p1905
aS'animations/Stand/Gestures/Please_3'
p1906
asS'frustrated'
p1907
(lp1908
S'animations/Sit/Emotions/Negative/Frustrated_1'
p1909
aS'animations/Stand/Emotions/Negative/Frustrated_1'
p1910
aS'animations/Stand/Emotions/Negative/Humiliated_1'
p1911
aS'animations/Stand/Gestures/Desperate_1'
p1912
aS'animations/Stand/Gestures/Desperate_2'
p1913
aS'animations/Stand/Gestures/Desperate_3'
p1914
aS'animations/Stand/Gestures/Desperate_4'
p1915
aS'animations/Stand/Gestures/Desperate_5'
p1916
asS'cry'
p1917
(lp1918
S'animations/Sit/Emotions/Negative/Sad_1'
p1919
aS'animations/Stand/Emotions/Negative/Sad_1'
p1920
aS'animations/Stand/Emotions/Negative/Sad_2'
p1921
asS'worried'
p1922
(lp1923
S'animations/Stand/Emotions/Negative/Anxious_1'
p1924
asS'joker'
p1925
(lp1926
S'animations/Stand/Waiting/HideHands_1'
p1927
asS'bad'
p1928
(lp1929
S'animations/Stand/Emotions/Neutral/Mischievous_1'
p1930
asS'solicitous'
p1931
(lp1932
S'animations/Stand/Emotions/Neutral/Annoyed_1'
p1933
asS'steal'
p1934
(lp1935
S'animations/Stand/Gestures/Take_1'
p1936
asS'vision'
p1937
(lp1938
S'animations/Stand/Waiting/HideEyes_1'
p1939
asS'insane'
p1940
(lp1941
S'animations/Stand/Emotions/Neutral/Alienated_1'
p1942
asS'cramp'
p1943
(lp1944
S'animations/Sit/Waiting/Cramp_1'
p1945
asS'freeze'
p1946
(lp1947
S'animations/Stand/Gestures/Freeze_1'
p1948
asS'lion'
p1949
(lp1950
S'animations/Stand/Gestures/Claw_1'
p1951
aS'animations/Stand/Gestures/Claw_2'
p1952
asS'decided'
p1953
(lp1954
S'animations/Stand/Emotions/Neutral/Determined_1'
p1955
asS'desperate'
p1956
(lp1957
S'animations/Stand/Gestures/Desperate_1'
p1958
aS'animations/Stand/Gestures/Desperate_2'
p1959
aS'animations/Stand/Gestures/Desperate_3'
p1960
aS'animations/Stand/Gestures/Desperate_4'
p1961
aS'animations/Stand/Gestures/Desperate_5'
p1962
asS'tender'
p1963
(lp1964
S'animations/Stand/Gestures/Caress_2'
p1965
asS'vie en rose'
p1966
(lp1967
S'animations/Sit/Waiting/Music_VieEnRose_1'
p1968
asS'sport'
p1969
(lp1970
S'animations/Sit/Waiting/Oar_1'
p1971
aS'animations/Stand/Waiting/ShowMuscles_1'
p1972
aS'animations/Stand/Waiting/ShowMuscles_2'
p1973
aS'animations/Stand/Waiting/ShowMuscles_3'
p1974
aS'animations/Stand/Waiting/ShowMuscles_4'
p1975
aS'animations/Stand/Waiting/ShowMuscles_5'
p1976
aS'animations/Stand/Waiting/Stretch_1'
p1977
aS'animations/Stand/Waiting/Stretch_2'
p1978
aS'animations/Stand/Waiting/Stretch_3'
p1979
asS'concern'
p1980
(lp1981
S'animations/Stand/Emotions/Neutral/Cautious_1'
p1982
asS'forlorn'
p1983
(lp1984
S'animations/Stand/Gestures/Desperate_1'
p1985
aS'animations/Stand/Gestures/Desperate_2'
p1986
aS'animations/Stand/Gestures/Desperate_3'
p1987
aS'animations/Stand/Gestures/Desperate_4'
p1988
aS'animations/Stand/Gestures/Desperate_5'
p1989
asS'feline'
p1990
(lp1991
S'animations/Stand/Gestures/Claw_1'
p1992
aS'animations/Stand/Gestures/Claw_2'
p1993
asS'glaze'
p1994
(lp1995
S'animations/Stand/Gestures/Freeze_1'
p1996
asS'scratch torso'
p1997
(lp1998
S'animations/Sit/Waiting/ScratchTorso_1'
p1999
aS'animations/Stand/Waiting/ScratchTorso_1'
p2000
asS'scratch leg'
p2001
(lp2002
S'animations/Sit/Waiting/ScratchLeg_1'
p2003
aS'animations/Stand/Waiting/ScratchLeg_1'
p2004
asS'juggle'
p2005
(lp2006
S'animations/Stand/Waiting/AirJuggle_1'
p2007
asS'incomprehension'
p2008
(lp2009
S'animations/Stand/Emotions/Negative/Shocked_1'
p2010
asS'joy'
p2011
(lp2012
S'animations/Stand/Gestures/Joy_1'
p2013
asS'attention'
p2014
(lp2015
S'animations/Stand/Emotions/Neutral/Cautious_1'
p2016
asS'guitar'
p2017
(lp2018
S'animations/Stand/Waiting/AirGuitar_1'
p2019
asS'love you'
p2020
(lp2021
S'animations/Stand/Waiting/LoveYou_1'
p2022
asS'monitor'
p2023
(lp2024
S'animations/Stand/Gestures/Look_1'
p2025
aS'animations/Stand/Gestures/Look_2'
p2026
asS'undetermined'
p2027
(lp2028
S'animations/Stand/Gestures/IDontKnow_1'
p2029
aS'animations/Stand/Gestures/IDontKnow_2'
p2030
aS'animations/Stand/Gestures/IDontKnow_3'
p2031
aS'animations/Stand/Gestures/IDontKnow_4'
p2032
aS'animations/Stand/Gestures/IDontKnow_5'
p2033
aS'animations/Stand/Gestures/IDontKnow_6'
p2034
asS'protect'
p2035
(lp2036
S'animations/Stand/Emotions/Negative/Fearful_1'
p2037
asS'joke'
p2038
(lp2039
S'animations/Sit/Waiting/AutoFormat_1'
p2040
aS'animations/Sit/Waiting/FalseStop_1'
p2041
aS'animations/Sit/Waiting/FalseStop_2'
p2042
aS'animations/Sit/Waiting/Phone_1'
p2043
aS'animations/Sit/Waiting/Puppet_1'
p2044
aS'animations/Stand/Waiting/HideHands_1'
p2045
asS'show muscles'
p2046
(lp2047
S'animations/Stand/Waiting/ShowMuscles_1'
p2048
aS'animations/Stand/Waiting/ShowMuscles_2'
p2049
aS'animations/Stand/Waiting/ShowMuscles_3'
p2050
aS'animations/Stand/Waiting/ShowMuscles_4'
p2051
aS'animations/Stand/Waiting/ShowMuscles_5'
p2052
asS'quiet'
p2053
(lp2054
S'animations/Stand/Emotions/Positive/Peaceful_1'
p2055
aS'animations/Stand/Gestures/CalmDown_1'
p2056
aS'animations/Stand/Gestures/CalmDown_2'
p2057
aS'animations/Stand/Gestures/CalmDown_3'
p2058
aS'animations/Stand/Gestures/CalmDown_4'
p2059
aS'animations/Stand/Gestures/CalmDown_5'
p2060
aS'animations/Stand/Gestures/CalmDown_6'
p2061
asS'demur'
p2062
(lp2063
S'animations/Stand/Emotions/Neutral/Hesitation_1'
p2064
asS'vexed'
p2065
(lp2066
S'animations/Sit/Emotions/Negative/Angry_1'
p2067
aS'animations/Stand/Emotions/Negative/Angry_1'
p2068
aS'animations/Stand/Emotions/Negative/Angry_2'
p2069
aS'animations/Stand/Emotions/Negative/Angry_3'
p2070
aS'animations/Stand/Emotions/Negative/Angry_4'
p2071
asS'color'
p2072
(lp2073
S'animations/Sit/Reactions/SeeColor_1'
p2074
aS'animations/Sit/Reactions/SeeColor_2'
p2075
aS'animations/Sit/Reactions/SeeColor_3'
p2076
aS'animations/Stand/Reactions/SeeColor_1'
p2077
aS'animations/Stand/Reactions/SeeColor_2'
p2078
aS'animations/Stand/Reactions/SeeColor_3'
p2079
asS'sky'
p2080
(lp2081
S'animations/Stand/Gestures/ShowSky_1'
p2082
aS'animations/Stand/Gestures/ShowSky_10'
p2083
aS'animations/Stand/Gestures/ShowSky_11'
p2084
aS'animations/Stand/Gestures/ShowSky_12'
p2085
aS'animations/Stand/Gestures/ShowSky_2'
p2086
aS'animations/Stand/Gestures/ShowSky_3'
p2087
aS'animations/Stand/Gestures/ShowSky_4'
p2088
aS'animations/Stand/Gestures/ShowSky_5'
p2089
aS'animations/Stand/Gestures/ShowSky_6'
p2090
aS'animations/Stand/Gestures/ShowSky_7'
p2091
aS'animations/Stand/Gestures/ShowSky_8'
p2092
aS'animations/Stand/Gestures/ShowSky_9'
p2093
aS'animations/Stand/Waiting/ShowSky_1'
p2094
aS'animations/Stand/Waiting/ShowSky_2'
p2095
asS'inquisitive'
p2096
(lp2097
S'animations/Stand/Emotions/Positive/Interested_1'
p2098
aS'animations/Stand/Emotions/Positive/Interested_2'
p2099
asS'laugh'
p2100
(lp2101
S'animations/Sit/Emotions/Positive/Laugh_1'
p2102
aS'animations/Sit/Emotions/Positive/Laugh_2'
p2103
aS'animations/Sit/Emotions/Positive/Mocker_1'
p2104
aS'animations/Stand/Emotions/Positive/Amused_1'
p2105
aS'animations/Stand/Emotions/Positive/Laugh_1'
p2106
aS'animations/Stand/Emotions/Positive/Laugh_2'
p2107
aS'animations/Stand/Emotions/Positive/Laugh_3'
p2108
aS'animations/Stand/Emotions/Positive/Mocker_1'
p2109
asS'boat'
p2110
(lp2111
S'animations/Sit/Waiting/Oar_1'
p2112
asS'raring'
p2113
(lp2114
S'animations/Stand/Gestures/Enthusiastic_1'
p2115
aS'animations/Stand/Gestures/Enthusiastic_2'
p2116
aS'animations/Stand/Gestures/Enthusiastic_3'
p2117
aS'animations/Stand/Gestures/Enthusiastic_4'
p2118
aS'animations/Stand/Gestures/Enthusiastic_5'
p2119
asS'see something'
p2120
(lp2121
S'animations/Stand/Reactions/SeeSomething_1'
p2122
asS'bewilder'
p2123
(lp2124
S'animations/SitOnPod/Gestures/WhatSThis_1'
p2125
aS'animations/SitOnPod/Gestures/WhatSThis_10'
p2126
aS'animations/SitOnPod/Gestures/WhatSThis_11'
p2127
aS'animations/SitOnPod/Gestures/WhatSThis_12'
p2128
aS'animations/SitOnPod/Gestures/WhatSThis_13'
p2129
aS'animations/SitOnPod/Gestures/WhatSThis_14'
p2130
aS'animations/SitOnPod/Gestures/WhatSThis_15'
p2131
aS'animations/SitOnPod/Gestures/WhatSThis_16'
p2132
aS'animations/SitOnPod/Gestures/WhatSThis_2'
p2133
aS'animations/SitOnPod/Gestures/WhatSThis_3'
p2134
aS'animations/SitOnPod/Gestures/WhatSThis_4'
p2135
aS'animations/SitOnPod/Gestures/WhatSThis_5'
p2136
aS'animations/SitOnPod/Gestures/WhatSThis_6'
p2137
aS'animations/SitOnPod/Gestures/WhatSThis_7'
p2138
aS'animations/SitOnPod/Gestures/WhatSThis_8'
p2139
aS'animations/SitOnPod/Gestures/WhatSThis_9'
p2140
aS'animations/Stand/Gestures/WhatSThis_1'
p2141
aS'animations/Stand/Gestures/WhatSThis_10'
p2142
aS'animations/Stand/Gestures/WhatSThis_11'
p2143
aS'animations/Stand/Gestures/WhatSThis_12'
p2144
aS'animations/Stand/Gestures/WhatSThis_13'
p2145
aS'animations/Stand/Gestures/WhatSThis_14'
p2146
aS'animations/Stand/Gestures/WhatSThis_15'
p2147
aS'animations/Stand/Gestures/WhatSThis_16'
p2148
aS'animations/Stand/Gestures/WhatSThis_2'
p2149
aS'animations/Stand/Gestures/WhatSThis_3'
p2150
aS'animations/Stand/Gestures/WhatSThis_4'
p2151
aS'animations/Stand/Gestures/WhatSThis_5'
p2152
aS'animations/Stand/Gestures/WhatSThis_6'
p2153
aS'animations/Stand/Gestures/WhatSThis_7'
p2154
aS'animations/Stand/Gestures/WhatSThis_8'
p2155
aS'animations/Stand/Gestures/WhatSThis_9'
p2156
asS'stretch'
p2157
(lp2158
S'animations/Sit/Waiting/Relaxation_1'
p2159
aS'animations/Sit/Waiting/Relaxation_2'
p2160
aS'animations/Sit/Waiting/Relaxation_3'
p2161
aS'animations/Stand/Gestures/Stretch_1'
p2162
aS'animations/Stand/Gestures/Stretch_2'
p2163
aS'animations/Stand/Waiting/Relaxation_1'
p2164
aS'animations/Stand/Waiting/Relaxation_2'
p2165
aS'animations/Stand/Waiting/Stretch_1'
p2166
aS'animations/Stand/Waiting/Stretch_2'
p2167
aS'animations/Stand/Waiting/Stretch_3'
p2168
aS'animations/Stand/Waiting/WakeUp_1'
p2169
asS'three'
p2170
(lp2171
S'animations/SitOnPod/Gestures/CountThree_1'
p2172
aS'animations/SitOnPod/Gestures/CountThree_2'
p2173
aS'animations/Stand/Gestures/CountThree_1'
p2174
aS'animations/Stand/Gestures/CountThree_2'
p2175
asS'confident'
p2176
(lp2177
S'animations/Stand/Emotions/Positive/Confident_1'
p2178
aS'animations/Stand/Emotions/Positive/Sure_1'
p2179
asS'peaceful'
p2180
(lp2181
S'animations/Stand/Emotions/Positive/Peaceful_1'
p2182
asS'helicopter'
p2183
(lp2184
S'animations/Stand/Waiting/Helicopter_1'
p2185
asS'empty'
p2186
(lp2187
S'animations/Stand/Gestures/Nothing_1'
p2188
aS'animations/Stand/Gestures/Nothing_2'
p2189
asS'wheedle'
p2190
(lp2191
S'animations/Stand/Gestures/Coaxing_1'
p2192
aS'animations/Stand/Gestures/Coaxing_2'
p2193
asS'tiger'
p2194
(lp2195
S'animations/Stand/Gestures/Claw_1'
p2196
aS'animations/Stand/Gestures/Claw_2'
p2197
asS'observe'
p2198
(lp2199
S'animations/Sit/Reactions/SeeColor_1'
p2200
aS'animations/Sit/Reactions/SeeColor_2'
p2201
aS'animations/Sit/Reactions/SeeColor_3'
p2202
aS'animations/Stand/Reactions/SeeColor_1'
p2203
aS'animations/Stand/Reactions/SeeColor_2'
p2204
aS'animations/Stand/Reactions/SeeColor_3'
p2205
asS'catch'
p2206
(lp2207
S'animations/Stand/Gestures/CatchFly_1'
p2208
aS'animations/Stand/Gestures/CatchFly_2'
p2209
asS'sad'
p2210
(lp2211
S'animations/Sit/Emotions/Negative/Sad_1'
p2212
aS'animations/Stand/Emotions/Negative/Sad_1'
p2213
aS'animations/Stand/Emotions/Negative/Sad_2'
p2214
aS'animations/Stand/Emotions/Neutral/Lonely_1'
p2215
aS'animations/Stand/Gestures/Desperate_1'
p2216
aS'animations/Stand/Gestures/Desperate_2'
p2217
aS'animations/Stand/Gestures/Desperate_3'
p2218
aS'animations/Stand/Gestures/Desperate_4'
p2219
aS'animations/Stand/Gestures/Desperate_5'
p2220
asS'present'
p2221
(lp2222
S'animations/Stand/Gestures/Explain_1'
p2223
aS'animations/Stand/Gestures/Explain_10'
p2224
aS'animations/Stand/Gestures/Explain_11'
p2225
aS'animations/Stand/Gestures/Explain_2'
p2226
aS'animations/Stand/Gestures/Explain_3'
p2227
aS'animations/Stand/Gestures/Explain_4'
p2228
aS'animations/Stand/Gestures/Explain_5'
p2229
aS'animations/Stand/Gestures/Explain_6'
p2230
aS'animations/Stand/Gestures/Explain_7'
p2231
aS'animations/Stand/Gestures/Explain_8'
p2232
aS'animations/Stand/Gestures/Explain_9'
p2233
aS'animations/Stand/Gestures/Give_1'
p2234
aS'animations/Stand/Gestures/Give_2'
p2235
aS'animations/Stand/Gestures/Give_3'
p2236
aS'animations/Stand/Gestures/Give_4'
p2237
aS'animations/Stand/Gestures/Give_5'
p2238
aS'animations/Stand/Gestures/Give_6'
p2239
asS'myself'
p2240
(lp2241
S'animations/Sit/Gestures/Me_7'
p2242
aS'animations/SitOnPod/Gestures/Me_1'
p2243
aS'animations/SitOnPod/Gestures/Me_2'
p2244
aS'animations/SitOnPod/Gestures/Me_4'
p2245
aS'animations/SitOnPod/Gestures/Me_7'
p2246
aS'animations/SitOnPod/Gestures/Me_8'
p2247
aS'animations/Stand/Gestures/Me_1'
p2248
aS'animations/Stand/Gestures/Me_2'
p2249
aS'animations/Stand/Gestures/Me_3'
p2250
aS'animations/Stand/Gestures/Me_4'
p2251
aS'animations/Stand/Gestures/Me_5'
p2252
aS'animations/Stand/Gestures/Me_6'
p2253
aS'animations/Stand/Gestures/Me_7'
p2254
aS'animations/Stand/Gestures/Me_8'
p2255
asS'look'
p2256
(lp2257
S'animations/Stand/Gestures/Look_1'
p2258
aS'animations/Stand/Gestures/Look_2'
p2259
asS'fearful'
p2260
(lp2261
S'animations/Stand/Emotions/Negative/Fearful_1'
p2262
asS'single'
p2263
(lp2264
S'animations/Stand/Emotions/Neutral/Lonely_1'
p2265
asS'joyful'
p2266
(lp2267
S'animations/Sit/Emotions/Positive/Happy_1'
p2268
aS'animations/Sit/Emotions/Positive/Happy_2'
p2269
aS'animations/Sit/Emotions/Positive/Happy_3'
p2270
aS'animations/Sit/Emotions/Positive/Happy_4'
p2271
aS'animations/Stand/Emotions/Positive/Happy_1'
p2272
aS'animations/Stand/Emotions/Positive/Happy_2'
p2273
aS'animations/Stand/Emotions/Positive/Happy_3'
p2274
aS'animations/Stand/Emotions/Positive/Happy_4'
p2275
asS'evening'
p2276
(lp2277
S'animations/Stand/Gestures/OnTheEvening_1'
p2278
aS'animations/Stand/Gestures/OnTheEvening_2'
p2279
aS'animations/Stand/Gestures/OnTheEvening_3'
p2280
aS'animations/Stand/Gestures/OnTheEvening_4'
p2281
aS'animations/Stand/Gestures/OnTheEvening_5'
p2282
asS'surprised'
p2283
(lp2284
S'animations/Sit/Emotions/Negative/Fear_1'
p2285
aS'animations/Sit/Emotions/Negative/Surprise_1'
p2286
aS'animations/Stand/Emotions/Negative/Fear_1'
p2287
aS'animations/Stand/Emotions/Negative/Fear_2'
p2288
aS'animations/Stand/Emotions/Negative/Surprise_1'
p2289
aS'animations/Stand/Emotions/Negative/Surprise_2'
p2290
aS'animations/Stand/Emotions/Negative/Surprise_3'
p2291
aS'animations/Stand/Gestures/Surprised_1'
p2292
asS'wild'
p2293
(lp2294
S'animations/Sit/Emotions/Positive/Shy_1'
p2295
aS'animations/Stand/Emotions/Positive/Shy_1'
p2296
aS'animations/Stand/Emotions/Positive/Shy_2'
p2297
aS'animations/Stand/Gestures/Shy_1'
p2298
asS'tall'
p2299
(lp2300
S'animations/Stand/Gestures/ShowSky_1'
p2301
aS'animations/Stand/Gestures/ShowSky_10'
p2302
aS'animations/Stand/Gestures/ShowSky_11'
p2303
aS'animations/Stand/Gestures/ShowSky_12'
p2304
aS'animations/Stand/Gestures/ShowSky_2'
p2305
aS'animations/Stand/Gestures/ShowSky_3'
p2306
aS'animations/Stand/Gestures/ShowSky_4'
p2307
aS'animations/Stand/Gestures/ShowSky_5'
p2308
aS'animations/Stand/Gestures/ShowSky_6'
p2309
aS'animations/Stand/Gestures/ShowSky_7'
p2310
aS'animations/Stand/Gestures/ShowSky_8'
p2311
aS'animations/Stand/Gestures/ShowSky_9'
p2312
asS'dazzled'
p2313
(lp2314
S'animations/Sit/Reactions/LightShine_1'
p2315
aS'animations/Sit/Reactions/LightShine_2'
p2316
aS'animations/Sit/Reactions/LightShine_3'
p2317
aS'animations/Sit/Reactions/LightShine_4'
p2318
aS'animations/Stand/Reactions/LightShine_1'
p2319
aS'animations/Stand/Reactions/LightShine_2'
p2320
aS'animations/Stand/Reactions/LightShine_3'
p2321
aS'animations/Stand/Reactions/LightShine_4'
p2322
asS'dizzy'
p2323
(lp2324
S'animations/Sit/Reactions/ShakeBody_1'
p2325
aS'animations/Sit/Reactions/ShakeBody_2'
p2326
aS'animations/Sit/Reactions/ShakeBody_3'
p2327
aS'animations/Stand/Reactions/ShakeBody_1'
p2328
aS'animations/Stand/Reactions/ShakeBody_2'
p2329
aS'animations/Stand/Reactions/ShakeBody_3'
p2330
asS'optimistic'
p2331
(lp2332
S'animations/Stand/Emotions/Positive/Optimistic_1'
p2333
asS'scratch bottom'
p2334
(lp2335
S'animations/Stand/Waiting/ScratchBottom_1'
p2336
asS'worry'
p2337
(lp2338
S'animations/Stand/Emotions/Neutral/Cautious_1'
p2339
asS'capture'
p2340
(lp2341
S'animations/Stand/Gestures/CatchFly_1'
p2342
aS'animations/Stand/Gestures/CatchFly_2'
p2343
aS'animations/Stand/Gestures/Take_1'
p2344
asS'perhaps'
p2345
(lp2346
S'animations/Stand/Gestures/Maybe_1'
p2347
asS'linked'
p2348
(lp2349
S'animations/Stand/Gestures/JointHands_1'
p2350
aS'animations/Stand/Gestures/JointHands_2'
p2351
aS'animations/Stand/Gestures/JointHands_3'
p2352
asS'agitated'
p2353
(lp2354
S'animations/Stand/Emotions/Positive/Excited_1'
p2355
aS'animations/Stand/Emotions/Positive/Excited_2'
p2356
aS'animations/Stand/Emotions/Positive/Excited_3'
p2357
aS'animations/Stand/Gestures/Excited_1'
p2358
asS'shuttle'
p2359
(lp2360
S'animations/Stand/Waiting/SpaceShuttle_1'
p2361
asS'party'
p2362
(lp2363
S'animations/Stand/Waiting/HappyBirthday_1'
p2364
asS'see'
p2365
(lp2366
S'animations/Sit/Reactions/SeeColor_1'
p2367
aS'animations/Sit/Reactions/SeeColor_2'
p2368
aS'animations/Sit/Reactions/SeeColor_3'
p2369
aS'animations/Stand/Gestures/Look_1'
p2370
aS'animations/Stand/Gestures/Look_2'
p2371
aS'animations/Stand/Reactions/SeeColor_1'
p2372
aS'animations/Stand/Reactions/SeeColor_2'
p2373
aS'animations/Stand/Reactions/SeeColor_3'
p2374
aS'animations/Stand/Reactions/SeeSomething_3'
p2375
aS'animations/Stand/Reactions/SeeSomething_4'
p2376
aS'animations/Stand/Reactions/SeeSomething_5'
p2377
aS'animations/Stand/Reactions/SeeSomething_6'
p2378
aS'animations/Stand/Reactions/SeeSomething_7'
p2379
aS'animations/Stand/Reactions/SeeSomething_8'
p2380
asS'I'
p2381
(lp2382
S'animations/Sit/Gestures/Me_7'
p2383
aS'animations/SitOnPod/Gestures/Me_1'
p2384
aS'animations/SitOnPod/Gestures/Me_2'
p2385
aS'animations/SitOnPod/Gestures/Me_4'
p2386
aS'animations/SitOnPod/Gestures/Me_7'
p2387
aS'animations/SitOnPod/Gestures/Me_8'
p2388
aS'animations/Stand/Gestures/Me_1'
p2389
aS'animations/Stand/Gestures/Me_2'
p2390
aS'animations/Stand/Gestures/Me_3'
p2391
aS'animations/Stand/Gestures/Me_4'
p2392
aS'animations/Stand/Gestures/Me_5'
p2393
aS'animations/Stand/Gestures/Me_6'
p2394
aS'animations/Stand/Gestures/Me_7'
p2395
aS'animations/Stand/Gestures/Me_8'
p2396
asS'drink'
p2397
(lp2398
S'animations/Stand/Waiting/Drink_1'
p2399
asS'binoculars'
p2400
(lp2401
S'animations/Sit/Waiting/Binoculars_1'
p2402
aS'animations/Stand/Waiting/Binoculars_1'
p2403
asS'discouraged'
p2404
(lp2405
S'animations/Sit/Emotions/Negative/Sad_1'
p2406
aS'animations/Stand/Emotions/Negative/Sad_1'
p2407
aS'animations/Stand/Emotions/Negative/Sad_2'
p2408
asS'fierce'
p2409
(lp2410
S'animations/Stand/Emotions/Neutral/Determined_1'
p2411
aS'animations/Stand/Emotions/Neutral/Stubborn_1'
p2412
asS'timid'
p2413
(lp2414
S'animations/Sit/Emotions/Positive/Shy_1'
p2415
aS'animations/Stand/Emotions/Neutral/Embarrassed_1'
p2416
aS'animations/Stand/Emotions/Positive/Shy_1'
p2417
aS'animations/Stand/Emotions/Positive/Shy_2'
p2418
aS'animations/Stand/Gestures/Shy_1'
p2419
asS'weird'
p2420
(lp2421
S'animations/Stand/Reactions/SeeSomething_1'
p2422
asS'puzzling'
p2423
(lp2424
S'animations/Stand/Emotions/Positive/Interested_1'
p2425
aS'animations/Stand/Emotions/Positive/Interested_2'
p2426
asS'odium'
p2427
(lp2428
S'animations/Stand/Gestures/Reject_1'
p2429
aS'animations/Stand/Gestures/Reject_2'
p2430
aS'animations/Stand/Gestures/Reject_3'
p2431
aS'animations/Stand/Gestures/Reject_4'
p2432
aS'animations/Stand/Gestures/Reject_5'
p2433
aS'animations/Stand/Gestures/Reject_6'
p2434
asS'off'
p2435
(lp2436
S'animations/Sit/Reactions/EthernetOff_1'
p2437
aS'animations/Stand/Reactions/EthernetOff_1'
p2438
asS'no'
p2439
(lp2440
S'animations/SitOnPod/Gestures/No_1'
p2441
aS'animations/SitOnPod/Gestures/No_2'
p2442
aS'animations/SitOnPod/Gestures/No_3'
p2443
aS'animations/SitOnPod/Gestures/No_4'
p2444
aS'animations/SitOnPod/Gestures/No_5'
p2445
aS'animations/SitOnPod/Gestures/No_6'
p2446
aS'animations/SitOnPod/Gestures/No_7'
p2447
aS'animations/SitOnPod/Gestures/No_8'
p2448
aS'animations/SitOnPod/Gestures/No_9'
p2449
aS'animations/Stand/Gestures/No_1'
p2450
aS'animations/Stand/Gestures/No_2'
p2451
aS'animations/Stand/Gestures/No_3'
p2452
aS'animations/Stand/Gestures/No_4'
p2453
aS'animations/Stand/Gestures/No_5'
p2454
aS'animations/Stand/Gestures/No_6'
p2455
aS'animations/Stand/Gestures/No_7'
p2456
aS'animations/Stand/Gestures/No_8'
p2457
aS'animations/Stand/Gestures/No_9'
p2458
asS'edgy'
p2459
(lp2460
S'animations/Sit/Emotions/Negative/Angry_1'
p2461
aS'animations/Stand/Emotions/Negative/Angry_1'
p2462
aS'animations/Stand/Emotions/Negative/Angry_2'
p2463
aS'animations/Stand/Emotions/Negative/Angry_3'
p2464
aS'animations/Stand/Emotions/Negative/Angry_4'
p2465
asS'muscle'
p2466
(lp2467
S'animations/Sit/Waiting/Fitness_1'
p2468
aS'animations/Stand/Waiting/Fitness_1'
p2469
aS'animations/Stand/Waiting/Fitness_2'
p2470
aS'animations/Stand/Waiting/Fitness_3'
p2471
asS'psst'
p2472
(lp2473
S'animations/Sit/Emotions/Neutral/AskForAttention_1'
p2474
aS'animations/Stand/Emotions/Neutral/AskForAttention_1'
p2475
asS'left'
p2476
(lp2477
S'animations/Sit/Reactions/BumperLeft_1'
p2478
aS'animations/Stand/Reactions/BumperLeft_1'
p2479
asS'taxi'
p2480
(lp2481
S'animations/Stand/Waiting/Taxi_1'
p2482
asS'appease'
p2483
(lp2484
S'animations/Stand/Gestures/CalmDown_1'
p2485
aS'animations/Stand/Gestures/CalmDown_2'
p2486
aS'animations/Stand/Gestures/CalmDown_3'
p2487
aS'animations/Stand/Gestures/CalmDown_4'
p2488
aS'animations/Stand/Gestures/CalmDown_5'
p2489
aS'animations/Stand/Gestures/CalmDown_6'
p2490
asS'photo'
p2491
(lp2492
S'animations/Sit/Waiting/TakePicture_1'
p2493
aS'animations/Stand/Waiting/TakePicture_1'
p2494
asS'sleepy'
p2495
(lp2496
S'animations/Sit/Waiting/Yawn_1'
p2497
asS'rest'
p2498
(lp2499
S'animations/Sit/Waiting/Rest_1'
p2500
aS'animations/Stand/Waiting/Rest_1'
p2501
asS'kung fu'
p2502
(lp2503
S'animations/Stand/Waiting/KungFu_1'
p2504
asS'touch'
p2505
(lp2506
S'animations/Sit/Reactions/BumperLeft_1'
p2507
aS'animations/Sit/Reactions/BumperRight_1'
p2508
aS'animations/Sit/Reactions/Bumpers_1'
p2509
aS'animations/Sit/Reactions/Bumpers_2'
p2510
aS'animations/Sit/Reactions/Bumpers_3'
p2511
aS'animations/Sit/Reactions/TouchHead_1'
p2512
aS'animations/Sit/Reactions/TouchHead_2'
p2513
aS'animations/Sit/Reactions/TouchHead_3'
p2514
aS'animations/Sit/Reactions/TouchHead_4'
p2515
aS'animations/Stand/Reactions/BumperLeft_1'
p2516
aS'animations/Stand/Reactions/BumperRight_1'
p2517
aS'animations/Stand/Reactions/Bumpers_1'
p2518
aS'animations/Stand/Reactions/Bumpers_2'
p2519
aS'animations/Stand/Reactions/Bumpers_3'
p2520
aS'animations/Stand/Reactions/TouchHead_1'
p2521
aS'animations/Stand/Reactions/TouchHead_2'
p2522
aS'animations/Stand/Reactions/TouchHead_3'
p2523
aS'animations/Stand/Reactions/TouchHead_4'
p2524
asS'yes'
p2525
(lp2526
S'animations/SitOnPod/Gestures/Yes_1'
p2527
aS'animations/SitOnPod/Gestures/Yes_2'
p2528
aS'animations/SitOnPod/Gestures/Yes_3'
p2529
aS'animations/Stand/Gestures/Yes_1'
p2530
aS'animations/Stand/Gestures/Yes_2'
p2531
aS'animations/Stand/Gestures/Yes_3'
p2532
asS'afflicted'
p2533
(lp2534
S'animations/Sit/Emotions/Negative/Sad_1'
p2535
aS'animations/Stand/Emotions/Negative/Sad_1'
p2536
aS'animations/Stand/Emotions/Negative/Sad_2'
p2537
asS'rapturous'
p2538
(lp2539
S'animations/Stand/Emotions/Positive/Enthusiastic_1'
p2540
aS'animations/Stand/Gestures/Enthusiastic_1'
p2541
aS'animations/Stand/Gestures/Enthusiastic_2'
p2542
aS'animations/Stand/Gestures/Enthusiastic_3'
p2543
aS'animations/Stand/Gestures/Enthusiastic_4'
p2544
aS'animations/Stand/Gestures/Enthusiastic_5'
p2545
asS'thinking'
p2546
(lp2547
S'animations/Stand/Emotions/Neutral/Puzzled_1'
p2548
asS'attemper'
p2549
(lp2550
S'animations/Stand/Gestures/CalmDown_1'
p2551
aS'animations/Stand/Gestures/CalmDown_2'
p2552
aS'animations/Stand/Gestures/CalmDown_3'
p2553
aS'animations/Stand/Gestures/CalmDown_4'
p2554
aS'animations/Stand/Gestures/CalmDown_5'
p2555
aS'animations/Stand/Gestures/CalmDown_6'
p2556
asS'except'
p2557
(lp2558
S'animations/Stand/Gestures/But_1'
p2559
asS'other'
p2560
(lp2561
S'animations/Stand/Gestures/Next_1'
p2562
asS'astonishment'
p2563
(lp2564
S'animations/SitOnPod/Gestures/WhatSThis_1'
p2565
aS'animations/SitOnPod/Gestures/WhatSThis_10'
p2566
aS'animations/SitOnPod/Gestures/WhatSThis_11'
p2567
aS'animations/SitOnPod/Gestures/WhatSThis_12'
p2568
aS'animations/SitOnPod/Gestures/WhatSThis_13'
p2569
aS'animations/SitOnPod/Gestures/WhatSThis_14'
p2570
aS'animations/SitOnPod/Gestures/WhatSThis_15'
p2571
aS'animations/SitOnPod/Gestures/WhatSThis_16'
p2572
aS'animations/SitOnPod/Gestures/WhatSThis_2'
p2573
aS'animations/SitOnPod/Gestures/WhatSThis_3'
p2574
aS'animations/SitOnPod/Gestures/WhatSThis_4'
p2575
aS'animations/SitOnPod/Gestures/WhatSThis_5'
p2576
aS'animations/SitOnPod/Gestures/WhatSThis_6'
p2577
aS'animations/SitOnPod/Gestures/WhatSThis_7'
p2578
aS'animations/SitOnPod/Gestures/WhatSThis_8'
p2579
aS'animations/SitOnPod/Gestures/WhatSThis_9'
p2580
aS'animations/Stand/Gestures/WhatSThis_1'
p2581
aS'animations/Stand/Gestures/WhatSThis_10'
p2582
aS'animations/Stand/Gestures/WhatSThis_11'
p2583
aS'animations/Stand/Gestures/WhatSThis_12'
p2584
aS'animations/Stand/Gestures/WhatSThis_13'
p2585
aS'animations/Stand/Gestures/WhatSThis_14'
p2586
aS'animations/Stand/Gestures/WhatSThis_15'
p2587
aS'animations/Stand/Gestures/WhatSThis_16'
p2588
aS'animations/Stand/Gestures/WhatSThis_2'
p2589
aS'animations/Stand/Gestures/WhatSThis_3'
p2590
aS'animations/Stand/Gestures/WhatSThis_4'
p2591
aS'animations/Stand/Gestures/WhatSThis_5'
p2592
aS'animations/Stand/Gestures/WhatSThis_6'
p2593
aS'animations/Stand/Gestures/WhatSThis_7'
p2594
aS'animations/Stand/Gestures/WhatSThis_8'
p2595
aS'animations/Stand/Gestures/WhatSThis_9'
p2596
asS'innocent'
p2597
(lp2598
S'animations/Stand/Emotions/Neutral/Innocent_1'
p2599
aS'animations/Stand/Waiting/Innocent_1'
p2600
asS'sweet'
p2601
(lp2602
S'animations/Stand/Gestures/Caress_2'
p2603
asS'cogitate'
p2604
(lp2605
S'animations/Sit/Waiting/Think_1'
p2606
aS'animations/Sit/Waiting/Think_2'
p2607
aS'animations/Sit/Waiting/Think_3'
p2608
aS'animations/Stand/Waiting/Think_1'
p2609
aS'animations/Stand/Waiting/Think_2'
p2610
aS'animations/Stand/Waiting/Think_3'
p2611
aS'animations/Stand/Waiting/Think_4'
p2612
asS'excited'
p2613
(lp2614
S'animations/Stand/Emotions/Positive/Excited_1'
p2615
aS'animations/Stand/Emotions/Positive/Excited_2'
p2616
aS'animations/Stand/Emotions/Positive/Excited_3'
p2617
aS'animations/Stand/Emotions/Positive/Hysterical_1'
p2618
aS'animations/Stand/Gestures/Excited_1'
p2619
asS'kick'
p2620
(lp2621
S'animations/Stand/Gestures/Shoot_1'
p2622
asS'whew'
p2623
(lp2624
S'animations/Stand/Emotions/Positive/Relieved_1'
p2625
asS'resolved'
p2626
(lp2627
S'animations/Stand/Emotions/Neutral/Determined_1'
p2628
asS'hide'
p2629
(lp2630
S'animations/Stand/Gestures/Hide_1'
p2631
asS'walk in the shit'
p2632
(lp2633
S'animations/Stand/Waiting/WalkInTheShit_1'
p2634
asS'game'
p2635
(lp2636
S'animations/Sit/Waiting/Pong_1'
p2637
asS'five'
p2638
(lp2639
S'animations/Stand/Gestures/CountFive_1'
p2640
aS'animations/Stand/Gestures/CountFive_2'
p2641
asS'vacuum'
p2642
(lp2643
S'animations/Stand/Waiting/Vacuum_1'
p2644
asS'disappointed'
p2645
(lp2646
S'animations/Sit/Emotions/Negative/Frustrated_1'
p2647
aS'animations/Stand/Emotions/Negative/Disappointed_1'
p2648
aS'animations/Stand/Emotions/Negative/Frustrated_1'
p2649
aS'animations/Stand/Emotions/Negative/Humiliated_1'
p2650
aS'animations/Stand/Gestures/Desperate_1'
p2651
aS'animations/Stand/Gestures/Desperate_2'
p2652
aS'animations/Stand/Gestures/Desperate_3'
p2653
aS'animations/Stand/Gestures/Desperate_4'
p2654
aS'animations/Stand/Gestures/Desperate_5'
p2655
asS'distrustful'
p2656
(lp2657
S'animations/Stand/Emotions/Neutral/Suspicious_1'
p2658
asS'knock'
p2659
(lp2660
S'animations/Sit/Emotions/Negative/Hurt_1'
p2661
aS'animations/Sit/Waiting/KnockKnee_1'
p2662
aS'animations/Sit/Waiting/KnockKnee_2'
p2663
aS'animations/Stand/Emotions/Negative/Hurt_1'
p2664
aS'animations/Stand/Emotions/Negative/Hurt_2'
p2665
asS'gift'
p2666
(lp2667
S'animations/Stand/Gestures/Give_1'
p2668
aS'animations/Stand/Gestures/Give_2'
p2669
aS'animations/Stand/Gestures/Give_3'
p2670
aS'animations/Stand/Gestures/Give_4'
p2671
aS'animations/Stand/Gestures/Give_5'
p2672
aS'animations/Stand/Gestures/Give_6'
p2673
asS'lost'
p2674
(lp2675
S'animations/Stand/Emotions/Neutral/Lonely_1'
p2676
aS'animations/Stand/Gestures/Confused_1'
p2677
aS'animations/Stand/Gestures/Confused_2'
p2678
asS'nosy'
p2679
(lp2680
S'animations/Stand/Emotions/Positive/Interested_1'
p2681
aS'animations/Stand/Emotions/Positive/Interested_2'
p2682
asS'mistrustful'
p2683
(lp2684
S'animations/Stand/Emotions/Neutral/Suspicious_1'
p2685
asS'clown'
p2686
(lp2687
S'animations/Stand/Waiting/AirJuggle_1'
p2688
asS'continue'
p2689
(lp2690
S'animations/Stand/Gestures/Follow_1'
p2691
asS'night'
p2692
(lp2693
S'animations/Stand/Gestures/OnTheEvening_1'
p2694
aS'animations/Stand/Gestures/OnTheEvening_2'
p2695
aS'animations/Stand/Gestures/OnTheEvening_3'
p2696
aS'animations/Stand/Gestures/OnTheEvening_4'
p2697
aS'animations/Stand/Gestures/OnTheEvening_5'
p2698
asS'claw'
p2699
(lp2700
S'animations/Stand/Gestures/Claw_1'
p2701
aS'animations/Stand/Gestures/Claw_2'
p2702
asS'repressed'
p2703
(lp2704
S'animations/Sit/Emotions/Negative/Frustrated_1'
p2705
aS'animations/Stand/Emotions/Negative/Frustrated_1'
p2706
aS'animations/Stand/Emotions/Negative/Humiliated_1'
p2707
asS'soft'
p2708
(lp2709
S'animations/Stand/Gestures/Caress_2'
p2710
asS'clap'
p2711
(lp2712
S'animations/Stand/Gestures/Applause_1'
p2713
asS'right'
p2714
(lp2715
S'animations/Sit/Reactions/BumperRight_1'
p2716
aS'animations/Stand/Reactions/BumperRight_1'
p2717
asS'petting'
p2718
(lp2719
S'animations/Stand/Gestures/Caress_1'
p2720
aS'animations/Stand/Gestures/Caress_2'
p2721
asS'scared'
p2722
(lp2723
S'animations/Sit/Emotions/Negative/Fear_1'
p2724
aS'animations/Sit/Emotions/Negative/Surprise_1'
p2725
aS'animations/Stand/Emotions/Negative/Fear_1'
p2726
aS'animations/Stand/Emotions/Negative/Fear_2'
p2727
aS'animations/Stand/Emotions/Negative/Surprise_1'
p2728
aS'animations/Stand/Emotions/Negative/Surprise_2'
p2729
aS'animations/Stand/Emotions/Negative/Surprise_3'
p2730
aS'animations/Stand/Gestures/Surprised_1'
p2731
asS'hide eyes'
p2732
(lp2733
S'animations/Stand/Waiting/HideEyes_1'
p2734
asS"what's this"
p2735
(lp2736
S'animations/SitOnPod/Gestures/WhatSThis_1'
p2737
aS'animations/SitOnPod/Gestures/WhatSThis_10'
p2738
aS'animations/SitOnPod/Gestures/WhatSThis_11'
p2739
aS'animations/SitOnPod/Gestures/WhatSThis_12'
p2740
aS'animations/SitOnPod/Gestures/WhatSThis_13'
p2741
aS'animations/SitOnPod/Gestures/WhatSThis_14'
p2742
aS'animations/SitOnPod/Gestures/WhatSThis_15'
p2743
aS'animations/SitOnPod/Gestures/WhatSThis_16'
p2744
aS'animations/SitOnPod/Gestures/WhatSThis_2'
p2745
aS'animations/SitOnPod/Gestures/WhatSThis_3'
p2746
aS'animations/SitOnPod/Gestures/WhatSThis_4'
p2747
aS'animations/SitOnPod/Gestures/WhatSThis_5'
p2748
aS'animations/SitOnPod/Gestures/WhatSThis_6'
p2749
aS'animations/SitOnPod/Gestures/WhatSThis_7'
p2750
aS'animations/SitOnPod/Gestures/WhatSThis_8'
p2751
aS'animations/SitOnPod/Gestures/WhatSThis_9'
p2752
aS'animations/Stand/Gestures/WhatSThis_1'
p2753
aS'animations/Stand/Gestures/WhatSThis_10'
p2754
aS'animations/Stand/Gestures/WhatSThis_11'
p2755
aS'animations/Stand/Gestures/WhatSThis_12'
p2756
aS'animations/Stand/Gestures/WhatSThis_13'
p2757
aS'animations/Stand/Gestures/WhatSThis_14'
p2758
aS'animations/Stand/Gestures/WhatSThis_15'
p2759
aS'animations/Stand/Gestures/WhatSThis_16'
p2760
aS'animations/Stand/Gestures/WhatSThis_2'
p2761
aS'animations/Stand/Gestures/WhatSThis_3'
p2762
aS'animations/Stand/Gestures/WhatSThis_4'
p2763
aS'animations/Stand/Gestures/WhatSThis_5'
p2764
aS'animations/Stand/Gestures/WhatSThis_6'
p2765
aS'animations/Stand/Gestures/WhatSThis_7'
p2766
aS'animations/Stand/Gestures/WhatSThis_8'
p2767
aS'animations/Stand/Gestures/WhatSThis_9'
p2768
asS'curious'
p2769
(lp2770
S'animations/Stand/Emotions/Positive/Interested_1'
p2771
aS'animations/Stand/Emotions/Positive/Interested_2'
p2772
asS'lead'
p2773
(lp2774
S'animations/Stand/Gestures/Take_1'
p2775
asS'avoid'
p2776
(lp2777
S'animations/Stand/Gestures/Hide_1'
p2778
asS'slide'
p2779
(lp2780
S'animations/Stand/Waiting/FunnySlide_1'
p2781
asS'everything'
p2782
(lp2783
S'animations/SitOnPod/Gestures/Everything_1'
p2784
aS'animations/SitOnPod/Gestures/Everything_2'
p2785
aS'animations/SitOnPod/Gestures/Everything_3'
p2786
aS'animations/SitOnPod/Gestures/Everything_4'
p2787
aS'animations/SitOnPod/Gestures/Everything_6'
p2788
aS'animations/Stand/Gestures/Everything_1'
p2789
aS'animations/Stand/Gestures/Everything_2'
p2790
aS'animations/Stand/Gestures/Everything_3'
p2791
aS'animations/Stand/Gestures/Everything_4'
p2792
aS'animations/Stand/Gestures/Everything_5'
p2793
aS'animations/Stand/Gestures/Everything_6'
p2794
asS'select'
p2795
(lp2796
S'animations/SitOnPod/Gestures/Choice_1'
p2797
aS'animations/Stand/Gestures/Choice_1'
p2798
aS'animations/Stand/Gestures/Choice_2'
p2799
asS'becalm'
p2800
(lp2801
S'animations/Stand/Gestures/CalmDown_1'
p2802
aS'animations/Stand/Gestures/CalmDown_2'
p2803
aS'animations/Stand/Gestures/CalmDown_3'
p2804
aS'animations/Stand/Gestures/CalmDown_4'
p2805
aS'animations/Stand/Gestures/CalmDown_5'
p2806
aS'animations/Stand/Gestures/CalmDown_6'
p2807
asS'speak'
p2808
(lp2809
S'animations/SitOnPod/Gestures/HeSays_1'
p2810
aS'animations/SitOnPod/Gestures/HeSays_2'
p2811
aS'animations/SitOnPod/Gestures/HeSays_3'
p2812
aS'animations/Stand/Gestures/HeSays_1'
p2813
aS'animations/Stand/Gestures/HeSays_2'
p2814
aS'animations/Stand/Gestures/HeSays_3'
p2815
asS'leader'
p2816
(lp2817
S'animations/Stand/Waiting/Bandmaster_1'
p2818
asS'guiltless'
p2819
(lp2820
S'animations/Stand/Emotions/Neutral/Innocent_1'
p2821
aS'animations/Stand/Waiting/Innocent_1'
p2822
asS'power'
p2823
(lp2824
S'animations/Sit/Waiting/MysticalPower_1'
p2825
aS'animations/Stand/Waiting/MysticalPower_1'
p2826
asS'rock'
p2827
(lp2828
S'animations/Stand/Waiting/AirGuitar_1'
p2829
asS'zombie'
p2830
(lp2831
S'animations/Stand/Emotions/Neutral/Alienated_1'
p2832
aS'animations/Stand/Waiting/Zombie_1'
p2833
asS'phew'
p2834
(lp2835
S'animations/Stand/Emotions/Positive/Relieved_1'
p2836
asS'starship'
p2837
(lp2838
S'animations/Stand/Waiting/SpaceShuttle_1'
p2839
asS'bowing'
p2840
(lp2841
S'animations/Stand/Gestures/Salute_1'
p2842
aS'animations/Stand/Gestures/Salute_2'
p2843
aS'animations/Stand/Gestures/Salute_3'
p2844
asS'subtract'
p2845
(lp2846
S'animations/Stand/Gestures/Take_1'
p2847
asS'plug'
p2848
(lp2849
S'animations/Sit/Reactions/EthernetOn_1'
p2850
aS'animations/Stand/Reactions/EthernetOn_1'
p2851
asS'on'
p2852
(lp2853
S'animations/Sit/Reactions/EthernetOn_1'
p2854
aS'animations/Stand/Reactions/EthernetOn_1'
p2855
asS'cautious'
p2856
(lp2857
S'animations/Stand/Emotions/Neutral/Cautious_1'
p2858
asS'ok'
p2859
(lp2860
S'animations/SitOnPod/Gestures/Yes_1'
p2861
aS'animations/SitOnPod/Gestures/Yes_2'
p2862
aS'animations/SitOnPod/Gestures/Yes_3'
p2863
aS'animations/Stand/Gestures/Yes_1'
p2864
aS'animations/Stand/Gestures/Yes_2'
p2865
aS'animations/Stand/Gestures/Yes_3'
p2866
asS'careerist'
p2867
(lp2868
S'animations/Stand/Emotions/Neutral/Determined_1'
p2869
asS'hatred'
p2870
(lp2871
S'animations/Stand/Gestures/Reject_1'
p2872
aS'animations/Stand/Gestures/Reject_2'
p2873
aS'animations/Stand/Gestures/Reject_3'
p2874
aS'animations/Stand/Gestures/Reject_4'
p2875
aS'animations/Stand/Gestures/Reject_5'
p2876
aS'animations/Stand/Gestures/Reject_6'
p2877
asS'or'
p2878
(lp2879
S'animations/SitOnPod/Gestures/Choice_1'
p2880
aS'animations/Stand/Gestures/Choice_1'
p2881
aS'animations/Stand/Gestures/Choice_2'
p2882
asS'two'
p2883
(lp2884
S'animations/SitOnPod/Gestures/CountTwo_1'
p2885
aS'animations/SitOnPod/Gestures/CountTwo_2'
p2886
aS'animations/Stand/Gestures/CountTwo_1'
p2887
aS'animations/Stand/Gestures/CountTwo_2'
p2888
asS'down'
p2889
(lp2890
S'animations/Stand/Gestures/Look_2'
p2891
aS'animations/Stand/Gestures/ShowFloor_1'
p2892
aS'animations/Stand/Gestures/ShowFloor_2'
p2893
aS'animations/Stand/Gestures/ShowFloor_3'
p2894
aS'animations/Stand/Gestures/ShowFloor_4'
p2895
aS'animations/Stand/Gestures/ShowFloor_5'
p2896
asS'everyone'
p2897
(lp2898
S'animations/SitOnPod/Gestures/Everything_1'
p2899
aS'animations/SitOnPod/Gestures/Everything_2'
p2900
aS'animations/SitOnPod/Gestures/Everything_3'
p2901
aS'animations/SitOnPod/Gestures/Everything_4'
p2902
aS'animations/SitOnPod/Gestures/Everything_6'
p2903
aS'animations/Stand/Gestures/Everything_1'
p2904
aS'animations/Stand/Gestures/Everything_2'
p2905
aS'animations/Stand/Gestures/Everything_3'
p2906
aS'animations/Stand/Gestures/Everything_4'
p2907
aS'animations/Stand/Gestures/Everything_5'
p2908
aS'animations/Stand/Gestures/Everything_6'
p2909
asS'frightened'
p2910
(lp2911
S'animations/Sit/Emotions/Negative/Fear_1'
p2912
aS'animations/Sit/Emotions/Negative/Surprise_1'
p2913
aS'animations/Stand/Emotions/Negative/Fear_1'
p2914
aS'animations/Stand/Emotions/Negative/Fear_2'
p2915
aS'animations/Stand/Emotions/Negative/Surprise_1'
p2916
aS'animations/Stand/Emotions/Negative/Surprise_2'
p2917
aS'animations/Stand/Emotions/Negative/Surprise_3'
p2918
aS'animations/Stand/Gestures/Surprised_1'
p2919
asS'nervy'
p2920
(lp2921
S'animations/Sit/Emotions/Negative/Angry_1'
p2922
aS'animations/Stand/Emotions/Negative/Angry_1'
p2923
aS'animations/Stand/Emotions/Negative/Angry_2'
p2924
aS'animations/Stand/Emotions/Negative/Angry_3'
p2925
aS'animations/Stand/Emotions/Negative/Angry_4'
p2926
asS'impressed'
p2927
(lp2928
S'animations/Stand/Emotions/Positive/Ecstatic_1'
p2929
asS'her'
p2930
(lp2931
S'animations/Stand/Gestures/Far_3'
p2932
asS'undiscovered'
p2933
(lp2934
S'animations/Stand/Gestures/IDontKnow_1'
p2935
aS'animations/Stand/Gestures/IDontKnow_2'
p2936
aS'animations/Stand/Gestures/IDontKnow_3'
p2937
aS'animations/Stand/Gestures/IDontKnow_4'
p2938
aS'animations/Stand/Gestures/IDontKnow_5'
p2939
aS'animations/Stand/Gestures/IDontKnow_6'
p2940
asS'wickedness'
p2941
(lp2942
S'animations/Stand/Gestures/Reject_1'
p2943
aS'animations/Stand/Gestures/Reject_2'
p2944
aS'animations/Stand/Gestures/Reject_3'
p2945
aS'animations/Stand/Gestures/Reject_4'
p2946
aS'animations/Stand/Gestures/Reject_5'
p2947
aS'animations/Stand/Gestures/Reject_6'
p2948
asS'tennis'
p2949
(lp2950
S'animations/Sit/Waiting/Pong_1'
p2951
asS'hey'
p2952
(lp2953
S'animations/Sit/Emotions/Neutral/AskForAttention_1'
p2954
aS'animations/Sit/Emotions/Neutral/AskForAttention_2'
p2955
aS'animations/Sit/Emotions/Neutral/AskForAttention_3'
p2956
aS'animations/Sit/Gestures/Hey_3'
p2957
aS'animations/SitOnPod/Emotions/Neutral/Hello_1'
p2958
aS'animations/SitOnPod/Gestures/Hey_1'
p2959
aS'animations/SitOnPod/Gestures/Hey_2'
p2960
aS'animations/SitOnPod/Gestures/Hey_3'
p2961
aS'animations/SitOnPod/Gestures/Hey_4'
p2962
aS'animations/SitOnPod/Gestures/Hey_6'
p2963
aS'animations/SitOnPod/Gestures/Hey_7'
p2964
aS'animations/Stand/Emotions/Neutral/AskForAttention_1'
p2965
aS'animations/Stand/Emotions/Neutral/AskForAttention_2'
p2966
aS'animations/Stand/Emotions/Neutral/AskForAttention_3'
p2967
aS'animations/Stand/Emotions/Neutral/Hello_1'
p2968
aS'animations/Stand/Gestures/Hey_1'
p2969
aS'animations/Stand/Gestures/Hey_2'
p2970
aS'animations/Stand/Gestures/Hey_3'
p2971
aS'animations/Stand/Gestures/Hey_4'
p2972
aS'animations/Stand/Gestures/Hey_5'
p2973
aS'animations/Stand/Gestures/Hey_6'
p2974
aS'animations/Stand/Gestures/Hey_7'
p2975
asS'fight'
p2976
(lp2977
S'animations/Stand/Waiting/KungFu_1'
p2978
asS'camera'
p2979
(lp2980
S'animations/Sit/Waiting/TakePicture_1'
p2981
aS'animations/Stand/Waiting/TakePicture_1'
p2982
asS'waw'
p2983
(lp2984
S'animations/Stand/Emotions/Positive/Ecstatic_1'
p2985
asS'call'
p2986
(lp2987
S'animations/Sit/Emotions/Neutral/AskForAttention_1'
p2988
aS'animations/Sit/Emotions/Neutral/AskForAttention_2'
p2989
aS'animations/Sit/Emotions/Neutral/AskForAttention_3'
p2990
aS'animations/Sit/Gestures/Hey_3'
p2991
aS'animations/Sit/Waiting/CallSomeone_1'
p2992
aS'animations/Sit/Waiting/Phone_1'
p2993
aS'animations/SitOnPod/Gestures/Hey_1'
p2994
aS'animations/SitOnPod/Gestures/Hey_2'
p2995
aS'animations/SitOnPod/Gestures/Hey_3'
p2996
aS'animations/SitOnPod/Gestures/Hey_4'
p2997
aS'animations/SitOnPod/Gestures/Hey_6'
p2998
aS'animations/SitOnPod/Gestures/Hey_7'
p2999
aS'animations/Stand/Emotions/Neutral/AskForAttention_1'
p3000
aS'animations/Stand/Emotions/Neutral/AskForAttention_2'
p3001
aS'animations/Stand/Emotions/Neutral/AskForAttention_3'
p3002
aS'animations/Stand/Gestures/Hey_1'
p3003
aS'animations/Stand/Gestures/Hey_2'
p3004
aS'animations/Stand/Gestures/Hey_3'
p3005
aS'animations/Stand/Gestures/Hey_4'
p3006
aS'animations/Stand/Gestures/Hey_5'
p3007
aS'animations/Stand/Gestures/Hey_6'
p3008
aS'animations/Stand/Gestures/Hey_7'
p3009
aS'animations/Stand/Waiting/CallSomeone_1'
p3010
aS'animations/Stand/Waiting/Taxi_1'
p3011
asS'poorly seated'
p3012
(lp3013
S'animations/Sit/Waiting/PoorlySeated_1'
p3014
asS'bored'
p3015
(lp3016
S'animations/Sit/Emotions/Negative/Late_1'
p3017
aS'animations/Sit/Waiting/Bored_1'
p3018
aS'animations/Stand/Emotions/Negative/Bored_1'
p3019
aS'animations/Stand/Emotions/Negative/Bored_2'
p3020
aS'animations/Stand/Emotions/Negative/Late_1'
p3021
aS'animations/Stand/Emotions/Neutral/Lonely_1'
p3022
asS'hysterical'
p3023
(lp3024
S'animations/Stand/Emotions/Positive/Hysterical_1'
p3025
asS'happy'
p3026
(lp3027
S'animations/Sit/Emotions/Positive/Happy_1'
p3028
aS'animations/Sit/Emotions/Positive/Happy_2'
p3029
aS'animations/Sit/Emotions/Positive/Happy_3'
p3030
aS'animations/Sit/Emotions/Positive/Happy_4'
p3031
aS'animations/Stand/Emotions/Positive/Enthusiastic_1'
p3032
aS'animations/Stand/Emotions/Positive/Excited_1'
p3033
aS'animations/Stand/Emotions/Positive/Excited_2'
p3034
aS'animations/Stand/Emotions/Positive/Excited_3'
p3035
aS'animations/Stand/Emotions/Positive/Happy_1'
p3036
aS'animations/Stand/Emotions/Positive/Happy_2'
p3037
aS'animations/Stand/Emotions/Positive/Happy_3'
p3038
aS'animations/Stand/Emotions/Positive/Happy_4'
p3039
aS'animations/Stand/Emotions/Positive/Hysterical_1'
p3040
aS'animations/Stand/Gestures/Enthusiastic_1'
p3041
aS'animations/Stand/Gestures/Enthusiastic_2'
p3042
aS'animations/Stand/Gestures/Enthusiastic_3'
p3043
aS'animations/Stand/Gestures/Enthusiastic_4'
p3044
aS'animations/Stand/Gestures/Enthusiastic_5'
p3045
aS'animations/Stand/Gestures/Great_1'
p3046
asS'head'
p3047
(lp3048
S'animations/Sit/Reactions/TouchHead_1'
p3049
aS'animations/Sit/Reactions/TouchHead_2'
p3050
aS'animations/Sit/Reactions/TouchHead_3'
p3051
aS'animations/Sit/Reactions/TouchHead_4'
p3052
aS'animations/Stand/Reactions/TouchHead_1'
p3053
aS'animations/Stand/Reactions/TouchHead_2'
p3054
aS'animations/Stand/Reactions/TouchHead_3'
p3055
aS'animations/Stand/Reactions/TouchHead_4'
p3056
asS'offer'
p3057
(lp3058
S'animations/Stand/Gestures/Give_1'
p3059
aS'animations/Stand/Gestures/Give_2'
p3060
aS'animations/Stand/Gestures/Give_3'
p3061
aS'animations/Stand/Gestures/Give_4'
p3062
aS'animations/Stand/Gestures/Give_5'
p3063
aS'animations/Stand/Gestures/Give_6'
p3064
aS'animations/Stand/Gestures/Joy_1'
p3065
asS'but'
p3066
(lp3067
S'animations/Stand/Gestures/But_1'
p3068
asS'heat'
p3069
(lp3070
S'animations/Sit/Reactions/Heat_1'
p3071
aS'animations/Stand/Reactions/Heat_1'
p3072
aS'animations/Stand/Reactions/Heat_2'
p3073
asS'hi'
p3074
(lp3075
S'animations/SitOnPod/Emotions/Neutral/Hello_1'
p3076
aS'animations/SitOnPod/Gestures/Hey_1'
p3077
aS'animations/SitOnPod/Gestures/Hey_2'
p3078
aS'animations/SitOnPod/Gestures/Hey_3'
p3079
aS'animations/SitOnPod/Gestures/Hey_4'
p3080
aS'animations/SitOnPod/Gestures/Hey_6'
p3081
aS'animations/SitOnPod/Gestures/Hey_7'
p3082
aS'animations/Stand/Emotions/Neutral/Hello_1'
p3083
aS'animations/Stand/Gestures/Hey_1'
p3084
aS'animations/Stand/Gestures/Hey_2'
p3085
aS'animations/Stand/Gestures/Hey_3'
p3086
aS'animations/Stand/Gestures/Hey_4'
p3087
aS'animations/Stand/Gestures/Hey_5'
p3088
aS'animations/Stand/Gestures/Hey_6'
p3089
asS'upbeat'
p3090
(lp3091
S'animations/Stand/Emotions/Positive/Optimistic_1'
p3092
asS'eat'
p3093
(lp3094
S'animations/Stand/Gestures/Hungry_1'
p3095
asS'applause'
p3096
(lp3097
S'animations/Sit/Emotions/Positive/Winner_1'
p3098
aS'animations/Stand/Emotions/Positive/Winner_1'
p3099
aS'animations/Stand/Emotions/Positive/Winner_2'
p3100
aS'animations/Stand/Gestures/Applause_1'
p3101
asS'count'
p3102
(lp3103
S'animations/SitOnPod/Gestures/CountThree_1'
p3104
aS'animations/SitOnPod/Gestures/CountThree_2'
p3105
aS'animations/SitOnPod/Gestures/CountTwo_1'
p3106
aS'animations/SitOnPod/Gestures/CountTwo_2'
p3107
aS'animations/Stand/Gestures/CountFive_1'
p3108
aS'animations/Stand/Gestures/CountFive_2'
p3109
aS'animations/Stand/Gestures/CountFour_1'
p3110
aS'animations/Stand/Gestures/CountFour_2'
p3111
aS'animations/Stand/Gestures/CountMore_1'
p3112
aS'animations/Stand/Gestures/CountMore_2'
p3113
aS'animations/Stand/Gestures/CountOne_1'
p3114
aS'animations/Stand/Gestures/CountOne_2'
p3115
aS'animations/Stand/Gestures/CountThree_1'
p3116
aS'animations/Stand/Gestures/CountThree_2'
p3117
aS'animations/Stand/Gestures/CountTwo_1'
p3118
aS'animations/Stand/Gestures/CountTwo_2'
p3119
asS'LED'
p3120
(lp3121
S'animations/LED/CircleEyes'
p3122
asS'up'
p3123
(lp3124
S'animations/Stand/Gestures/ShowSky_1'
p3125
aS'animations/Stand/Gestures/ShowSky_10'
p3126
aS'animations/Stand/Gestures/ShowSky_11'
p3127
aS'animations/Stand/Gestures/ShowSky_12'
p3128
aS'animations/Stand/Gestures/ShowSky_2'
p3129
aS'animations/Stand/Gestures/ShowSky_3'
p3130
aS'animations/Stand/Gestures/ShowSky_4'
p3131
aS'animations/Stand/Gestures/ShowSky_5'
p3132
aS'animations/Stand/Gestures/ShowSky_6'
p3133
aS'animations/Stand/Gestures/ShowSky_7'
p3134
aS'animations/Stand/Gestures/ShowSky_8'
p3135
aS'animations/Stand/Gestures/ShowSky_9'
p3136
asS'wicked'
p3137
(lp3138
S'animations/Stand/Emotions/Neutral/Mischievous_1'
p3139
asS'clear'
p3140
(lp3141
S'animations/Stand/Emotions/Neutral/Innocent_1'
p3142
aS'animations/Stand/Gestures/Explain_1'
p3143
aS'animations/Stand/Gestures/Explain_10'
p3144
aS'animations/Stand/Gestures/Explain_11'
p3145
aS'animations/Stand/Gestures/Explain_2'
p3146
aS'animations/Stand/Gestures/Explain_3'
p3147
aS'animations/Stand/Gestures/Explain_4'
p3148
aS'animations/Stand/Gestures/Explain_5'
p3149
aS'animations/Stand/Gestures/Explain_6'
p3150
aS'animations/Stand/Gestures/Explain_7'
p3151
aS'animations/Stand/Gestures/Explain_8'
p3152
aS'animations/Stand/Gestures/Explain_9'
p3153
aS'animations/Stand/Waiting/Innocent_1'
p3154
asS'exhausted'
p3155
(lp3156
S'animations/Stand/Emotions/Negative/Exhausted_1'
p3157
aS'animations/Stand/Emotions/Negative/Exhausted_2'
p3158
asS'circus'
p3159
(lp3160
S'animations/Stand/Waiting/AirJuggle_1'
p3161
asS'drive'
p3162
(lp3163
S'animations/Sit/Waiting/DriveCar_1'
p3164
aS'animations/Stand/Waiting/DriveCar_1'
p3165
asS'soothe'
p3166
(lp3167
S'animations/Stand/Gestures/CalmDown_1'
p3168
aS'animations/Stand/Gestures/CalmDown_2'
p3169
aS'animations/Stand/Gestures/CalmDown_3'
p3170
aS'animations/Stand/Gestures/CalmDown_4'
p3171
aS'animations/Stand/Gestures/CalmDown_5'
p3172
aS'animations/Stand/Gestures/CalmDown_6'
p3173
asS'examine'
p3174
(lp3175
S'animations/Stand/Gestures/Look_1'
p3176
aS'animations/Stand/Gestures/Look_2'
p3177
asS'prayer'
p3178
(lp3179
S'animations/Sit/Waiting/MysticalPower_1'
p3180
aS'animations/Stand/Waiting/MysticalPower_1'
p3181
asS'curl'
p3182
(lp3183
S'animations/Stand/Gestures/Mime_1'
p3184
aS'animations/Stand/Gestures/Mime_2'
p3185
asS'hound'
p3186
(lp3187
S'animations/Stand/Gestures/Follow_1'
p3188
asS'pensive'
p3189
(lp3190
S'animations/Stand/Emotions/Neutral/Puzzled_1'
p3191
asS'floor'
p3192
(lp3193
S'animations/Stand/Gestures/ShowFloor_1'
p3194
aS'animations/Stand/Gestures/ShowFloor_2'
p3195
aS'animations/Stand/Gestures/ShowFloor_3'
p3196
aS'animations/Stand/Gestures/ShowFloor_4'
p3197
aS'animations/Stand/Gestures/ShowFloor_5'
p3198
aS'animations/Stand/Reactions/SeeSomething_3'
p3199
aS'animations/Stand/Reactions/SeeSomething_4'
p3200
aS'animations/Stand/Reactions/SeeSomething_5'
p3201
aS'animations/Stand/Reactions/SeeSomething_6'
p3202
aS'animations/Stand/Reactions/SeeSomething_7'
p3203
aS'animations/Stand/Reactions/SeeSomething_8'
p3204
asS'field'
p3205
(lp3206
S'animations/Stand/Gestures/ShowFloor_1'
p3207
aS'animations/Stand/Gestures/ShowFloor_2'
p3208
aS'animations/Stand/Gestures/ShowFloor_3'
p3209
aS'animations/Stand/Gestures/ShowFloor_4'
p3210
aS'animations/Stand/Gestures/ShowFloor_5'
p3211
asS'interested'
p3212
(lp3213
S'animations/Stand/Emotions/Positive/Interested_1'
p3214
aS'animations/Stand/Emotions/Positive/Interested_2'
p3215
asS'congeal'
p3216
(lp3217
S'animations/Stand/Gestures/Freeze_1'
p3218
asS'oar'
p3219
(lp3220
S'animations/Sit/Waiting/Oar_1'
p3221
asS'ambitious'
p3222
(lp3223
S'animations/Stand/Emotions/Neutral/Determined_1'
p3224
asS'you'
p3225
(lp3226
S'animations/Sit/Gestures/You_4'
p3227
aS'animations/SitOnPod/Gestures/You_1'
p3228
aS'animations/SitOnPod/Gestures/You_2'
p3229
aS'animations/SitOnPod/Gestures/You_3'
p3230
aS'animations/SitOnPod/Gestures/You_4'
p3231
aS'animations/SitOnPod/Gestures/You_5'
p3232
aS'animations/Stand/Gestures/Joy_1'
p3233
aS'animations/Stand/Gestures/You_1'
p3234
aS'animations/Stand/Gestures/You_2'
p3235
aS'animations/Stand/Gestures/You_3'
p3236
aS'animations/Stand/Gestures/You_4'
p3237
aS'animations/Stand/Gestures/You_5'
p3238
asS'mock'
p3239
(lp3240
S'animations/Sit/Emotions/Positive/Mocker_1'
p3241
aS'animations/Stand/Emotions/Positive/Mocker_1'
p3242
aS'animations/Stand/Gestures/Mime_1'
p3243
aS'animations/Stand/Gestures/Mime_2'
p3244
asS'picture'
p3245
(lp3246
S'animations/Sit/Waiting/TakePicture_1'
p3247
aS'animations/Stand/Waiting/TakePicture_1'
p3248
asS'ecstatic'
p3249
(lp3250
S'animations/Stand/Emotions/Positive/Ecstatic_1'
p3251
asS'football'
p3252
(lp3253
S'animations/Stand/Gestures/Shoot_1'
p3254
asS'pacify'
p3255
(lp3256
S'animations/Stand/Gestures/CalmDown_1'
p3257
aS'animations/Stand/Gestures/CalmDown_2'
p3258
aS'animations/Stand/Gestures/CalmDown_3'
p3259
aS'animations/Stand/Gestures/CalmDown_4'
p3260
aS'animations/Stand/Gestures/CalmDown_5'
p3261
aS'animations/Stand/Gestures/CalmDown_6'
p3262
asS'hurt'
p3263
(lp3264
S'animations/Sit/Emotions/Negative/Hurt_1'
p3265
aS'animations/Stand/Emotions/Negative/Hurt_1'
p3266
aS'animations/Stand/Emotions/Negative/Hurt_2'
p3267
asS'sneeze'
p3268
(lp3269
S'animations/Sit/Emotions/Neutral/Sneeze_1'
p3270
aS'animations/Stand/Emotions/Neutral/Sneeze'
p3271
asS'alienated'
p3272
(lp3273
S'animations/Stand/Emotions/Neutral/Alienated_1'
p3274
asS'allright'
p3275
(lp3276
S'animations/Stand/Gestures/CalmDown_1'
p3277
aS'animations/Stand/Gestures/CalmDown_2'
p3278
aS'animations/Stand/Gestures/CalmDown_3'
p3279
aS'animations/Stand/Gestures/CalmDown_4'
p3280
aS'animations/Stand/Gestures/CalmDown_5'
p3281
aS'animations/Stand/Gestures/CalmDown_6'
p3282
asS'apology'
p3283
(lp3284
S'animations/Stand/Emotions/Negative/Sorry_1'
p3285
aS'animations/Stand/Emotions/Neutral/Confused_1'
p3286
asS'phone'
p3287
(lp3288
S'animations/Sit/Waiting/Phone_1'
p3289
asS'humiliated'
p3290
(lp3291
S'animations/Stand/Emotions/Negative/Humiliated_1'
p3292
asS'persistent'
p3293
(lp3294
S'animations/Stand/Emotions/Neutral/Stubborn_1'
p3295
asS'together'
p3296
(lp3297
S'animations/Stand/Gestures/JointHands_1'
p3298
aS'animations/Stand/Gestures/JointHands_2'
p3299
aS'animations/Stand/Gestures/JointHands_3'
p3300
asS'amused'
p3301
(lp3302
S'animations/Stand/Emotions/Positive/Amused_1'
p3303
asS'entreat'
p3304
(lp3305
S'animations/Stand/Gestures/Please_1'
p3306
aS'animations/Stand/Gestures/Please_2'
p3307
aS'animations/Stand/Gestures/Please_3'
p3308
asS'gorilla'
p3309
(lp3310
S'animations/Stand/Waiting/Monster_1'
p3311
asS'mimic'
p3312
(lp3313
S'animations/Sit/Waiting/DriveCar_1'
p3314
aS'animations/Stand/Gestures/Mime_1'
p3315
aS'animations/Stand/Gestures/Mime_2'
p3316
aS'animations/Stand/Waiting/DriveCar_1'
p3317
asS'warm'
p3318
(lp3319
S'animations/Stand/Gestures/Enthusiastic_1'
p3320
aS'animations/Stand/Gestures/Enthusiastic_2'
p3321
aS'animations/Stand/Gestures/Enthusiastic_3'
p3322
aS'animations/Stand/Gestures/Enthusiastic_4'
p3323
aS'animations/Stand/Gestures/Enthusiastic_5'
p3324
aS'animations/Stand/Waiting/Stretch_1'
p3325
aS'animations/Stand/Waiting/Stretch_2'
p3326
aS'animations/Stand/Waiting/Stretch_3'
p3327
asS'alright'
p3328
(lp3329
S'animations/SitOnPod/Gestures/Yes_1'
p3330
aS'animations/SitOnPod/Gestures/Yes_2'
p3331
aS'animations/SitOnPod/Gestures/Yes_3'
p3332
aS'animations/Stand/Gestures/Yes_1'
p3333
aS'animations/Stand/Gestures/Yes_2'
p3334
aS'animations/Stand/Gestures/Yes_3'
p3335
asS'hello'
p3336
(lp3337
S'animations/SitOnPod/Emotions/Neutral/Hello_1'
p3338
aS'animations/SitOnPod/Gestures/Hey_1'
p3339
aS'animations/SitOnPod/Gestures/Hey_2'
p3340
aS'animations/SitOnPod/Gestures/Hey_3'
p3341
aS'animations/SitOnPod/Gestures/Hey_4'
p3342
aS'animations/SitOnPod/Gestures/Hey_6'
p3343
aS'animations/SitOnPod/Gestures/Hey_7'
p3344
aS'animations/Stand/Emotions/Neutral/Hello_1'
p3345
aS'animations/Stand/Gestures/Hey_1'
p3346
aS'animations/Stand/Gestures/Hey_2'
p3347
aS'animations/Stand/Gestures/Hey_3'
p3348
aS'animations/Stand/Gestures/Hey_4'
p3349
aS'animations/Stand/Gestures/Hey_5'
p3350
aS'animations/Stand/Gestures/Hey_6'
p3351
aS'animations/Stand/Gestures/Hey_7'
p3352
as.