(lp0
S'.lastUploadedChoregrapheBehavior/Stand/BodyTalk/Listening/ListeningLeft_1'
p1
aS'.lastUploadedChoregrapheBehavior/Stand/BodyTalk/Listening/ListeningLeft_3'
p2
aS'.lastUploadedChoregrapheBehavior/Stand/BodyTalk/Listening/ListeningRight_1'
p3
aS'.lastUploadedChoregrapheBehavior/Stand/BodyTalk/Listening/ListeningRight_3'
p4
aS'.lastUploadedChoregrapheBehavior/Stand/BodyTalk/Speaking/BodyTalk_1'
p5
aS'.lastUploadedChoregrapheBehavior/Stand/BodyTalk/Speaking/BodyTalk_10'
p6
aS'.lastUploadedChoregrapheBehavior/Stand/BodyTalk/Speaking/BodyTalk_11'
p7
aS'.lastUploadedChoregrapheBehavior/Stand/BodyTalk/Speaking/BodyTalk_12'
p8
aS'.lastUploadedChoregrapheBehavior/Stand/BodyTalk/Speaking/BodyTalk_13'
p9
aS'.lastUploadedChoregrapheBehavior/Stand/BodyTalk/Speaking/BodyTalk_14'
p10
aS'.lastUploadedChoregrapheBehavior/Stand/BodyTalk/Speaking/BodyTalk_15'
p11
aS'.lastUploadedChoregrapheBehavior/Stand/BodyTalk/Speaking/BodyTalk_16'
p12
aS'.lastUploadedChoregrapheBehavior/Stand/BodyTalk/Speaking/BodyTalk_17'
p13
aS'.lastUploadedChoregrapheBehavior/Stand/BodyTalk/Speaking/BodyTalk_18'
p14
aS'.lastUploadedChoregrapheBehavior/Stand/BodyTalk/Speaking/BodyTalk_19'
p15
aS'.lastUploadedChoregrapheBehavior/Stand/BodyTalk/Speaking/BodyTalk_2'
p16
aS'.lastUploadedChoregrapheBehavior/Stand/BodyTalk/Speaking/BodyTalk_20'
p17
aS'.lastUploadedChoregrapheBehavior/Stand/BodyTalk/Speaking/BodyTalk_21'
p18
aS'.lastUploadedChoregrapheBehavior/Stand/BodyTalk/Speaking/BodyTalk_22'
p19
aS'.lastUploadedChoregrapheBehavior/Stand/BodyTalk/Speaking/BodyTalk_3'
p20
aS'.lastUploadedChoregrapheBehavior/Stand/BodyTalk/Speaking/BodyTalk_4'
p21
aS'.lastUploadedChoregrapheBehavior/Stand/BodyTalk/Speaking/BodyTalk_5'
p22
aS'.lastUploadedChoregrapheBehavior/Stand/BodyTalk/Speaking/BodyTalk_6'
p23
aS'.lastUploadedChoregrapheBehavior/Stand/BodyTalk/Speaking/BodyTalk_7'
p24
aS'.lastUploadedChoregrapheBehavior/Stand/BodyTalk/Speaking/BodyTalk_8'
p25
aS'.lastUploadedChoregrapheBehavior/Stand/BodyTalk/Speaking/BodyTalk_9'
p26
aS'.lastUploadedChoregrapheBehavior/Stand/BodyTalk/Thinking/Remember_1'
p27
aS'.lastUploadedChoregrapheBehavior/Stand/BodyTalk/Thinking/Remember_2'
p28
aS'.lastUploadedChoregrapheBehavior/Stand/BodyTalk/Thinking/Remember_3'
p29
aS'.lastUploadedChoregrapheBehavior/Stand/Emotions/Negative/Angry_1'
p30
aS'.lastUploadedChoregrapheBehavior/Stand/Emotions/Negative/Angry_2'
p31
aS'.lastUploadedChoregrapheBehavior/Stand/Emotions/Negative/Angry_3'
p32
aS'.lastUploadedChoregrapheBehavior/Stand/Emotions/Negative/Angry_4'
p33
aS'.lastUploadedChoregrapheBehavior/Stand/Emotions/Negative/Anxious_1'
p34
aS'.lastUploadedChoregrapheBehavior/Stand/Emotions/Negative/Bored_1'
p35
aS'.lastUploadedChoregrapheBehavior/Stand/Emotions/Negative/Bored_2'
p36
aS'.lastUploadedChoregrapheBehavior/Stand/Emotions/Negative/Disappointed_1'
p37
aS'.lastUploadedChoregrapheBehavior/Stand/Emotions/Negative/Exhausted_1'
p38
aS'.lastUploadedChoregrapheBehavior/Stand/Emotions/Negative/Fear_1'
p39
aS'.lastUploadedChoregrapheBehavior/Stand/Emotions/Negative/Fear_2'
p40
aS'.lastUploadedChoregrapheBehavior/Stand/Emotions/Negative/Fearful_1'
p41
aS'.lastUploadedChoregrapheBehavior/Stand/Emotions/Negative/Frustrated_1'
p42
aS'.lastUploadedChoregrapheBehavior/Stand/Emotions/Negative/Humiliated_1'
p43
aS'.lastUploadedChoregrapheBehavior/Stand/Emotions/Negative/Hurt_1'
p44
aS'.lastUploadedChoregrapheBehavior/Stand/Emotions/Negative/Hurt_2'
p45
aS'.lastUploadedChoregrapheBehavior/Stand/Emotions/Negative/Late_1'
p46
aS'.lastUploadedChoregrapheBehavior/Stand/Emotions/Negative/Sad_1'
p47
aS'.lastUploadedChoregrapheBehavior/Stand/Emotions/Negative/Sad_2'
p48
aS'.lastUploadedChoregrapheBehavior/Stand/Emotions/Negative/Shocked_1'
p49
aS'.lastUploadedChoregrapheBehavior/Stand/Emotions/Negative/Sorry_1'
p50
aS'.lastUploadedChoregrapheBehavior/Stand/Emotions/Negative/Surprise_1'
p51
aS'.lastUploadedChoregrapheBehavior/Stand/Emotions/Negative/Surprise_2'
p52
aS'.lastUploadedChoregrapheBehavior/Stand/Emotions/Negative/Surprise_3'
p53
aS'.lastUploadedChoregrapheBehavior/Stand/Emotions/Neutral/Alienated_1'
p54
aS'.lastUploadedChoregrapheBehavior/Stand/Emotions/Neutral/Annoyed_1'
p55
aS'.lastUploadedChoregrapheBehavior/Stand/Emotions/Neutral/AskForAttention_1'
p56
aS'.lastUploadedChoregrapheBehavior/Stand/Emotions/Neutral/AskForAttention_2'
p57
aS'.lastUploadedChoregrapheBehavior/Stand/Emotions/Neutral/AskForAttention_3'
p58
aS'.lastUploadedChoregrapheBehavior/Stand/Emotions/Neutral/Cautious_1'
p59
aS'.lastUploadedChoregrapheBehavior/Stand/Emotions/Neutral/Confused_1'
p60
aS'.lastUploadedChoregrapheBehavior/Stand/Emotions/Neutral/Determined_1'
p61
aS'.lastUploadedChoregrapheBehavior/Stand/Emotions/Neutral/Embarrassed_1'
p62
aS'.lastUploadedChoregrapheBehavior/Stand/Emotions/Neutral/Hello_1'
p63
aS'.lastUploadedChoregrapheBehavior/Stand/Emotions/Neutral/Hesitation_1'
p64
aS'.lastUploadedChoregrapheBehavior/Stand/Emotions/Neutral/Innocent_1'
p65
aS'.lastUploadedChoregrapheBehavior/Stand/Emotions/Neutral/Lonely_1'
p66
aS'.lastUploadedChoregrapheBehavior/Stand/Emotions/Neutral/Mischievous_1'
p67
aS'.lastUploadedChoregrapheBehavior/Stand/Emotions/Neutral/Puzzled_1'
p68
aS'.lastUploadedChoregrapheBehavior/Stand/Emotions/Neutral/Sneeze'
p69
aS'.lastUploadedChoregrapheBehavior/Stand/Emotions/Neutral/Stubborn_1'
p70
aS'.lastUploadedChoregrapheBehavior/Stand/Emotions/Neutral/Suspicious_1'
p71
aS'.lastUploadedChoregrapheBehavior/Stand/Emotions/Positive/Amused_1'
p72
aS'.lastUploadedChoregrapheBehavior/Stand/Emotions/Positive/Confident_1'
p73
aS'.lastUploadedChoregrapheBehavior/Stand/Emotions/Positive/Ecstatic_1'
p74
aS'.lastUploadedChoregrapheBehavior/Stand/Emotions/Positive/Enthusiastic_1'
p75
aS'.lastUploadedChoregrapheBehavior/Stand/Emotions/Positive/Excited_2'
p76
aS'.lastUploadedChoregrapheBehavior/Stand/Emotions/Positive/Excited_3'
p77
aS'.lastUploadedChoregrapheBehavior/Stand/Emotions/Positive/Happy_1'
p78
aS'.lastUploadedChoregrapheBehavior/Stand/Emotions/Positive/Happy_2'
p79
aS'.lastUploadedChoregrapheBehavior/Stand/Emotions/Positive/Happy_3'
p80
aS'.lastUploadedChoregrapheBehavior/Stand/Emotions/Positive/Happy_4'
p81
aS'.lastUploadedChoregrapheBehavior/Stand/Emotions/Positive/Hungry_1'
p82
aS'.lastUploadedChoregrapheBehavior/Stand/Emotions/Positive/Hysterical_1'
p83
aS'.lastUploadedChoregrapheBehavior/Stand/Emotions/Positive/Interested_1'
p84
aS'.lastUploadedChoregrapheBehavior/Stand/Emotions/Positive/Interested_2'
p85
aS'.lastUploadedChoregrapheBehavior/Stand/Emotions/Positive/Laugh_1'
p86
aS'.lastUploadedChoregrapheBehavior/Stand/Emotions/Positive/Laugh_2'
p87
aS'.lastUploadedChoregrapheBehavior/Stand/Emotions/Positive/Laugh_3'
p88
aS'.lastUploadedChoregrapheBehavior/Stand/Emotions/Positive/Mocker_1'
p89
aS'.lastUploadedChoregrapheBehavior/Stand/Emotions/Positive/Optimistic_1'
p90
aS'.lastUploadedChoregrapheBehavior/Stand/Emotions/Positive/Peaceful_1'
p91
aS'.lastUploadedChoregrapheBehavior/Stand/Emotions/Positive/Proud_1'
p92
aS'.lastUploadedChoregrapheBehavior/Stand/Emotions/Positive/Proud_2'
p93
aS'.lastUploadedChoregrapheBehavior/Stand/Emotions/Positive/Proud_3'
p94
aS'.lastUploadedChoregrapheBehavior/Stand/Emotions/Positive/Relieved_1'
p95
aS'.lastUploadedChoregrapheBehavior/Stand/Emotions/Positive/Shy_1'
p96
aS'.lastUploadedChoregrapheBehavior/Stand/Emotions/Positive/Shy_2'
p97
aS'.lastUploadedChoregrapheBehavior/Stand/Emotions/Positive/Sure_1'
p98
aS'.lastUploadedChoregrapheBehavior/Stand/Emotions/Positive/Winner_1'
p99
aS'.lastUploadedChoregrapheBehavior/Stand/Emotions/Positive/Winner_2'
p100
aS'.lastUploadedChoregrapheBehavior/Stand/Gestures/Angry_1'
p101
aS'.lastUploadedChoregrapheBehavior/Stand/Gestures/Angry_2'
p102
aS'.lastUploadedChoregrapheBehavior/Stand/Gestures/Angry_3'
p103
aS'.lastUploadedChoregrapheBehavior/Stand/Gestures/Applause_1'
p104
aS'.lastUploadedChoregrapheBehavior/Stand/Gestures/BowShort_1'
p105
aS'.lastUploadedChoregrapheBehavior/Stand/Gestures/But_1'
p106
aS'.lastUploadedChoregrapheBehavior/Stand/Gestures/CalmDown_1'
p107
aS'.lastUploadedChoregrapheBehavior/Stand/Gestures/CalmDown_2'
p108
aS'.lastUploadedChoregrapheBehavior/Stand/Gestures/CalmDown_3'
p109
aS'.lastUploadedChoregrapheBehavior/Stand/Gestures/CalmDown_4'
p110
aS'.lastUploadedChoregrapheBehavior/Stand/Gestures/CalmDown_5'
p111
aS'.lastUploadedChoregrapheBehavior/Stand/Gestures/CalmDown_6'
p112
aS'.lastUploadedChoregrapheBehavior/Stand/Gestures/Caress_1'
p113
aS'.lastUploadedChoregrapheBehavior/Stand/Gestures/Caress_2'
p114
aS'.lastUploadedChoregrapheBehavior/Stand/Gestures/CatchFly_1'
p115
aS'.lastUploadedChoregrapheBehavior/Stand/Gestures/CatchFly_2'
p116
aS'.lastUploadedChoregrapheBehavior/Stand/Gestures/Choice_1'
p117
aS'.lastUploadedChoregrapheBehavior/Stand/Gestures/Choice_2'
p118
aS'.lastUploadedChoregrapheBehavior/Stand/Gestures/Claw_1'
p119
aS'.lastUploadedChoregrapheBehavior/Stand/Gestures/Claw_2'
p120
aS'.lastUploadedChoregrapheBehavior/Stand/Gestures/Coaxing_1'
p121
aS'.lastUploadedChoregrapheBehavior/Stand/Gestures/Coaxing_2'
p122
aS'.lastUploadedChoregrapheBehavior/Stand/Gestures/ComeOn_1'
p123
aS'.lastUploadedChoregrapheBehavior/Stand/Gestures/Confused_1'
p124
aS'.lastUploadedChoregrapheBehavior/Stand/Gestures/Confused_2'
p125
aS'.lastUploadedChoregrapheBehavior/Stand/Gestures/CountFive_1'
p126
aS'.lastUploadedChoregrapheBehavior/Stand/Gestures/CountFive_2'
p127
aS'.lastUploadedChoregrapheBehavior/Stand/Gestures/CountFour_1'
p128
aS'.lastUploadedChoregrapheBehavior/Stand/Gestures/CountFour_2'
p129
aS'.lastUploadedChoregrapheBehavior/Stand/Gestures/CountMore_1'
p130
aS'.lastUploadedChoregrapheBehavior/Stand/Gestures/CountMore_2'
p131
aS'.lastUploadedChoregrapheBehavior/Stand/Gestures/CountOne_1'
p132
aS'.lastUploadedChoregrapheBehavior/Stand/Gestures/CountOne_2'
p133
aS'.lastUploadedChoregrapheBehavior/Stand/Gestures/CountThree_1'
p134
aS'.lastUploadedChoregrapheBehavior/Stand/Gestures/CountThree_2'
p135
aS'.lastUploadedChoregrapheBehavior/Stand/Gestures/CountTwo_1'
p136
aS'.lastUploadedChoregrapheBehavior/Stand/Gestures/CountTwo_2'
p137
aS'.lastUploadedChoregrapheBehavior/Stand/Gestures/Desperate_1'
p138
aS'.lastUploadedChoregrapheBehavior/Stand/Gestures/Desperate_2'
p139
aS'.lastUploadedChoregrapheBehavior/Stand/Gestures/Desperate_3'
p140
aS'.lastUploadedChoregrapheBehavior/Stand/Gestures/Desperate_4'
p141
aS'.lastUploadedChoregrapheBehavior/Stand/Gestures/Desperate_5'
p142
aS'.lastUploadedChoregrapheBehavior/Stand/Gestures/Enthusiastic_1'
p143
aS'.lastUploadedChoregrapheBehavior/Stand/Gestures/Enthusiastic_2'
p144
aS'.lastUploadedChoregrapheBehavior/Stand/Gestures/Enthusiastic_3'
p145
aS'.lastUploadedChoregrapheBehavior/Stand/Gestures/Enthusiastic_4'
p146
aS'.lastUploadedChoregrapheBehavior/Stand/Gestures/Enthusiastic_5'
p147
aS'.lastUploadedChoregrapheBehavior/Stand/Gestures/Everything_1'
p148
aS'.lastUploadedChoregrapheBehavior/Stand/Gestures/Everything_2'
p149
aS'.lastUploadedChoregrapheBehavior/Stand/Gestures/Everything_3'
p150
aS'.lastUploadedChoregrapheBehavior/Stand/Gestures/Everything_4'
p151
aS'.lastUploadedChoregrapheBehavior/Stand/Gestures/Everything_5'
p152
aS'.lastUploadedChoregrapheBehavior/Stand/Gestures/Everything_6'
p153
aS'.lastUploadedChoregrapheBehavior/Stand/Gestures/Explain_1'
p154
aS'.lastUploadedChoregrapheBehavior/Stand/Gestures/Explain_10'
p155
aS'.lastUploadedChoregrapheBehavior/Stand/Gestures/Explain_11'
p156
aS'.lastUploadedChoregrapheBehavior/Stand/Gestures/Explain_2'
p157
aS'.lastUploadedChoregrapheBehavior/Stand/Gestures/Explain_3'
p158
aS'.lastUploadedChoregrapheBehavior/Stand/Gestures/Explain_4'
p159
aS'.lastUploadedChoregrapheBehavior/Stand/Gestures/Explain_5'
p160
aS'.lastUploadedChoregrapheBehavior/Stand/Gestures/Explain_6'
p161
aS'.lastUploadedChoregrapheBehavior/Stand/Gestures/Explain_7'
p162
aS'.lastUploadedChoregrapheBehavior/Stand/Gestures/Explain_8'
p163
aS'.lastUploadedChoregrapheBehavior/Stand/Gestures/Explain_9'
p164
aS'.lastUploadedChoregrapheBehavior/Stand/Gestures/Far_1'
p165
aS'.lastUploadedChoregrapheBehavior/Stand/Gestures/Far_2'
p166
aS'.lastUploadedChoregrapheBehavior/Stand/Gestures/Far_3'
p167
aS'.lastUploadedChoregrapheBehavior/Stand/Gestures/Follow_1'
p168
aS'.lastUploadedChoregrapheBehavior/Stand/Gestures/Freeze_1'
p169
aS'.lastUploadedChoregrapheBehavior/Stand/Gestures/Give_1'
p170
aS'.lastUploadedChoregrapheBehavior/Stand/Gestures/Give_2'
p171
aS'.lastUploadedChoregrapheBehavior/Stand/Gestures/Give_3'
p172
aS'.lastUploadedChoregrapheBehavior/Stand/Gestures/Give_4'
p173
aS'.lastUploadedChoregrapheBehavior/Stand/Gestures/Give_5'
p174
aS'.lastUploadedChoregrapheBehavior/Stand/Gestures/Give_6'
p175
aS'.lastUploadedChoregrapheBehavior/Stand/Gestures/Great_1'
p176
aS'.lastUploadedChoregrapheBehavior/Stand/Gestures/HeSays_1'
p177
aS'.lastUploadedChoregrapheBehavior/Stand/Gestures/HeSays_2'
p178
aS'.lastUploadedChoregrapheBehavior/Stand/Gestures/HeSays_3'
p179
aS'.lastUploadedChoregrapheBehavior/Stand/Gestures/Hey_1'
p180
aS'.lastUploadedChoregrapheBehavior/Stand/Gestures/Hey_2'
p181
aS'.lastUploadedChoregrapheBehavior/Stand/Gestures/Hey_3'
p182
aS'.lastUploadedChoregrapheBehavior/Stand/Gestures/Hey_4'
p183
aS'.lastUploadedChoregrapheBehavior/Stand/Gestures/Hey_5'
p184
aS'.lastUploadedChoregrapheBehavior/Stand/Gestures/Hey_6'
p185
aS'.lastUploadedChoregrapheBehavior/Stand/Gestures/Hey_7'
p186
aS'.lastUploadedChoregrapheBehavior/Stand/Gestures/Hide_1'
p187
aS'.lastUploadedChoregrapheBehavior/Stand/Gestures/Hungry_1'
p188
aS'.lastUploadedChoregrapheBehavior/Stand/Gestures/IDontKnow_1'
p189
aS'.lastUploadedChoregrapheBehavior/Stand/Gestures/IDontKnow_2'
p190
aS'.lastUploadedChoregrapheBehavior/Stand/Gestures/IDontKnow_3'
p191
aS'.lastUploadedChoregrapheBehavior/Stand/Gestures/IDontKnow_4'
p192
aS'.lastUploadedChoregrapheBehavior/Stand/Gestures/IDontKnow_5'
p193
aS'.lastUploadedChoregrapheBehavior/Stand/Gestures/IDontKnow_6'
p194
aS'.lastUploadedChoregrapheBehavior/Stand/Gestures/JointHands_1'
p195
aS'.lastUploadedChoregrapheBehavior/Stand/Gestures/JointHands_2'
p196
aS'.lastUploadedChoregrapheBehavior/Stand/Gestures/JointHands_3'
p197
aS'.lastUploadedChoregrapheBehavior/Stand/Gestures/Joy_1'
p198
aS'.lastUploadedChoregrapheBehavior/Stand/Gestures/Kisses_1'
p199
aS'.lastUploadedChoregrapheBehavior/Stand/Gestures/Look_1'
p200
aS'.lastUploadedChoregrapheBehavior/Stand/Gestures/Look_2'
p201
aS'.lastUploadedChoregrapheBehavior/Stand/Gestures/Maybe_1'
p202
aS'.lastUploadedChoregrapheBehavior/Stand/Gestures/Me_1'
p203
aS'.lastUploadedChoregrapheBehavior/Stand/Gestures/Me_2'
p204
aS'.lastUploadedChoregrapheBehavior/Stand/Gestures/Me_3'
p205
aS'.lastUploadedChoregrapheBehavior/Stand/Gestures/Me_4'
p206
aS'.lastUploadedChoregrapheBehavior/Stand/Gestures/Me_5'
p207
aS'.lastUploadedChoregrapheBehavior/Stand/Gestures/Me_6'
p208
aS'.lastUploadedChoregrapheBehavior/Stand/Gestures/Me_7'
p209
aS'.lastUploadedChoregrapheBehavior/Stand/Gestures/Me_8'
p210
aS'.lastUploadedChoregrapheBehavior/Stand/Gestures/Mime_1'
p211
aS'.lastUploadedChoregrapheBehavior/Stand/Gestures/Mime_2'
p212
aS'.lastUploadedChoregrapheBehavior/Stand/Gestures/Next_1'
p213
aS'.lastUploadedChoregrapheBehavior/Stand/Gestures/No_1'
p214
aS'.lastUploadedChoregrapheBehavior/Stand/Gestures/No_2'
p215
aS'.lastUploadedChoregrapheBehavior/Stand/Gestures/No_3'
p216
aS'.lastUploadedChoregrapheBehavior/Stand/Gestures/No_4'
p217
aS'.lastUploadedChoregrapheBehavior/Stand/Gestures/No_5'
p218
aS'.lastUploadedChoregrapheBehavior/Stand/Gestures/No_6'
p219
aS'.lastUploadedChoregrapheBehavior/Stand/Gestures/No_7'
p220
aS'.lastUploadedChoregrapheBehavior/Stand/Gestures/No_8'
p221
aS'.lastUploadedChoregrapheBehavior/Stand/Gestures/No_9'
p222
aS'.lastUploadedChoregrapheBehavior/Stand/Gestures/Nothing_1'
p223
aS'.lastUploadedChoregrapheBehavior/Stand/Gestures/Nothing_2'
p224
aS'.lastUploadedChoregrapheBehavior/Stand/Gestures/OnTheEvening_1'
p225
aS'.lastUploadedChoregrapheBehavior/Stand/Gestures/OnTheEvening_2'
p226
aS'.lastUploadedChoregrapheBehavior/Stand/Gestures/OnTheEvening_3'
p227
aS'.lastUploadedChoregrapheBehavior/Stand/Gestures/OnTheEvening_4'
p228
aS'.lastUploadedChoregrapheBehavior/Stand/Gestures/OnTheEvening_5'
p229
aS'.lastUploadedChoregrapheBehavior/Stand/Gestures/Please_1'
p230
aS'.lastUploadedChoregrapheBehavior/Stand/Gestures/Please_2'
p231
aS'.lastUploadedChoregrapheBehavior/Stand/Gestures/Please_3'
p232
aS'.lastUploadedChoregrapheBehavior/Stand/Gestures/Reject_1'
p233
aS'.lastUploadedChoregrapheBehavior/Stand/Gestures/Reject_2'
p234
aS'.lastUploadedChoregrapheBehavior/Stand/Gestures/Reject_3'
p235
aS'.lastUploadedChoregrapheBehavior/Stand/Gestures/Reject_4'
p236
aS'.lastUploadedChoregrapheBehavior/Stand/Gestures/Reject_5'
p237
aS'.lastUploadedChoregrapheBehavior/Stand/Gestures/Reject_6'
p238
aS'.lastUploadedChoregrapheBehavior/Stand/Gestures/Salute_1'
p239
aS'.lastUploadedChoregrapheBehavior/Stand/Gestures/Salute_2'
p240
aS'.lastUploadedChoregrapheBehavior/Stand/Gestures/Salute_3'
p241
aS'.lastUploadedChoregrapheBehavior/Stand/Gestures/Shoot_1'
p242
aS'.lastUploadedChoregrapheBehavior/Stand/Gestures/ShowFloor_1'
p243
aS'.lastUploadedChoregrapheBehavior/Stand/Gestures/ShowFloor_2'
p244
aS'.lastUploadedChoregrapheBehavior/Stand/Gestures/ShowFloor_3'
p245
aS'.lastUploadedChoregrapheBehavior/Stand/Gestures/ShowFloor_4'
p246
aS'.lastUploadedChoregrapheBehavior/Stand/Gestures/ShowFloor_5'
p247
aS'.lastUploadedChoregrapheBehavior/Stand/Gestures/ShowSky_1'
p248
aS'.lastUploadedChoregrapheBehavior/Stand/Gestures/ShowSky_10'
p249
aS'.lastUploadedChoregrapheBehavior/Stand/Gestures/ShowSky_11'
p250
aS'.lastUploadedChoregrapheBehavior/Stand/Gestures/ShowSky_12'
p251
aS'.lastUploadedChoregrapheBehavior/Stand/Gestures/ShowSky_2'
p252
aS'.lastUploadedChoregrapheBehavior/Stand/Gestures/ShowSky_3'
p253
aS'.lastUploadedChoregrapheBehavior/Stand/Gestures/ShowSky_4'
p254
aS'.lastUploadedChoregrapheBehavior/Stand/Gestures/ShowSky_5'
p255
aS'.lastUploadedChoregrapheBehavior/Stand/Gestures/ShowSky_6'
p256
aS'.lastUploadedChoregrapheBehavior/Stand/Gestures/ShowSky_7'
p257
aS'.lastUploadedChoregrapheBehavior/Stand/Gestures/ShowSky_8'
p258
aS'.lastUploadedChoregrapheBehavior/Stand/Gestures/ShowSky_9'
p259
aS'.lastUploadedChoregrapheBehavior/Stand/Gestures/Shy_1'
p260
aS'.lastUploadedChoregrapheBehavior/Stand/Gestures/Stretch_1'
p261
aS'.lastUploadedChoregrapheBehavior/Stand/Gestures/Stretch_2'
p262
aS'.lastUploadedChoregrapheBehavior/Stand/Gestures/Surprised_1'
p263
aS'.lastUploadedChoregrapheBehavior/Stand/Gestures/Take_1'
p264
aS'.lastUploadedChoregrapheBehavior/Stand/Gestures/Thinking_1'
p265
aS'.lastUploadedChoregrapheBehavior/Stand/Gestures/Thinking_2'
p266
aS'.lastUploadedChoregrapheBehavior/Stand/Gestures/Thinking_3'
p267
aS'.lastUploadedChoregrapheBehavior/Stand/Gestures/Thinking_4'
p268
aS'.lastUploadedChoregrapheBehavior/Stand/Gestures/Thinking_5'
p269
aS'.lastUploadedChoregrapheBehavior/Stand/Gestures/Thinking_6'
p270
aS'.lastUploadedChoregrapheBehavior/Stand/Gestures/Thinking_7'
p271
aS'.lastUploadedChoregrapheBehavior/Stand/Gestures/Thinking_8'
p272
aS'.lastUploadedChoregrapheBehavior/Stand/Gestures/This_1'
p273
aS'.lastUploadedChoregrapheBehavior/Stand/Gestures/This_10'
p274
aS'.lastUploadedChoregrapheBehavior/Stand/Gestures/This_11'
p275
aS'.lastUploadedChoregrapheBehavior/Stand/Gestures/This_12'
p276
aS'.lastUploadedChoregrapheBehavior/Stand/Gestures/This_13'
p277
aS'.lastUploadedChoregrapheBehavior/Stand/Gestures/This_14'
p278
aS'.lastUploadedChoregrapheBehavior/Stand/Gestures/This_15'
p279
aS'.lastUploadedChoregrapheBehavior/Stand/Gestures/This_2'
p280
aS'.lastUploadedChoregrapheBehavior/Stand/Gestures/This_3'
p281
aS'.lastUploadedChoregrapheBehavior/Stand/Gestures/This_4'
p282
aS'.lastUploadedChoregrapheBehavior/Stand/Gestures/This_5'
p283
aS'.lastUploadedChoregrapheBehavior/Stand/Gestures/This_6'
p284
aS'.lastUploadedChoregrapheBehavior/Stand/Gestures/This_7'
p285
aS'.lastUploadedChoregrapheBehavior/Stand/Gestures/This_8'
p286
aS'.lastUploadedChoregrapheBehavior/Stand/Gestures/This_9'
p287
aS'.lastUploadedChoregrapheBehavior/Stand/Gestures/WhatSThis_1'
p288
aS'.lastUploadedChoregrapheBehavior/Stand/Gestures/WhatSThis_10'
p289
aS'.lastUploadedChoregrapheBehavior/Stand/Gestures/WhatSThis_11'
p290
aS'.lastUploadedChoregrapheBehavior/Stand/Gestures/WhatSThis_12'
p291
aS'.lastUploadedChoregrapheBehavior/Stand/Gestures/WhatSThis_13'
p292
aS'.lastUploadedChoregrapheBehavior/Stand/Gestures/WhatSThis_14'
p293
aS'.lastUploadedChoregrapheBehavior/Stand/Gestures/WhatSThis_15'
p294
aS'.lastUploadedChoregrapheBehavior/Stand/Gestures/WhatSThis_16'
p295
aS'.lastUploadedChoregrapheBehavior/Stand/Gestures/WhatSThis_2'
p296
aS'.lastUploadedChoregrapheBehavior/Stand/Gestures/WhatSThis_3'
p297
aS'.lastUploadedChoregrapheBehavior/Stand/Gestures/WhatSThis_4'
p298
aS'.lastUploadedChoregrapheBehavior/Stand/Gestures/WhatSThis_5'
p299
aS'.lastUploadedChoregrapheBehavior/Stand/Gestures/WhatSThis_6'
p300
aS'.lastUploadedChoregrapheBehavior/Stand/Gestures/WhatSThis_7'
p301
aS'.lastUploadedChoregrapheBehavior/Stand/Gestures/WhatSThis_8'
p302
aS'.lastUploadedChoregrapheBehavior/Stand/Gestures/WhatSThis_9'
p303
aS'.lastUploadedChoregrapheBehavior/Stand/Gestures/Wings_1'
p304
aS'.lastUploadedChoregrapheBehavior/Stand/Gestures/Wings_2'
p305
aS'.lastUploadedChoregrapheBehavior/Stand/Gestures/Wings_3'
p306
aS'.lastUploadedChoregrapheBehavior/Stand/Gestures/Wings_4'
p307
aS'.lastUploadedChoregrapheBehavior/Stand/Gestures/Wings_5'
p308
aS'.lastUploadedChoregrapheBehavior/Stand/Gestures/Yes_1'
p309
aS'.lastUploadedChoregrapheBehavior/Stand/Gestures/Yes_2'
p310
aS'.lastUploadedChoregrapheBehavior/Stand/Gestures/Yes_3'
p311
aS'.lastUploadedChoregrapheBehavior/Stand/Gestures/You_1'
p312
aS'.lastUploadedChoregrapheBehavior/Stand/Gestures/You_2'
p313
aS'.lastUploadedChoregrapheBehavior/Stand/Gestures/You_3'
p314
aS'.lastUploadedChoregrapheBehavior/Stand/Gestures/You_4'
p315
aS'.lastUploadedChoregrapheBehavior/Stand/Gestures/You_5'
p316
aS'.lastUploadedChoregrapheBehavior/Stand/Gestures/YouKnowWhat_1'
p317
aS'.lastUploadedChoregrapheBehavior/Stand/Gestures/YouKnowWhat_2'
p318
aS'.lastUploadedChoregrapheBehavior/Stand/Gestures/YouKnowWhat_3'
p319
aS'.lastUploadedChoregrapheBehavior/Stand/Gestures/YouKnowWhat_4'
p320
aS'.lastUploadedChoregrapheBehavior/Stand/Gestures/YouKnowWhat_5'
p321
aS'.lastUploadedChoregrapheBehavior/Stand/Gestures/YouKnowWhat_6'
p322
aS'.lastUploadedChoregrapheBehavior/Stand/Gestures/Yum_1'
p323
aS'.lastUploadedChoregrapheBehavior/Stand/Reactions/BumperLeft_1'
p324
aS'.lastUploadedChoregrapheBehavior/Stand/Reactions/BumperRight_1'
p325
aS'.lastUploadedChoregrapheBehavior/Stand/Reactions/Bumpers_1'
p326
aS'.lastUploadedChoregrapheBehavior/Stand/Reactions/Bumpers_2'
p327
aS'.lastUploadedChoregrapheBehavior/Stand/Reactions/Bumpers_3'
p328
aS'.lastUploadedChoregrapheBehavior/Stand/Reactions/EthernetOff_1'
p329
aS'.lastUploadedChoregrapheBehavior/Stand/Reactions/EthernetOn_1'
p330
aS'.lastUploadedChoregrapheBehavior/Stand/Reactions/Heat_1'
p331
aS'.lastUploadedChoregrapheBehavior/Stand/Reactions/Heat_2'
p332
aS'.lastUploadedChoregrapheBehavior/Stand/Reactions/LightShine_1'
p333
aS'.lastUploadedChoregrapheBehavior/Stand/Reactions/LightShine_2'
p334
aS'.lastUploadedChoregrapheBehavior/Stand/Reactions/LightShine_3'
p335
aS'.lastUploadedChoregrapheBehavior/Stand/Reactions/LightShine_4'
p336
aS'.lastUploadedChoregrapheBehavior/Stand/Reactions/SeeColor_1'
p337
aS'.lastUploadedChoregrapheBehavior/Stand/Reactions/SeeColor_2'
p338
aS'.lastUploadedChoregrapheBehavior/Stand/Reactions/SeeColor_3'
p339
aS'.lastUploadedChoregrapheBehavior/Stand/Reactions/SeeSomething_1'
p340
aS'.lastUploadedChoregrapheBehavior/Stand/Reactions/SeeSomething_3'
p341
aS'.lastUploadedChoregrapheBehavior/Stand/Reactions/SeeSomething_4'
p342
aS'.lastUploadedChoregrapheBehavior/Stand/Reactions/SeeSomething_5'
p343
aS'.lastUploadedChoregrapheBehavior/Stand/Reactions/SeeSomething_6'
p344
aS'.lastUploadedChoregrapheBehavior/Stand/Reactions/SeeSomething_7'
p345
aS'.lastUploadedChoregrapheBehavior/Stand/Reactions/SeeSomething_8'
p346
aS'.lastUploadedChoregrapheBehavior/Stand/Reactions/ShakeBody_1'
p347
aS'.lastUploadedChoregrapheBehavior/Stand/Reactions/ShakeBody_2'
p348
aS'.lastUploadedChoregrapheBehavior/Stand/Reactions/ShakeBody_3'
p349
aS'.lastUploadedChoregrapheBehavior/Stand/Reactions/TouchHead_1'
p350
aS'.lastUploadedChoregrapheBehavior/Stand/Reactions/TouchHead_2'
p351
aS'.lastUploadedChoregrapheBehavior/Stand/Reactions/TouchHead_3'
p352
aS'.lastUploadedChoregrapheBehavior/Stand/Reactions/TouchHead_4'
p353
aS'.lastUploadedChoregrapheBehavior/Stand/Waiting/AirGuitar_1'
p354
aS'.lastUploadedChoregrapheBehavior/Stand/Waiting/AirJuggle_1'
p355
aS'.lastUploadedChoregrapheBehavior/Stand/Waiting/BackRubs_1'
p356
aS'.lastUploadedChoregrapheBehavior/Stand/Waiting/Bandmaster_1'
p357
aS'.lastUploadedChoregrapheBehavior/Stand/Waiting/Binoculars_1'
p358
aS'.lastUploadedChoregrapheBehavior/Stand/Waiting/CallSomeone_1'
p359
aS'.lastUploadedChoregrapheBehavior/Stand/Waiting/Drink_1'
p360
aS'.lastUploadedChoregrapheBehavior/Stand/Waiting/DriveCar_1'
p361
aS'.lastUploadedChoregrapheBehavior/Stand/Waiting/Fitness_1'
p362
aS'.lastUploadedChoregrapheBehavior/Stand/Waiting/Fitness_2'
p363
aS'.lastUploadedChoregrapheBehavior/Stand/Waiting/Fitness_3'
p364
aS'.lastUploadedChoregrapheBehavior/Stand/Waiting/FunnyDancer_1'
p365
aS'.lastUploadedChoregrapheBehavior/Stand/Waiting/FunnySlide_1'
p366
aS'.lastUploadedChoregrapheBehavior/Stand/Waiting/HappyBirthday_1'
p367
aS'.lastUploadedChoregrapheBehavior/Stand/Waiting/Headbang_1'
p368
aS'.lastUploadedChoregrapheBehavior/Stand/Waiting/Helicopter_1'
p369
aS'.lastUploadedChoregrapheBehavior/Stand/Waiting/HideEyes_1'
p370
aS'.lastUploadedChoregrapheBehavior/Stand/Waiting/HideHands_1'
p371
aS'.lastUploadedChoregrapheBehavior/Stand/Waiting/Innocent_1'
p372
aS'.lastUploadedChoregrapheBehavior/Stand/Waiting/Knight_1'
p373
aS'.lastUploadedChoregrapheBehavior/Stand/Waiting/KnockEye_1'
p374
aS'.lastUploadedChoregrapheBehavior/Stand/Waiting/KungFu_1'
p375
aS'.lastUploadedChoregrapheBehavior/Stand/Waiting/LookHand_1'
p376
aS'.lastUploadedChoregrapheBehavior/Stand/Waiting/LookHand_2'
p377
aS'.lastUploadedChoregrapheBehavior/Stand/Waiting/LoveYou_1'
p378
aS'.lastUploadedChoregrapheBehavior/Stand/Waiting/Monster_1'
p379
aS'.lastUploadedChoregrapheBehavior/Stand/Waiting/MysticalPower_1'
p380
aS'.lastUploadedChoregrapheBehavior/Stand/Waiting/PlayHands_1'
p381
aS'.lastUploadedChoregrapheBehavior/Stand/Waiting/PlayHands_2'
p382
aS'.lastUploadedChoregrapheBehavior/Stand/Waiting/PlayHands_3'
p383
aS'.lastUploadedChoregrapheBehavior/Stand/Waiting/Relaxation_1'
p384
aS'.lastUploadedChoregrapheBehavior/Stand/Waiting/Relaxation_2'
p385
aS'.lastUploadedChoregrapheBehavior/Stand/Waiting/Relaxation_3'
p386
aS'.lastUploadedChoregrapheBehavior/Stand/Waiting/Relaxation_4'
p387
aS'.lastUploadedChoregrapheBehavior/Stand/Waiting/Rest_1'
p388
aS'.lastUploadedChoregrapheBehavior/Stand/Waiting/Robot_1'
p389
aS'.lastUploadedChoregrapheBehavior/Stand/Waiting/ScratchBack_1'
p390
aS'.lastUploadedChoregrapheBehavior/Stand/Waiting/ScratchBottom_1'
p391
aS'.lastUploadedChoregrapheBehavior/Stand/Waiting/ScratchEye_1'
p392
aS'.lastUploadedChoregrapheBehavior/Stand/Waiting/ScratchHand_1'
p393
aS'.lastUploadedChoregrapheBehavior/Stand/Waiting/ScratchHead_1'
p394
aS'.lastUploadedChoregrapheBehavior/Stand/Waiting/ScratchLeg_1'
p395
aS'.lastUploadedChoregrapheBehavior/Stand/Waiting/ScratchTorso_1'
p396
aS'.lastUploadedChoregrapheBehavior/Stand/Waiting/ShowMuscles_1'
p397
aS'.lastUploadedChoregrapheBehavior/Stand/Waiting/ShowMuscles_2'
p398
aS'.lastUploadedChoregrapheBehavior/Stand/Waiting/ShowMuscles_3'
p399
aS'.lastUploadedChoregrapheBehavior/Stand/Waiting/ShowMuscles_4'
p400
aS'.lastUploadedChoregrapheBehavior/Stand/Waiting/ShowMuscles_5'
p401
aS'.lastUploadedChoregrapheBehavior/Stand/Waiting/ShowSky_1'
p402
aS'.lastUploadedChoregrapheBehavior/Stand/Waiting/ShowSky_2'
p403
aS'.lastUploadedChoregrapheBehavior/Stand/Waiting/SpaceShuttle_1'
p404
aS'.lastUploadedChoregrapheBehavior/Stand/Waiting/Stretch_1'
p405
aS'.lastUploadedChoregrapheBehavior/Stand/Waiting/Stretch_2'
p406
aS'.lastUploadedChoregrapheBehavior/Stand/Waiting/Stretch_3'
p407
aS'.lastUploadedChoregrapheBehavior/Stand/Waiting/TakePicture_1'
p408
aS'.lastUploadedChoregrapheBehavior/Stand/Waiting/Taxi_1'
p409
aS'.lastUploadedChoregrapheBehavior/Stand/Waiting/Think_1'
p410
aS'.lastUploadedChoregrapheBehavior/Stand/Waiting/Think_2'
p411
aS'.lastUploadedChoregrapheBehavior/Stand/Waiting/Think_3'
p412
aS'.lastUploadedChoregrapheBehavior/Stand/Waiting/Think_4'
p413
aS'.lastUploadedChoregrapheBehavior/Stand/Waiting/Vacuum_1'
p414
aS'.lastUploadedChoregrapheBehavior/Stand/Waiting/Waddle_1'
p415
aS'.lastUploadedChoregrapheBehavior/Stand/Waiting/Waddle_2'
p416
aS'.lastUploadedChoregrapheBehavior/Stand/Waiting/WakeUp_1'
p417
aS'.lastUploadedChoregrapheBehavior/Stand/Waiting/WalkInTheShit_1'
p418
aS'.lastUploadedChoregrapheBehavior/Stand/Waiting/Zombie_1'
p419
a.