(dp0
S'LWristYaw'
p1
(lp2
F-1.218692
aF-1.201725
aF-0.729304
aF-1.217743
aF-1.208029
aF-0.915727
aF-1.213974
aF-1.195195
aF-1.177261
aF-0.278549
aF-0.198599
aF-0.900266
aF-0.728707
aF-1.178824
aF-0.829129
aF-1.027274
aF-1.181661
aF-1.196452
aF-1.203081
aF-0.728916
aF-1.209115
aF-0.396957
aF-1.188665
aF-1.196834
aF-0.540201
aF-0.729569
aF-1.198223
aF-1.177373
aF-0.435028
aF-1.177683
aF-1.216087
aF-0.369195
aF-0.739401
aF-0.521478
aF-0.804814
aF-1.212113
aF-1.183371
aF-1.162758
aF-0.342457
aF-0.712619
aF-1.219504
aF-1.058196
aF-1.172655
aF-1.178824
aF-1.184595
aF-0.454307
aF-0.737625
aF-1.189607
aF-1.177181
aF-1.087721
aF-1.218961
aF-0.729915
aF-1.193355
aF-0.728718
aF-0.246074
aF-1.191773
aF-0.203005
aF-1.184305
aF-0.680596
aF-0.668597
aF-0.567547
aF-1.200384
aF-0.558545
aF-1.187789
aF-0.301023
aF-0.979429
aF-1.152022
aF-0.75911
aF-1.196452
aF-1.216087
aF-1.199054
aF-0.748282
aF-0.435028
aF-0.715807
aF-0.728823
aF-0.700911
aF-0.730053
aF-0.728696
aF-0.728694
aF-0.691395
aF-0.728748
aF-0.203005
aF-1.215158
aF-0.85608
aF-1.197741
aF-1.177514
aF-0.728955
aF-0.41588
aF-0.723163
aF-0.483268
aF-0.885126
aF-1.219417
aF-0.728704
aF-1.177247
aF-0.729472
aF-0.342457
aF-0.473624
aF-0.396957
aF-1.181642
aF-0.512004
aF-0.729789
aF-1.210485
aF-1.203067
aF-0.931441
aF-0.732361
aF-1.21952
aF-1.202937
aF-0.240431
aF-1.027274
aF-1.177878
aF-0.947341
aF-0.285815
aF-1.186234
aF-1.178295
aF-1.187283
aF-1.215765
aF-0.728736
aF-0.741662
aF-1.18698
aF-0.995483
aF-0.610382
aF-0.728799
aF-1.210485
aF-0.674741
aF-1.181642
aF-0.731273
aF-1.181181
aF-1.191773
aF-1.209544
aF-1.196589
aF-1.216909
aF-0.729104
aF-0.691395
aF-1.190228
aF-0.73622
aF-0.870375
aF-0.37835
aF-0.766256
aF-0.85608
aF-0.72885
aF-0.728694
aF-1.178911
aF-0.734197
aF-0.73194
aF-0.492887
aF-1.180291
aF-0.729231
aF-1.178616
aF-0.203005
aF-0.829129
aF-1.179939
aF-1.177181
aF-1.219532
aF-0.641353
aF-1.180291
aF-0.576419
aF-0.729304
aF-1.101795
aF-0.728999
aF-0.728699
aF-0.258248
aF-1.192803
aF-1.183725
aF-1.219304
aF-0.351236
aF-1.177878
aF-0.342457
aF-1.178345
aF-0.530881
aF-0.730205
aF-1.206191
aF-0.735099
aF-1.178345
aF-1.208029
aF-0.995483
aF-0.258248
aF-1.178099
aF-1.042877
aF-1.207032
aF-1.199054
aF-0.210279
aF-1.216526
aF-0.50247
aF-0.240431
aF-0.728762
aF-1.194963
aF-0.816608
aF-0.549426
aF-0.979429
aF-1.201478
aF-1.219482
aF-0.73056
aF-1.207681
aF-0.730373
aF-0.213504
aF-1.219108
aF-0.774467
aF-1.217188
aF-0.731582
aF-0.744557
aF-0.842309
aF-0.735099
aF-1.177514
aF-1.211782
aF-1.217619
aF-1.21296
aF-0.360153
aF-1.17923
aF-0.207447
aF-0.217108
aF-1.216909
aF-1.216526
aF-0.730769
aF-0.726249
aF-0.733464
aF-0.333827
aF-0.58515
aF-0.252017
aF-0.199296
aF-0.728704
aF-0.301023
aF-1.177389
aF-1.218182
aF-1.011453
aF-0.602143
aF-0.733464
aF-1.218213
aF-0.729164
aF-1.189733
aF-1.184305
aF-1.214126
aF-1.18491
aF-1.042877
aF-0.483268
aF-0.271525
aF-1.209544
aF-1.073166
aF-1.215158
aF-1.181209
aF-0.593729
aF-0.728695
aF-1.204404
aF-0.662175
aF-0.308943
aF-0.728695
aF-0.317058
aF-0.221081
aF-1.219219
aF-0.425432
aF-1.180743
aF-0.200212
aF-1.218515
aF-0.728693
aF-0.96336
aF-1.204655
aF-0.793814
aF-0.285815
aF-0.724883
aF-1.218961
aF-1.115324
aF-0.728695
aF-0.633932
aF-0.728693
aF-0.728779
aF-0.37835
aF-0.73622
aF-0.406385
aF-0.387608
aF-1.178616
aF-1.183725
aF-1.177389
aF-0.633932
aF-1.042877
aF-0.50247
aF-1.179492
aF-0.731005
aF-0.728823
aF-0.728726
aF-1.180329
aF-1.205728
aF-0.783676
aF-1.058196
aF-1.185548
aF-1.140498
aF-1.128246
aF-0.730373
aF-0.655487
aF-1.182239
aF-0.783676
aF-0.235098
aF-0.728693
aF-0.230088
aF-1.19168
aF-0.729674
aF-1.181661
aF-0.221081
aF-1.185902
aF-0.718628
aF-1.209115
aF-1.215765
aF-1.1776
aF-1.190613
aF-1.219504
aF-0.72108
aF-0.662175
aF-1.183725
aF-0.729789
aF-1.193977
aF-0.325357
aF-0.728697
aF-1.211879
aF-0.705165
aF-0.454307
aF-1.188728
aF-0.75911
aF-0.618435
aF-1.177896
aF-1.18698
aF-1.210738
aF-0.842309
aF-1.212998
aF-1.182127
aF-0.70907
aF-1.042877
aF-0.753096
aF-0.728712
aF-0.728726
aF-0.729472
aF-1.183168
aF-1.190613
aF-1.182636
aF-0.730769
aF-1.219454
aF-1.177135
aF-0.626288
aF-1.219304
aF-1.178295
aF-1.213974
aF-0.728881
aF-0.729384
aF-0.729049
aF-0.728955
aF-1.208306
aF-0.691395
aF-0.732862
aF-1.152022
aF-0.68615
aF-0.512004
aF-0.567547
aF-0.696318
aF-0.230088
aF-0.201418
aF-0.444657
aF-0.29331
aF-0.729569
aF-1.219368
aF-1.177162
aF-1.214911
aF-0.648542
aF-0.225412
aF-0.728762
aF-0.602143
aF-0.463966
aF-1.179572
aF-0.70907
aF-1.180291
aF-1.218769
aF-0.264754
aF-0.705165
asS'RWristYaw'
p3
(lp4
F1.01098
aF1.011256
aF0.826265
aF1.010881
aF1.006196
aF0.892864
aF1.010931
aF1.011514
aF1.014765
aF0.09149
aF0.031083
aF0.887231
aF0.825264
aF1.015347
aF0.862365
aF0.934888
aF0.995595
aF1.011458
aF1.01296
aF0.825555
aF1.012213
aF0.25974
aF1.011892
aF1.001685
aF0.493747
aF0.826777
aF1.01354
aF1.014652
aF0.319812
aF1.014409
aF1.011321
aF0.21728
aF0.835829
aF0.462087
aF0.854506
aF1.007846
aF1.015092
aF0.98804
aF0.17775
aF0.796058
aF1.010864
aF0.946854
aF0.991991
aF1.015347
aF1.014989
aF0.335291
aF0.834982
aF1.011824
aF1.01487
aF0.958376
aF1.010869
aF0.827445
aF1.014097
aF0.825274
aF0.055805
aF1.014271
aF0.031973
aF1.012345
aF0.738525
aF0.717138
aF0.540443
aF1.011303
aF0.525015
aF1.011961
aF0.120102
aF0.916614
aF0.983764
aF0.841818
aF1.011458
aF1.011321
aF1.011352
aF0.838968
aF0.319812
aF0.801825
aF0.825407
aF0.774942
aF0.827706
aF0.825253
aF0.825251
aF0.757849
aF0.825306
aF0.031973
aF1.011442
aF0.871535
aF1.011404
aF1.014533
aF0.825622
aF0.28936
aF0.815171
aF0.398344
aF0.881779
aF1.010865
aF0.82526
aF1.015202
aF0.82642
aF0.17775
aF0.382457
aF0.25974
aF1.012832
aF0.446169
aF0.827204
aF1.01204
aF1.011211
aF0.898648
aF0.831135
aF1.010864
aF1.004142
aF0.05068
aF0.934888
aF1.01428
aF0.904554
aF0.100475
aF1.012107
aF1.015347
aF1.014737
aF1.010903
aF0.825292
aF0.836763
aF1.012033
aF0.916614
aF0.614586
aF0.825373
aF1.01204
aF0.728078
aF1.012832
aF0.829749
aF1.012949
aF1.014271
aF1.011027
aF1.01373
aF1.011214
aF0.825888
aF0.757849
aF1.014436
aF0.834209
aF0.876537
aF0.231139
aF0.843593
aF0.871535
aF0.825449
aF0.825251
aF1.013739
aF0.83284
aF0.830641
aF0.414274
aF1.015298
aF0.826126
aF1.013876
aF0.031973
aF0.858257
aF1.013331
aF1.01487
aF1.010864
aF0.668895
aF1.015298
aF0.555702
aF0.826126
aF0.963899
aF0.825699
aF0.825256
aF0.068138
aF1.011632
aF1.012431
aF1.010865
aF0.190562
aF1.01428
aF0.17775
aF1.014013
aF0.477954
aF0.827988
aF1.012578
aF0.833497
aF1.014013
aF1.006196
aF0.92271
aF0.068138
aF1.014148
aF0.940912
aF1.011092
aF1.011352
aF0.033679
aF1.010893
aF0.430223
aF0.05068
aF0.825323
aF1.013916
aF0.858257
aF0.509441
aF0.916614
aF1.013154
aF1.010864
aF0.828619
aF1.012393
aF0.828292
aF0.034639
aF1.010868
aF0.845688
aF1.010886
aF0.83018
aF0.837801
aF0.862365
aF0.833497
aF1.014533
aF1.011875
aF1.011121
aF1.01095
aF0.203747
aF1.013602
aF0.032949
aF0.035902
aF1.011214
aF1.010893
aF0.82897
aF0.820787
aF0.832231
aF0.165334
aF0.57077
aF0.061632
aF0.031224
aF0.82526
aF0.120102
aF1.015258
aF1.010877
aF0.928811
aF0.600235
aF0.832231
aF1.011043
aF0.826
aF0.998832
aF1.012345
aF1.011575
aF1.012263
aF0.940912
aF0.398344
aF0.083091
aF1.011027
aF0.952685
aF1.011442
aF1.015248
aF0.585622
aF0.825252
aF1.011169
aF0.705727
aF0.130698
aF0.825251
aF0.141785
aF0.037564
aF1.010867
aF0.304494
aF1.013072
aF0.031409
aF1.010873
aF0.82525
aF0.910552
aF1.012767
aF0.851141
aF0.100475
aF0.8183
aF1.010869
aF0.969227
aF0.825252
aF0.655828
aF0.82525
aF0.825346
aF0.231139
aF0.833497
aF0.274434
aF0.2453
aF1.013876
aF1.012431
aF1.015258
aF0.655828
aF0.940912
aF0.430223
aF1.015331
aF0.829346
aF0.825373
aF0.825282
aF1.0132
aF1.011129
aF0.848192
aF0.946854
aF1.012184
aF0.979186
aF0.974332
aF0.828292
aF0.693867
aF1.015179
aF0.848192
aF0.04628
aF0.82525
aF0.04263
aF1.011694
aF0.826981
aF0.995595
aF0.037564
aF1.01487
aF0.806936
aF1.012213
aF1.010903
aF1.015258
aF1.011758
aF1.010864
aF0.811386
aF0.705727
aF1.012431
aF0.827204
aF1.011572
aF0.153338
aF0.825254
aF1.010973
aF0.782601
aF0.350907
aF1.014592
aF0.841818
aF0.62865
aF1.015331
aF1.012033
aF1.010998
aF0.866801
aF1.01172
aF1.012721
aF0.789645
aF0.940912
aF0.840294
aF0.825268
aF0.825282
aF0.82659
aF1.012522
aF1.011758
aF1.012618
aF0.82897
aF1.010864
aF1.014968
aF0.642406
aF1.010866
aF1.015347
aF1.010931
aF0.825498
aF0.82642
aF0.825788
aF0.825622
aF1.011058
aF0.757849
aF0.831663
aF0.983764
aF0.748456
aF0.446169
aF0.540443
aF0.766685
aF0.04263
aF0.031652
aF0.335291
aF0.11002
aF0.82659
aF1.010865
aF1.015134
aF1.010915
aF0.681582
aF0.039752
aF0.825323
aF0.600235
aF0.366637
aF1.013466
aF0.789645
aF1.015298
aF1.010871
aF0.075299
aF0.782601
asS'HeadYaw'
p5
(lp6
F-0.108343
aF-0.168725
aF-0.081961
aF-0.081799
aF-0.152237
aF-0.433952
aF-0.105945
aF-0.192871
aF0.127586
aF0.074357
aF-0.127364
aF-0.413548
aF-0.084261
aF-0.183939
aF-0.295337
aF-0.510863
aF-0.261671
aF-0.184546
aF-0.379652
aF-0.082991
aF-0.302135
aF0.271208
aF-0.200728
aF-0.203988
aF-0.43638
aF-0.081517
aF-0.422585
aF0.141557
aF0.168235
aF0.153358
aF-0.175638
aF0.269284
aF-0.081674
aF-0.323945
aF-0.245992
aF-0.129823
aF-0.352718
aF-0.321332
aF0.237056
aF-0.289913
aF-0.07214
aF-0.508226
aF-0.291502
aF-0.183939
aF-0.379185
aF0.125794
aF-0.07981
aF-0.20253
aF0.108929
aF-0.472627
aF-0.072565
aF-0.081093
aF-0.444818
aF-0.084125
aF-0.036282
aF-0.443399
aF-0.127364
aF-0.129365
aF-0.510426
aF-0.566526
aF-0.577897
aF-0.174366
aF-0.535456
aF-0.195527
aF0.142944
aF-0.494971
aF-0.350668
aF-0.121503
aF-0.188969
aF-0.175638
aF-0.179658
aF-0.107278
aF0.168235
aF-0.259726
aF-0.083393
aF-0.385076
aF-0.080959
aF-0.084412
aF-0.084412
aF-0.480239
aF-0.083854
aF-0.127364
aF-0.195656
aF-0.344681
aF-0.184546
aF0.150321
aF-0.082849
aF0.23475
aF-0.178369
aF-0.085717
aF-0.391671
aF-0.07214
aF-0.084314
aF-0.002144
aF-0.081663
aF0.221539
aF-0.028247
aF0.271208
aF-0.024586
aF-0.264805
aF-0.081231
aF-0.280839
aF-0.162795
aF-0.452591
aF-0.080024
aF-0.07214
aF-0.177124
aF-0.05538
aF-0.510863
aF0.151556
aF-0.46917
aF0.097587
aF-0.176168
aF-0.146539
aF-0.420664
aF-0.095011
aF-0.083952
aF-0.087069
aF-0.187238
aF-0.494971
aF-0.68574
aF-0.083517
aF-0.280839
aF-0.539298
aF-0.024586
aF-0.080269
aF-0.002394
aF-0.446436
aF-0.130825
aF-0.432636
aF-0.156642
aF-0.08241
aF-0.449066
aF-0.443399
aF-0.079816
aF-0.368618
aF0.274333
aF-0.156721
aF-0.344681
aF-0.083263
aF-0.084412
aF0.113455
aF-0.079866
aF-0.080097
aF-0.144856
aF-0.256657
aF-0.082111
aF0.126996
aF-0.127364
aF-0.270517
aF0.061091
aF0.108929
aF-0.07214
aF-0.65243
aF-0.256657
aF-0.614494
aF-0.082111
aF-0.45318
aF-0.082705
aF-0.084387
aF0.00577
aF-0.198879
aF-0.110263
aF-0.07214
aF0.250369
aF0.151556
aF0.237056
aF0.138066
aF-0.381415
aF-0.080829
aF-0.342938
aF-0.079835
aF0.126996
aF-0.152237
aF-0.503604
aF0.00577
aF0.146356
aF-0.508226
aF-0.143845
aF-0.179658
aF-0.127364
aF-0.090124
aF-0.204831
aF-0.05538
aF-0.083748
aF-0.440132
aF-0.270517
aF-0.488005
aF-0.494971
aF-0.395837
aF-0.07214
aF-0.080586
aF-0.32292
aF-0.080705
aF-0.12562
aF-0.07214
aF-0.177126
aF-0.085701
aF-0.080179
aF-0.095702
aF-0.295337
aF-0.079835
aF0.150321
aF-0.259288
aF-0.138924
aF-0.111875
aF0.261204
aF0.097751
aF-0.127364
aF-0.12057
aF-0.156642
aF-0.090124
aF-0.080474
aF-0.135089
aF-0.079908
aF0.221539
aF-0.644412
aF-0.015807
aF-0.127364
aF-0.084356
aF0.142944
aF-0.036421
aF-0.078476
aF-0.508999
aF-0.68087
aF-0.079908
aF-0.122739
aF-0.082261
aF-0.232335
aF-0.129365
aF-0.216441
aF-0.146922
aF-0.508226
aF-0.085717
aF0.051127
aF-0.130825
aF-0.488614
aF-0.195656
aF-0.290934
aF-0.666815
aF-0.084412
aF-0.156633
aF-0.591782
aF0.164521
aF-0.084412
aF0.184996
aF-0.11249
aF-0.07214
aF0.204832
aF0.019488
aF-0.127364
aF-0.075791
aF-0.084412
aF-0.483395
aF-0.361934
aF-0.222056
aF0.097587
aF-0.155414
aF-0.072565
aF-0.430766
aF-0.084412
aF-0.66651
aF-0.084412
aF-0.083636
aF0.274333
aF-0.079816
aF0.257153
aF0.276078
aF0.126996
aF-0.110263
aF-0.036421
aF-0.66651
aF-0.510863
aF-0.204831
aF-0.220819
aF-0.080368
aF-0.083517
aF-0.084043
aF0.040753
aF-0.150297
aF-0.199002
aF-0.500645
aF-0.162626
aF-0.379015
aF-0.405879
aF-0.080705
aF-0.614738
aF-0.323128
aF-0.199002
aF-0.072825
aF-0.084412
aF-0.088342
aF-0.200869
aF-0.081372
aF-0.261671
aF-0.11249
aF-0.402007
aF-0.230854
aF-0.302135
aF-0.095011
aF-0.036421
aF-0.202105
aF-0.07214
aF-0.203626
aF-0.591782
aF-0.110263
aF-0.081231
aF-0.196194
aF0.204094
aF-0.084406
aF-0.118037
aF-0.352917
aF0.078343
aF-0.434635
aF-0.138082
aF-0.683494
aF-0.109139
aF-0.187238
aF-0.124373
aF-0.320156
aF-0.237737
aF-0.046777
aF-0.321086
aF-0.508226
aF-0.121503
aF-0.084198
aF-0.084125
aF-0.081663
aF-0.089925
aF-0.202105
aF-0.089925
aF-0.080474
aF-0.07214
aF0.086107
aF-0.676974
aF-0.07214
aF-0.146539
aF-0.105945
aF-0.083129
aF-0.081812
aF-0.082559
aF-0.082849
aF-0.137335
aF-0.449066
aF-0.079961
aF-0.350668
aF-0.480239
aF-0.264805
aF-0.577897
aF-0.417235
aF-0.088342
aF-0.127364
aF0.125794
aF0.120541
aF-0.081663
aF-0.07214
aF0.03005
aF-0.100304
aF-0.635063
aF-0.101655
aF-0.083748
aF-0.68087
aF0.026718
aF0.080193
aF-0.321086
aF-0.256657
aF-0.073801
aF0.028173
aF-0.352917
asS'RHipPitch'
p7
(lp8
F0.193243
aF0.193243
aF0.236102
aF0.193243
aF0.195464
aF0.224592
aF0.193243
aF0.193243
aF0.193243
aF0.187901
aF0.184038
aF0.225836
aF0.236194
aF0.193243
aF0.231105
aF0.21488
aF0.198987
aF0.193243
aF0.193243
aF0.236173
aF0.193243
aF0.19846
aF0.193243
aF0.197055
aF0.213119
aF0.236048
aF0.193243
aF0.193243
aF0.201249
aF0.193243
aF0.193243
aF0.195813
aF0.235107
aF0.211119
aF0.23265
aF0.194812
aF0.193243
aF0.201209
aF0.193344
aF0.233374
aF0.193243
aF0.213426
aF0.200065
aF0.193243
aF0.193243
aF0.20317
aF0.235185
aF0.193243
aF0.193243
aF0.209103
aF0.193243
aF0.235976
aF0.193243
aF0.236194
aF0.185571
aF0.193243
aF0.184038
aF0.193243
aF0.229143
aF0.227665
aF0.215103
aF0.193243
aF0.215103
aF0.193243
aF0.189721
aF0.219194
aF0.202412
aF0.234757
aF0.193243
aF0.193243
aF0.193243
aF0.234851
aF0.202204
aF0.233842
aF0.236186
aF0.231756
aF0.235947
aF0.236194
aF0.236194
aF0.229841
aF0.236193
aF0.184038
aF0.193243
aF0.229213
aF0.193243
aF0.193243
aF0.236166
aF0.200306
aF0.235009
aF0.207113
aF0.227025
aF0.193243
aF0.236194
aF0.193243
aF0.236086
aF0.192567
aF0.206118
aF0.19846
aF0.193243
aF0.210116
aF0.236002
aF0.193243
aF0.193243
aF0.223299
aF0.235574
aF0.193243
aF0.196213
aF0.185223
aF0.21633
aF0.193243
aF0.221964
aF0.188476
aF0.193243
aF0.193243
aF0.193243
aF0.193243
aF0.236193
aF0.235026
aF0.193243
aF0.219194
aF0.220856
aF0.236188
aF0.193243
aF0.228417
aF0.193243
aF0.235724
aF0.193243
aF0.193243
aF0.193243
aF0.193243
aF0.193243
aF0.23614
aF0.23051
aF0.193243
aF0.235259
aF0.228153
aF0.196677
aF0.234495
aF0.229213
aF0.236182
aF0.236194
aF0.193243
aF0.235395
aF0.235627
aF0.208112
aF0.193243
aF0.236116
aF0.193243
aF0.184038
aF0.231924
aF0.193243
aF0.193243
aF0.193243
aF0.224419
aF0.193243
aF0.217061
aF0.236116
aF0.207696
aF0.236159
aF0.236194
aF0.18639
aF0.193243
aF0.193243
aF0.193243
aF0.194145
aF0.193243
aF0.193344
aF0.193243
aF0.21212
aF0.235917
aF0.193243
aF0.235329
aF0.193243
aF0.195464
aF0.21777
aF0.18639
aF0.193243
aF0.213426
aF0.193243
aF0.193243
aF0.184038
aF0.193243
aF0.209113
aF0.185223
aF0.236192
aF0.193243
aF0.231924
aF0.214114
aF0.219194
aF0.193243
aF0.193243
aF0.235848
aF0.193243
aF0.235883
aF0.184063
aF0.193243
aF0.234205
aF0.193243
aF0.235677
aF0.234941
aF0.231105
aF0.235329
aF0.193243
aF0.193243
aF0.193243
aF0.193243
aF0.194968
aF0.193243
aF0.184038
aF0.184139
aF0.193243
aF0.193243
aF0.235809
aF0.235578
aF0.235458
aF0.192567
aF0.218027
aF0.185961
aF0.184038
aF0.236194
aF0.189721
aF0.193243
aF0.193243
aF0.21633
aF0.219926
aF0.235458
aF0.193243
aF0.236129
aF0.197982
aF0.193243
aF0.193243
aF0.193243
aF0.213426
aF0.207113
aF0.187362
aF0.193243
aF0.210531
aF0.193243
aF0.193243
aF0.218983
aF0.236194
aF0.193243
aF0.226888
aF0.19039
aF0.236194
aF0.191089
aF0.184264
aF0.193243
aF0.201249
aF0.193243
aF0.184038
aF0.193243
aF0.236194
aF0.220594
aF0.193243
aF0.233276
aF0.188476
aF0.235315
aF0.193243
aF0.206318
aF0.236194
aF0.223555
aF0.236194
aF0.23619
aF0.196677
aF0.235329
aF0.199375
aF0.19756
aF0.193243
aF0.193243
aF0.193243
aF0.223555
aF0.21488
aF0.209113
aF0.193243
aF0.235768
aF0.236188
aF0.236194
aF0.193243
aF0.193243
aF0.233797
aF0.211974
aF0.193243
aF0.203669
aF0.204973
aF0.235883
aF0.226087
aF0.193243
aF0.233797
aF0.184916
aF0.236194
aF0.184653
aF0.193243
aF0.236026
aF0.198987
aF0.184264
aF0.193243
aF0.234271
aF0.193243
aF0.193243
aF0.193243
aF0.193243
aF0.193243
aF0.23466
aF0.226888
aF0.193243
aF0.236002
aF0.193243
aF0.191814
aF0.236194
aF0.193243
aF0.23233
aF0.204145
aF0.193243
aF0.23466
aF0.221772
aF0.193243
aF0.193243
aF0.193243
aF0.230199
aF0.193243
aF0.193243
aF0.23287
aF0.21488
aF0.234757
aF0.236194
aF0.236194
aF0.236068
aF0.193243
aF0.193243
aF0.193243
aF0.235809
aF0.193243
aF0.193243
aF0.222672
aF0.193243
aF0.193243
aF0.193243
aF0.236178
aF0.236086
aF0.23615
aF0.236166
aF0.193243
aF0.23051
aF0.235518
aF0.203669
aF0.229841
aF0.210116
aF0.216086
aF0.231149
aF0.184653
aF0.184038
aF0.20317
aF0.189083
aF0.236068
aF0.193243
aF0.193243
aF0.193243
aF0.225263
aF0.184435
aF0.236192
aF0.219926
aF0.205128
aF0.193243
aF0.23287
aF0.193243
aF0.193243
aF0.186857
aF0.23233
asS'RElbowYaw'
p9
(lp10
F1.27306
aF1.182802
aF2.085669
aF1.271075
aF1.296961
aF1.841068
aF1.257544
aF1.138294
aF1.121459
aF1.393544
aF1.48022
aF1.867935
aF2.085669
aF1.158433
aF1.984299
aF1.636712
aF1.346601
aF1.146894
aF1.233719
aF2.085669
aF1.249293
aF1.211671
aF1.095158
aF1.318042
aF0.993293
aF2.085669
aF1.220776
aF1.117737
aF1.157583
aF1.110444
aF1.266715
aF1.251088
aF2.080704
aF1.019777
aF2.0191
aF1.289271
aF1.176934
aF1.382154
aF1.291118
aF1.752678
aF1.275212
aF1.578722
aF1.363545
aF1.158433
aF1.181012
aF1.127539
aF2.081878
aF1.101019
aF1.125211
aF1.523426
aF1.274062
aF2.085669
aF1.207324
aF2.085669
aF1.443071
aF1.202818
aF1.478845
aF1.075256
aF1.293369
aF1.175635
aF0.962366
aF1.173742
aF0.97123
aF1.089963
aF1.357033
aF1.726147
aF1.402332
aF2.066293
aF1.146894
aF1.266715
aF1.164689
aF2.074448
aF1.157583
aF1.811831
aF2.085669
aF1.558566
aF2.085669
aF2.085669
aF2.085669
aF1.423848
aF2.085669
aF1.478845
aF1.264426
aF1.941996
aF1.155716
aF1.11406
aF2.085669
aF1.185298
aF1.959704
aF1.080371
aF1.893753
aF1.275066
aF2.085669
aF1.140247
aF2.085669
aF1.291118
aF1.096168
aF1.211671
aF1.077692
aF1.034221
aF2.085669
aF1.252763
aF1.191796
aF1.813305
aF2.084882
aF1.275232
aF1.30655
aF1.450589
aF1.636712
aF1.106903
aF1.784796
aF1.381789
aF1.081749
aF1.154863
aF1.189509
aF1.265155
aF2.085669
aF2.079158
aF1.08548
aF1.726147
aF0.95068
aF2.085669
aF1.252763
aF1.232497
aF1.077692
aF2.085536
aF1.079301
aF1.202818
aF1.233187
aF1.216322
aF1.268728
aF2.085669
aF1.423848
aF1.198333
aF2.082771
aF1.918372
aF1.237886
aF2.060576
aF1.941996
aF2.085669
aF2.085669
aF1.093824
aF2.083966
aF2.08515
aF1.064677
aF1.165575
aF2.085669
aF1.096898
aF1.478845
aF2.002707
aF1.085621
aF1.125211
aF1.275244
aF1.008623
aF1.165575
aF0.955261
aF2.085669
aF1.496939
aF2.085669
aF2.085669
aF1.425416
aF1.122039
aF1.074629
aF1.274837
aF1.277725
aF1.106903
aF1.291118
aF1.100114
aF1.006076
aF2.085669
aF1.24181
aF2.08345
aF1.100114
aF1.296961
aF1.696308
aF1.425416
aF1.103454
aF1.607253
aF1.217644
aF1.164689
aF1.476221
aF1.2677
aF1.049242
aF1.450589
aF2.085669
aF1.211832
aF2.002707
aF0.981611
aF1.726147
aF1.229494
aF1.275181
aF2.085669
aF1.245637
aF2.085669
aF1.474751
aF1.274402
aF2.053431
aF1.269624
aF2.085364
aF2.077124
aF1.984299
aF2.08345
aF1.11406
aF1.256026
aF1.270459
aF1.252483
aF1.264372
aF1.090909
aF1.477342
aF1.472821
aF1.268728
aF1.2677
aF2.085669
aF2.027508
aF2.084358
aF1.304512
aF0.950191
aF1.434654
aF1.480003
aF2.085669
aF1.357033
aF1.143957
aF1.272168
aF1.66633
aF0.947486
aF2.084358
aF1.271903
aF2.085669
aF1.33141
aF1.075256
aF1.261873
aF1.076634
aF1.607253
aF1.080371
aF1.404784
aF1.233187
aF1.550732
aF1.264426
aF1.169221
aF0.947474
aF2.085669
aF1.200651
aF1.123837
aF1.344178
aF2.085669
aF1.331099
aF1.470291
aF1.274653
aF1.171724
aF1.08117
aF1.479717
aF1.272989
aF2.085669
aF1.755693
aF1.237831
aF2.033334
aF1.381789
aF1.996983
aF1.274062
aF1.471406
aF2.085669
aF0.985605
aF2.085669
aF2.085669
aF1.237886
aF2.082771
aF1.198555
aF1.224758
aF1.096898
aF1.074629
aF1.143957
aF0.985605
aF1.607253
aF1.049242
aF1.161994
aF2.085669
aF2.085669
aF2.085669
aF1.083282
aF1.209291
aF2.044499
aF1.578722
aF1.078796
aF1.42397
aF1.446955
aF2.085669
aF1.0781
aF1.172998
aF2.044499
aF1.45713
aF2.085669
aF1.462617
aF1.11452
aF2.085669
aF1.346601
aF1.470291
aF1.18521
aF1.866535
aF1.249293
aF1.265155
aF1.143957
aF1.107492
aF1.275212
aF1.916044
aF1.123837
aF1.074629
aF2.085669
aF1.129986
aF1.317858
aF2.085669
aF1.246685
aF1.625059
aF1.127539
aF1.19389
aF2.066293
aF0.957611
aF1.151264
aF1.08548
aF1.240228
aF1.964016
aF1.259068
aF1.07636
aF1.68989
aF1.607253
aF2.070926
aF2.085669
aF2.085669
aF2.085669
aF1.074688
aF1.107492
aF1.075322
aF2.085669
aF1.275134
aF1.128978
aF0.968965
aF1.274837
aF1.154863
aF1.257544
aF2.085669
aF2.085669
aF2.085669
aF2.085669
aF1.225634
aF1.423848
aF2.084655
aF1.402332
aF1.357584
aF1.034221
aF0.962366
aF1.491171
aF1.462617
aF1.47934
aF1.142804
aF1.369594
aF2.085669
aF1.27497
aF1.136508
aF1.261794
aF1.039382
aF1.466971
aF2.085669
aF0.947486
aF1.111942
aF1.088168
aF1.68989
aF1.165575
aF1.273603
aF1.415434
aF1.625059
asS'RHand'
p11
(lp12
F0.801874
aF0.820271
aF0.740161
aF0.820387
aF0.81769
aF0.779823
aF0.820387
aF0.820056
aF0.629214
aF0.240021
aF0.218935
aF0.778021
aF0.736024
aF0.519195
aF0.76983
aF0.793111
aF0.813359
aF0.82016
aF0.634421
aF0.737392
aF0.676147
aF0.337741
aF0.819568
aF0.815741
aF0.487959
aF0.741746
aF0.594433
aF0.644699
aF0.36558
aF0.675965
aF0.765621
aF0.311832
aF0.756977
aF0.467001
aF0.767064
aF0.818485
aF0.50718
aF0.810601
aF0.288266
aF0.705143
aF0.820387
aF0.795022
aF0.812024
aF0.512766
aF0.510979
aF0.385006
aF0.756066
aF0.81967
aF0.614013
aF0.800624
aF0.820387
aF0.743545
aF0.558791
aF0.736024
aF0.223304
aF0.538733
aF0.218935
aF0.818746
aF0.659124
aF0.643127
aF0.508855
aF0.820239
aF0.508855
aF0.819457
aF0.255318
aF0.78734
aF0.809098
aF0.760727
aF0.820111
aF0.754384
aF0.820202
aF0.759775
aF0.375216
aF0.710248
aF0.736643
aF0.687503
aF0.744189
aF0.736024
aF0.736024
aF0.666693
aF0.736094
aF0.218935
aF0.754384
aF0.772915
aF0.82016
aF0.660328
aF0.737702
aF0.356111
aF0.723018
aF0.415142
aF0.776265
aF0.820387
aF0.736024
aF0.558807
aF0.740665
aF0.281002
aF0.415142
aF0.337741
aF0.813819
aF0.456537
aF0.742923
aF0.703643
aF0.820297
aF0.781662
aF0.750874
aF0.820387
aF0.816773
aF0.221416
aF0.791189
aF0.69147
aF0.783533
aF0.244711
aF0.819204
aF0.519195
aF0.522538
aF0.820387
aF0.736042
aF0.757899
aF0.819336
aF0.78734
aF0.569953
aF0.736457
aF0.703643
aF0.651263
aF0.813819
aF0.748482
aF0.808883
aF0.548327
aF0.820372
aF0.58194
aF0.765621
aF0.738808
aF0.673957
aF0.538733
aF0.755167
aF0.774561
aF0.320228
aF0.762659
aF0.772915
aF0.736862
aF0.736024
aF0.749412
aF0.753407
aF0.75006
aF0.435717
aF0.508002
aF0.739684
aF0.735815
aF0.218935
aF0.768403
aF0.784716
aF0.614013
aF0.820387
aF0.608132
aF0.505042
aF0.529568
aF0.739684
aF0.802423
aF0.738042
aF0.736024
aF0.225698
aF0.819925
aF0.818746
aF0.820387
aF0.295835
aF0.69147
aF0.281002
aF0.721533
aF0.47748
aF0.744855
aF0.662206
aF0.75428
aF0.735815
aF0.81769
aF0.789263
aF0.228582
aF0.706706
aF0.795022
aF0.820353
aF0.820202
aF0.218935
aF0.820387
aF0.446104
aF0.221416
aF0.736182
aF0.570028
aF0.768403
aF0.498422
aF0.78734
aF0.620769
aF0.820387
aF0.746248
aF0.676147
aF0.745542
aF0.218935
aF0.820387
aF0.763636
aF0.820387
aF0.749262
aF0.758832
aF0.76983
aF0.75428
aF0.660328
aF0.717004
aF0.785679
aF0.820385
aF0.303696
aF0.762187
aF0.218935
aF0.218935
aF0.776085
aF0.820387
aF0.746974
aF0.729261
aF0.752548
aF0.281002
aF0.539817
aF0.225698
aF0.218935
aF0.736024
aF0.255318
aF0.547096
aF0.820387
aF0.791189
aF0.560025
aF0.752548
aF0.794308
aF0.739232
aF0.8146
aF0.818746
aF0.742472
aF0.81891
aF0.795022
aF0.425391
aF0.235759
aF0.820372
aF0.798786
aF0.754384
aF0.504025
aF0.549975
aF0.736024
aF0.82032
aF0.634731
aF0.261203
aF0.736024
aF0.267456
aF0.218935
aF0.820387
aF0.36558
aF0.802295
aF0.218935
aF0.820387
aF0.736024
aF0.785428
aF0.648265
aF0.765818
aF0.244711
aF0.726377
aF0.820387
aF0.804178
aF0.736024
aF0.598848
aF0.736024
aF0.736303
aF0.320228
aF0.75428
aF0.346827
aF0.32887
aF0.735815
aF0.81857
aF0.547096
aF0.598848
aF0.793111
aF0.446104
aF0.508002
aF0.747719
aF0.736457
aF0.736024
aF0.794193
aF0.820338
aF0.764673
aF0.796916
aF0.819063
aF0.807522
aF0.805879
aF0.745542
aF0.626089
aF0.50483
aF0.764673
aF0.220048
aF0.736024
aF0.219216
aF0.819849
aF0.742323
aF0.813359
aF0.218935
aF0.516131
aF0.714938
aF0.689992
aF0.820387
aF0.547096
aF0.819764
aF0.820387
aF0.7192
aF0.634731
aF0.81857
aF0.742323
aF0.819995
aF0.274061
aF0.736024
aF0.820383
aF0.693756
aF0.394934
aF0.530104
aF0.761689
aF0.579743
aF0.527152
aF0.819336
aF0.820379
aF0.771336
aF0.729979
aF0.816965
aF0.699641
aF0.793111
aF0.760727
aF0.736024
aF0.736024
aF0.741193
aF0.818382
aF0.819764
aF0.818382
aF0.746974
aF0.820387
aF0.599233
aF0.58938
aF0.820387
aF0.527152
aF0.820386
aF0.737112
aF0.740665
aF0.738411
aF0.737392
aF0.820364
aF0.673957
aF0.751703
aF0.807522
aF0.666693
aF0.456537
aF0.519242
aF0.680898
aF0.219216
aF0.218935
aF0.385006
aF0.249816
aF0.741193
aF0.820387
aF0.571492
aF0.820387
aF0.617218
aF0.218935
aF0.736094
aF0.549975
aF0.404984
aF0.774001
aF0.699641
aF0.505042
aF0.820387
aF0.231941
aF0.693756
asS'RShoulderPitch'
p13
(lp14
F1.43874
aF1.400648
aF1.251507
aF1.430281
aF1.435923
aF1.267093
aF1.423311
aF1.389053
aF1.392668
aF1.509642
aF1.525388
aF1.255798
aF1.310636
aF1.403003
aF1.204309
aF1.354301
aF1.428539
aF1.391229
aF1.427999
aF1.282873
aF1.432413
aF1.481782
aF1.378899
aF1.433028
aF1.444202
aF1.236719
aF1.424179
aF1.391748
aF1.473701
aF1.389903
aF1.437108
aF1.487874
aF1.162718
aF1.450741
aF1.188686
aF1.436843
aF1.409893
aF1.422287
aF1.494057
aF1.342436
aF1.437107
aF1.372923
aF1.425642
aF1.403003
aF1.411346
aF1.469369
aF1.163972
aF1.380157
aF1.393592
aF1.388687
aF1.433625
aF1.221897
aF1.420049
aF1.308972
aF1.517283
aF1.418624
aF1.524541
aF1.376043
aF1.373808
aF1.380111
aF1.433263
aF1.398221
aF1.43706
aF1.377851
aF1.50412
aF1.316616
aF1.418464
aF1.165342
aF1.391229
aF1.437108
aF1.395831
aF1.162208
aF1.473701
aF1.336728
aF1.293692
aF1.356581
aF1.217044
aF1.312502
aF1.312991
aF1.364656
aF1.304388
aF1.524541
aF1.436507
aF1.223609
aF1.393494
aF1.390827
aF1.278838
aF1.477776
aF1.323706
aF1.462123
aF1.244978
aF1.436157
aF1.311208
aF1.397415
aF1.246614
aF1.494057
aF1.464655
aF1.481782
aF1.378978
aF1.453791
aF1.226808
aF1.433369
aF1.403095
aF1.278836
aF1.179657
aF1.437356
aF1.434661
aF1.518501
aF1.354301
aF1.388974
aF1.291008
aF1.507864
aF1.37643
aF1.401777
aF1.41427
aF1.426582
aF1.306264
aF1.161965
aF1.377025
aF1.316616
aF1.412348
aF1.296805
aF1.433369
aF1.37685
aF1.378978
aF1.190355
aF1.379794
aF1.418624
aF1.415066
aF1.422831
aF1.437632
aF1.265724
aF1.364656
aF1.417183
aF1.165677
aF1.234667
aF1.485829
aF1.168285
aF1.223609
aF1.29032
aF1.312909
aF1.385221
aF1.170277
aF1.182954
aF1.459474
aF1.405634
aF1.256336
aF1.386163
aF1.524541
aF1.196036
aF1.382431
aF1.393592
aF1.437577
aF1.394811
aF1.405634
aF1.429322
aF1.256336
aF1.395994
aF1.274622
aF1.312009
aF1.514511
aF1.385044
aF1.376353
aF1.435313
aF1.491993
aF1.388974
aF1.494057
aF1.387103
aF1.447547
aF1.21227
aF1.430316
aF1.167791
aF1.387103
aF1.435923
aF1.330073
aF1.514511
aF1.388041
aF1.36451
aF1.410395
aF1.395831
aF1.52356
aF1.427958
aF1.456699
aF1.518501
aF1.302172
aF1.421453
aF1.196036
aF1.440707
aF1.316616
aF1.426767
aF1.436827
aF1.203044
aF1.431394
aF1.207596
aF1.523133
aF1.434252
aF1.172364
aF1.429185
aF1.18653
aF1.161771
aF1.204309
aF1.167791
aF1.390827
aF1.434259
aF1.438078
aF1.421434
aF1.48993
aF1.384283
aF1.523932
aF1.522637
aF1.437632
aF1.427958
aF1.198637
aF1.318648
aF1.173102
aF1.496114
aF1.425245
aF1.51595
aF1.525212
aF1.311208
aF1.50412
aF1.398436
aF1.431261
aF1.344011
aF1.416737
aF1.173102
aF1.438447
aF1.261081
aF1.430995
aF1.376043
aF1.435831
aF1.375943
aF1.36451
aF1.462123
aF1.511349
aF1.415066
aF1.380991
aF1.436507
aF1.407027
aF1.421044
aF1.312671
aF1.405546
aF1.383507
aF1.502171
aF1.312804
aF1.50018
aF1.522057
aF1.434813
aF1.47576
aF1.380646
aF1.525015
aF1.432138
aF1.313105
aF1.3036
aF1.429183
aF1.182277
aF1.507864
aF1.320813
aF1.433625
aF1.402896
aF1.312671
aF1.399078
aF1.313144
aF1.299638
aF1.485829
aF1.165677
aF1.479778
aF1.483798
aF1.386163
aF1.376353
aF1.398436
aF1.399078
aF1.36451
aF1.456699
aF1.404289
aF1.194399
aF1.296805
aF1.307783
aF1.381527
aF1.407985
aF1.176815
aF1.372923
aF1.376069
aF1.414165
aF1.409385
aF1.207596
aF1.387044
aF1.408451
aF1.176815
aF1.519595
aF1.313055
aF1.520555
aF1.383246
aF1.231755
aF1.428539
aF1.522057
aF1.412807
aF1.331681
aF1.432413
aF1.426582
aF1.398436
aF1.381612
aF1.437107
aF1.327332
aF1.383507
aF1.376353
aF1.226808
aF1.386985
aF1.498158
aF1.312285
aF1.419422
aF1.353186
aF1.469369
aF1.41573
aF1.165342
aF1.407911
aF1.40061
aF1.377025
aF1.417294
aF1.213498
aF1.435081
aF1.378205
aF1.348759
aF1.36451
aF1.163362
aF1.309905
aF1.307783
aF1.241678
aF1.376846
aF1.381612
aF1.377482
aF1.198637
aF1.436512
aF1.394522
aF1.403469
aF1.435313
aF1.401777
aF1.423311
aF1.286707
aF1.246614
aF1.270244
aF1.278838
aF1.412761
aF1.364656
aF1.176238
aF1.418464
aF1.369138
aF1.453791
aF1.433263
aF1.360439
aF1.520555
aF1.524793
aF1.471576
aF1.50602
aF1.241678
aF1.43576
aF1.396427
aF1.425034
aF1.390783
aF1.521372
aF1.302172
aF1.416737
aF1.467067
aF1.383351
aF1.348759
aF1.405634
aF1.432923
aF1.512974
aF1.353186
asS'LShoulderRoll'
p15
(lp16
F0.118453
aF0.083034
aF0.190656
aF0.101978
aF0.118672
aF0.156696
aF0.094192
aF0.081638
aF0.115844
aF0.112933
aF0.127497
aF0.159638
aF0.189391
aF0.118454
aF0.173683
aF0.139991
aF0.122409
aF0.081806
aF0.118539
aF0.189991
aF0.118435
aF0.089617
aF0.083654
aF0.120361
aF0.071296
aF0.190991
aF0.118645
aF0.115233
aF0.081629
aF0.113716
aF0.118409
aF0.095806
aF0.191836
aF0.071166
aF0.178725
aF0.117971
aF0.118796
aF0.124761
aF0.101498
aF0.162874
aF0.114354
aF0.136576
aF0.123551
aF0.118454
aF0.118818
aF0.078131
aF0.192142
aF0.082944
aF0.116361
aF0.133269
aF0.10761
aF0.191363
aF0.118748
aF0.189426
aF0.117993
aF0.118777
aF0.125637
aF0.090987
aF0.127094
aF0.118533
aF0.073855
aF0.082519
aF0.072655
aF0.084514
aF0.109215
aF0.145585
aF0.126031
aF0.187945
aF0.081806
aF0.118409
aF0.082138
aF0.190095
aF0.081629
aF0.167805
aF0.189764
aF0.147424
aF0.191498
aF0.18941
aF0.189441
aF0.135729
aF0.189533
aF0.125637
aF0.118403
aF0.168005
aF0.081899
aF0.114523
aF0.190075
aF0.085512
aF0.179751
aF0.073954
aF0.162511
aF0.11248
aF0.189386
aF0.117667
aF0.190875
aF0.101498
aF0.075179
aF0.089617
aF0.098322
aF0.07151
aF0.191234
aF0.11842
aF0.083679
aF0.153695
aF0.192597
aF0.114844
aF0.119469
aF0.118865
aF0.139991
aF0.112815
aF0.150645
aF0.111759
aF0.086679
aF0.118328
aF0.118827
aF0.097279
aF0.189491
aF0.191415
aF0.085523
aF0.14364
aF0.085762
aF0.189698
aF0.11842
aF0.122871
aF0.098322
aF0.192361
aF0.099831
aF0.118777
aF0.088631
aF0.118681
aF0.118418
aF0.19035
aF0.135729
aF0.1188
aF0.192358
aF0.165304
aF0.093768
aF0.18654
aF0.168005
aF0.189835
aF0.189434
aF0.108344
aF0.192588
aF0.192539
aF0.072923
aF0.118643
aF0.190551
aF0.109581
aF0.125099
aF0.173683
aF0.104264
aF0.116361
aF0.115278
aF0.100931
aF0.118643
aF0.07544
aF0.190656
aF0.131675
aF0.190163
aF0.189393
aF0.116117
aF0.081721
aF0.092393
aF0.110825
aF0.099689
aF0.112815
aF0.101498
aF0.110743
aF0.071088
aF0.191666
aF0.11848
aF0.192502
aF0.110743
aF0.118672
aF0.14364
aF0.116117
aF0.111823
aF0.138273
aF0.086333
aF0.082138
aF0.123938
aF0.098852
aF0.072102
aF0.118865
aF0.189582
aF0.118716
aF0.176288
aF0.07181
aF0.145585
aF0.118573
aF0.113801
aF0.191977
aF0.118456
aF0.191826
aF0.123313
aF0.108785
aF0.184902
aF0.100424
aF0.19246
aF0.190848
aF0.17092
aF0.192502
aF0.114523
aF0.118409
aF0.118429
aF0.092707
aF0.097787
aF0.107039
aF0.124533
aF0.122658
aF0.118418
aF0.098852
aF0.192118
aF0.185056
aF0.192627
aF0.103214
aF0.077444
aF0.117078
aF0.127083
aF0.189386
aF0.109215
aF0.117863
aF0.103497
aF0.141726
aF0.082649
aF0.192627
aF0.118441
aF0.190449
aF0.121343
aF0.090987
aF0.118401
aF0.089414
aF0.138273
aF0.073954
aF0.114048
aF0.088631
aF0.134906
aF0.118403
aF0.11871
aF0.079862
aF0.189418
aF0.084449
aF0.114128
aF0.107836
aF0.189427
aF0.106379
aF0.12197
aF0.109855
aF0.083532
aF0.101332
aF0.126633
aF0.104956
aF0.189453
aF0.147554
aF0.118508
aF0.180981
aF0.111759
aF0.182681
aF0.10761
aF0.130129
aF0.189418
aF0.096671
aF0.189457
aF0.189637
aF0.093768
aF0.192358
aF0.087548
aF0.091698
aF0.109581
aF0.092393
aF0.117863
aF0.096671
aF0.138273
aF0.072102
aF0.118558
aF0.192247
aF0.189764
aF0.189455
aF0.102813
aF0.085336
aF0.183044
aF0.136576
aF0.087977
aF0.127354
aF0.128724
aF0.191826
aF0.109699
aF0.11876
aF0.183044
aF0.119698
aF0.189447
aF0.120491
aF0.081979
aF0.19111
aF0.122409
aF0.12197
aF0.118828
aF0.172285
aF0.118435
aF0.097279
aF0.118033
aF0.082387
aF0.114354
aF0.176278
aF0.114128
aF0.092393
aF0.191234
aF0.081608
aF0.10484
aF0.189401
aF0.091278
aF0.158072
aF0.078131
aF0.118817
aF0.187945
aF0.089163
aF0.118187
aF0.085523
aF0.089916
aF0.17092
aF0.118403
aF0.096813
aF0.158072
aF0.138273
aF0.189101
aF0.189405
aF0.189455
aF0.190875
aF0.093839
aF0.082387
aF0.095315
aF0.192118
aF0.113178
aF0.116791
aF0.092818
aF0.110825
aF0.118328
aF0.094192
aF0.189911
aF0.190764
aF0.190255
aF0.190075
aF0.087434
aF0.135729
aF0.192627
aF0.126031
aF0.131526
aF0.07151
aF0.073855
aF0.141681
aF0.120491
aF0.12615
aF0.079822
aF0.110521
aF0.190991
aF0.111697
aF0.117432
aF0.095721
aF0.105286
aF0.121248
aF0.189582
aF0.082649
aF0.076577
aF0.105676
aF0.158072
aF0.118643
aF0.106332
aF0.115109
aF0.152904
asS'LHand'
p17
(lp18
F0.79075
aF0.799648
aF0.623449
aF0.799298
aF0.792599
aF0.697092
aF0.799342
aF0.799808
aF0.658044
aF0.168314
aF0.111663
aF0.692445
aF0.621478
aF0.618933
aF0.671036
aF0.730976
aF0.781815
aF0.799746
aF0.709115
aF0.622019
aF0.730296
aF0.275161
aF0.799954
aF0.787749
aF0.412969
aF0.624475
aF0.687933
aF0.665876
aF0.301924
aF0.682669
aF0.773736
aF0.249397
aF0.641063
aF0.394498
aF0.663637
aF0.794575
aF0.631003
aF0.774931
aF0.224931
aF0.596417
aF0.799296
aF0.735809
aF0.778484
aF0.619301
aF0.635039
aF0.320172
aF0.639728
aF0.799935
aF0.650694
aF0.749927
aF0.799296
aF0.625808
aF0.667817
aF0.621485
aF0.141222
aF0.655524
aF0.111889
aF0.79941
aF0.558566
aF0.545288
aF0.431217
aF0.799681
aF0.431217
aF0.79997
aF0.187853
aF0.716331
aF0.771175
aF0.647183
aF0.799777
aF0.768398
aF0.799714
aF0.645455
aF0.311015
aF0.600581
aF0.621724
aF0.58197
aF0.626327
aF0.621478
aF0.621478
aF0.564827
aF0.621531
aF0.111889
aF0.768398
aF0.679168
aF0.799746
aF0.674111
aF0.622154
aF0.29291
aF0.610967
aF0.347934
aF0.687898
aF0.799296
aF0.621478
aF0.627732
aF0.623759
aF0.217116
aF0.347934
aF0.275161
aF0.781169
aF0.385208
aF0.625327
aF0.743891
aF0.799615
aF0.70182
aF0.632971
aF0.799296
aF0.790318
aF0.136724
aF0.726107
aF0.691467
aF0.706614
aF0.174575
aF0.799992
aF0.618933
aF0.644493
aF0.799326
aF0.621509
aF0.642462
aF0.799983
aF0.716331
aF0.483744
aF0.621658
aF0.743891
aF0.552049
aF0.781169
aF0.63033
aF0.775026
aF0.661532
aF0.799459
aF0.681057
aF0.77868
aF0.622688
aF0.570823
aF0.655524
aF0.638455
aF0.683467
aF0.257855
aF0.651576
aF0.679168
aF0.621806
aF0.621478
aF0.727466
aF0.63609
aF0.632039
aF0.366571
aF0.620379
aF0.623168
aF0.718506
aF0.111889
aF0.667237
aF0.753057
aF0.650694
aF0.799296
aF0.516025
aF0.622128
aF0.449155
aF0.623168
aF0.754449
aF0.622309
aF0.621478
aF0.151171
aF0.799864
aF0.79941
aF0.799296
aF0.232924
aF0.691467
aF0.217116
aF0.709467
aF0.403756
aF0.626885
aF0.723301
aF0.637243
aF0.718506
aF0.792599
aF0.72122
aF0.151171
aF0.700427
aF0.735809
aF0.799519
aF0.799714
aF0.115184
aF0.799313
aF0.375895
aF0.136724
aF0.621563
aF0.674338
aF0.667237
aF0.422126
aF0.716331
aF0.702002
aF0.799296
aF0.628129
aF0.730296
aF0.627486
aF0.117118
aF0.799296
aF0.654207
aF0.799304
aF0.63116
aF0.643925
aF0.671036
aF0.637243
aF0.674111
aF0.750412
aF0.78319
aF0.799382
aF0.241083
aF0.736264
aF0.11366
aF0.119452
aF0.77868
aF0.799313
aF0.628816
aF0.616023
aF0.634995
aF0.217116
aF0.45798
aF0.146041
aF0.111663
aF0.621478
aF0.187853
aF0.624003
aF0.799296
aF0.726107
aF0.475286
aF0.634995
aF0.787226
aF0.622915
aF0.784909
aF0.79941
aF0.762705
aF0.8
aF0.735809
aF0.357247
aF0.162318
aF0.799459
aF0.745301
aF0.768398
aF0.624508
aF0.466694
aF0.621478
aF0.799582
aF0.538294
aF0.194847
aF0.621478
aF0.202063
aF0.122174
aF0.799296
aF0.301924
aF0.768239
aF0.111663
aF0.799296
aF0.621478
aF0.711457
aF0.716228
aF0.660255
aF0.174575
aF0.613689
aF0.799296
aF0.758852
aF0.621478
aF0.50821
aF0.621478
aF0.621604
aF0.257855
aF0.637243
aF0.283986
aF0.266447
aF0.718506
aF0.797693
aF0.624003
aF0.50821
aF0.730976
aF0.375895
aF0.620379
aF0.62955
aF0.621658
aF0.621494
aF0.76089
aF0.79955
aF0.657106
aF0.74059
aF0.799998
aF0.767232
aF0.763119
aF0.627486
aF0.531078
aF0.627479
aF0.657106
aF0.13256
aF0.621478
aF0.128739
aF0.79989
aF0.624883
aF0.781815
aF0.122174
aF0.639549
aF0.604402
aF0.737172
aF0.799313
aF0.624003
aF0.799914
aF0.799296
aF0.607867
aF0.538294
aF0.797693
aF0.624883
aF0.799837
aF0.20949
aF0.621478
aF0.799406
aF0.5871
aF0.329385
aF0.649831
aF0.649229
aF0.492059
aF0.619523
aF0.799983
aF0.799432
aF0.675019
aF0.756697
aF0.786588
aF0.591919
aF0.730976
aF0.647183
aF0.62148
aF0.621485
aF0.624101
aF0.79493
aF0.799914
aF0.79493
aF0.628816
aF0.799296
aF0.643907
aF0.500217
aF0.799296
aF0.619523
aF0.799361
aF0.621904
aF0.623759
aF0.622487
aF0.622019
aF0.799488
aF0.570823
aF0.633955
aF0.767232
aF0.564827
aF0.385208
aF0.440231
aF0.576541
aF0.128739
aF0.111663
aF0.320172
aF0.181092
aF0.624101
aF0.799296
aF0.632345
aF0.799342
aF0.523651
aF0.125274
aF0.621531
aF0.466694
aF0.338643
aF0.744822
aF0.591919
aF0.622128
aF0.799296
aF0.1566
aF0.5871
asS'LKneePitch'
p19
(lp20
F-0.090573
aF-0.091172
aF-0.086495
aF-0.090548
aF-0.090548
aF-0.090548
aF-0.090614
aF-0.091528
aF-0.091774
aF-0.090094
aF-0.090548
aF-0.090548
aF-0.084412
aF-0.091488
aF-0.090548
aF-0.090548
aF-0.090548
aF-0.091387
aF-0.090856
aF-0.085297
aF-0.09075
aF-0.088851
aF-0.091894
aF-0.090548
aF-0.087127
aF-0.087081
aF-0.090946
aF-0.091802
aF-0.088523
aF-0.091855
aF-0.090626
aF-0.089163
aF-0.090346
aF-0.087362
aF-0.090548
aF-0.090548
aF-0.09128
aF-0.090548
aF-0.089453
aF-0.084744
aF-0.090548
aF-0.090548
aF-0.090548
aF-0.091454
aF-0.091245
aF-0.088297
aF-0.090262
aF-0.091842
aF-0.091745
aF-0.090548
aF-0.090548
aF-0.08768
aF-0.091042
aF-0.084421
aF-0.090368
aF-0.091108
aF-0.090548
aF-0.092078
aF-0.085241
aF-0.085415
aF-0.086893
aF-0.091243
aF-0.086893
aF-0.09194
aF-0.089879
aF-0.090548
aF-0.090548
aF-0.090539
aF-0.091458
aF-0.090643
aF-0.091315
aF-0.090514
aF-0.088411
aF-0.084689
aF-0.084904
aF-0.084934
aF-0.087879
aF-0.084412
aF-0.084412
aF-0.085159
aF-0.084543
aF-0.090548
aF-0.090643
aF-0.090548
aF-0.091387
aF-0.091829
aF-0.085447
aF-0.088634
aF-0.084551
aF-0.087833
aF-0.090548
aF-0.090548
aF-0.084412
aF-0.091621
aF-0.086688
aF-0.089545
aF-0.08795
aF-0.088851
aF-0.092066
aF-0.08748
aF-0.08748
aF-0.090726
aF-0.091102
aF-0.090548
aF-0.089513
aF-0.090548
aF-0.090548
aF-0.090409
aF-0.090548
aF-0.09188
aF-0.090548
aF-0.090026
aF-0.092016
aF-0.091488
aF-0.091176
aF-0.090565
aF-0.084487
aF-0.090417
aF-0.091981
aF-0.090548
aF-0.086216
aF-0.084795
aF-0.090726
aF-0.085327
aF-0.092066
aF-0.089016
aF-0.092057
aF-0.091075
aF-0.090788
aF-0.090977
aF-0.09061
aF-0.085944
aF-0.085081
aF-0.091108
aF-0.090165
aF-0.090548
aF-0.089061
aF-0.090548
aF-0.090548
aF-0.085025
aF-0.084412
aF-0.091968
aF-0.089935
aF-0.089355
aF-0.087716
aF-0.091419
aF-0.086307
aF-0.091948
aF-0.090548
aF-0.090548
aF-0.09202
aF-0.091745
aF-0.090548
aF-0.085797
aF-0.091385
aF-0.086663
aF-0.086307
aF-0.090548
aF-0.085605
aF-0.084412
aF-0.090271
aF-0.091663
aF-0.092082
aF-0.090548
aF-0.089359
aF-0.09188
aF-0.089453
aF-0.091927
aF-0.087244
aF-0.088077
aF-0.090801
aF-0.090056
aF-0.091948
aF-0.090548
aF-0.090548
aF-0.090271
aF-0.091904
aF-0.090548
aF-0.090904
aF-0.091315
aF-0.090548
aF-0.090552
aF-0.087598
aF-0.090409
aF-0.084614
aF-0.091009
aF-0.090548
aF-0.08701
aF-0.090548
aF-0.090885
aF-0.090548
aF-0.088465
aF-0.090775
aF-0.088272
aF-0.090545
aF-0.090548
aF-0.090548
aF-0.090548
aF-0.089189
aF-0.090473
aF-0.090548
aF-0.090056
aF-0.091829
aF-0.090703
aF-0.090596
aF-0.090649
aF-0.089262
aF-0.091987
aF-0.090548
aF-0.090536
aF-0.09061
aF-0.090552
aF-0.088653
aF-0.084484
aF-0.089804
aF-0.089545
aF-0.086549
aF-0.090322
aF-0.090548
aF-0.084412
aF-0.089879
aF-0.091588
aF-0.090548
aF-0.090548
aF-0.086326
aF-0.089804
aF-0.090584
aF-0.086123
aF-0.090548
aF-0.092078
aF-0.090662
aF-0.092065
aF-0.090548
aF-0.087833
aF-0.090157
aF-0.090788
aF-0.090548
aF-0.090643
aF-0.09135
aF-0.086437
aF-0.084412
aF-0.091033
aF-0.085507
aF-0.089801
aF-0.084412
aF-0.089719
aF-0.090521
aF-0.090548
aF-0.088523
aF-0.092046
aF-0.090548
aF-0.090548
aF-0.084412
aF-0.090548
aF-0.090828
aF-0.090548
aF-0.090026
aF-0.084515
aF-0.090548
aF-0.090548
aF-0.084412
aF-0.085899
aF-0.084412
aF-0.084698
aF-0.089061
aF-0.090056
aF-0.088744
aF-0.088957
aF-0.091948
aF-0.092082
aF-0.091588
aF-0.085899
aF-0.090548
aF-0.087598
aF-0.091419
aF-0.088837
aF-0.084795
aF-0.084446
aF-0.092034
aF-0.090967
aF-0.090548
aF-0.090548
aF-0.092044
aF-0.090548
aF-0.090548
aF-0.088272
aF-0.085601
aF-0.091315
aF-0.090548
aF-0.090445
aF-0.084412
aF-0.090476
aF-0.091726
aF-0.08728
aF-0.090548
aF-0.090521
aF-0.091211
aF-0.084638
aF-0.09075
aF-0.090565
aF-0.091588
aF-0.091786
aF-0.090548
aF-0.084592
aF-0.085507
aF-0.092082
aF-0.08748
aF-0.091597
aF-0.089633
aF-0.084412
aF-0.09069
aF-0.084867
aF-0.088182
aF-0.091142
aF-0.090548
aF-0.086109
aF-0.091522
aF-0.091981
aF-0.090736
aF-0.090548
aF-0.090682
aF-0.092073
aF-0.084803
aF-0.090548
aF-0.090539
aF-0.084412
aF-0.084421
aF-0.086883
aF-0.092081
aF-0.091786
aF-0.092081
aF-0.088653
aF-0.090548
aF-0.091715
aF-0.086003
aF-0.090548
aF-0.091488
aF-0.090614
aF-0.085156
aF-0.086688
aF-0.085771
aF-0.085447
aF-0.090844
aF-0.085081
aF-0.089663
aF-0.090548
aF-0.085159
aF-0.08748
aF-0.086778
aF-0.085005
aF-0.090476
aF-0.090548
aF-0.088297
aF-0.089955
aF-0.086883
aF-0.090548
aF-0.091653
aF-0.090586
aF-0.085698
aF-0.090501
aF-0.084614
aF-0.086326
aF-0.088067
aF-0.092004
aF-0.084803
aF-0.091385
aF-0.090548
aF-0.090216
aF-0.084867
asS'RAnkleRoll'
p21
(lp22
F0.07214
aF0.07214
aF-0.002934
aF0.07214
aF0.068135
aF0.015924
aF0.07214
aF0.07214
aF0.07214
aF0.015439
aF0.016916
aF0.013718
aF-0.003026
aF0.07214
aF0.004449
aF0.033245
aF0.061787
aF0.07214
aF0.07214
aF-0.003005
aF0.07214
aF0.011402
aF0.07214
aF0.065267
aF0.005797
aF-0.00288
aF0.07214
aF0.07214
aF0.010335
aF0.07214
aF0.07214
aF0.012414
aF-0.00194
aF0.006562
aF0.001778
aF0.06931
aF0.07214
aF0.057787
aF0.013358
aF-0.001948
aF0.07214
aF0.035849
aF0.059846
aF0.07214
aF0.07214
aF0.009601
aF-0.002017
aF0.07214
aF0.07214
aF0.0436
aF0.07214
aF-0.002808
aF0.07214
aF-0.003026
aF0.01633
aF0.07214
aF0.016916
aF0.07214
aF-0.00033
aF0.000235
aF0.005038
aF0.07214
aF0.005038
aF0.07214
aF0.014743
aF0.025535
aF0.055622
aF-0.00159
aF0.07214
aF0.07214
aF0.07214
aF-0.001684
aF0.00997
aF-0.002127
aF-0.003018
aF-0.001329
aF-0.00278
aF-0.003026
aF-0.003026
aF-0.000597
aF-0.003025
aF0.016916
aF0.07214
aF0.007758
aF0.07214
aF0.07214
aF-0.002999
aF0.010696
aF-0.002573
aF0.008093
aF0.011614
aF0.07214
aF-0.003026
aF0.07214
aF-0.002918
aF0.013655
aF0.008474
aF0.011402
aF0.07214
aF0.006945
aF-0.002834
aF0.07214
aF0.07214
aF0.01822
aF-0.002407
aF0.07214
aF0.066783
aF0.016463
aF0.030651
aF0.07214
aF0.020595
aF0.015219
aF0.07214
aF0.07214
aF0.07214
aF0.07214
aF-0.003026
aF-0.001858
aF0.07214
aF0.025535
aF0.002838
aF-0.003021
aF0.07214
aF-5.3e-05
aF0.07214
aF-0.002557
aF0.07214
aF0.07214
aF0.07214
aF0.07214
aF0.07214
aF-0.002973
aF-0.000853
aF0.07214
aF-0.002091
aF0.009623
aF0.012083
aF-0.001273
aF0.007758
aF-0.003015
aF-0.003026
aF0.07214
aF-0.002228
aF-0.00246
aF0.007711
aF0.07214
aF-0.002949
aF0.07214
aF0.016916
aF0.003028
aF0.07214
aF0.07214
aF0.07214
aF0.001476
aF0.07214
aF0.004289
aF-0.002949
aF0.046125
aF-0.002991
aF-0.003026
aF0.016017
aF0.07214
aF0.07214
aF0.07214
aF0.013052
aF0.07214
aF0.013358
aF0.07214
aF0.006179
aF-0.002749
aF0.07214
aF-0.002161
aF0.07214
aF0.068135
aF0.028077
aF0.016017
aF0.07214
aF0.035849
aF0.07214
aF0.07214
aF0.016916
aF0.07214
aF0.007328
aF0.016463
aF-0.003024
aF0.07214
aF0.003028
aF0.005416
aF0.025535
aF0.07214
aF0.07214
aF-0.00268
aF0.07214
aF-0.002716
aF0.016906
aF0.07214
aF-0.000826
aF0.07214
aF-0.00251
aF-0.001773
aF0.004449
aF-0.002161
aF0.07214
aF0.07214
aF0.07214
aF0.07214
aF0.012737
aF0.07214
aF0.016916
aF0.016877
aF0.07214
aF0.07214
aF-0.002642
aF-0.002791
aF-0.002291
aF0.013655
aF0.00392
aF0.016181
aF0.016916
aF-0.003026
aF0.014743
aF0.07214
aF0.07214
aF0.030651
aF0.003194
aF-0.002291
aF0.07214
aF-0.002961
aF0.063597
aF0.07214
aF0.07214
aF0.07214
aF0.035849
aF0.008093
aF0.015645
aF0.07214
aF0.041038
aF0.07214
aF0.07214
aF0.003555
aF-0.003026
aF0.07214
aF0.000532
aF0.014487
aF-0.003026
aF0.01422
aF0.01683
aF0.07214
aF0.010335
aF0.07214
aF0.016916
aF0.07214
aF-0.003026
aF0.023037
aF0.07214
aF0.000712
aF0.015219
aF-0.00269
aF0.07214
aF0.048602
aF-0.003026
aF0.001807
aF-0.003026
aF-0.003023
aF0.012083
aF-0.002161
aF0.011052
aF0.011746
aF0.07214
aF0.07214
aF0.07214
aF0.001807
aF0.033245
aF0.007328
aF0.07214
aF-0.002601
aF-0.003021
aF-0.003026
aF0.07214
aF0.07214
aF-0.00016
aF0.038451
aF0.07214
aF0.053361
aF0.051017
aF-0.002716
aF0.000838
aF0.07214
aF-0.00016
aF0.01658
aF-0.003026
aF0.016681
aF0.07214
aF-0.002858
aF0.061787
aF0.01683
aF0.07214
aF-0.002291
aF0.07214
aF0.07214
aF0.07214
aF0.07214
aF0.07214
aF-0.00244
aF0.000532
aF0.07214
aF-0.002834
aF0.07214
aF0.013943
aF-0.003026
aF0.07214
aF-0.001549
aF0.009228
aF0.07214
aF-0.001492
aF0.002488
aF0.07214
aF0.07214
aF0.07214
aF0.006029
aF0.07214
aF0.07214
aF-0.001755
aF0.033245
aF-0.00159
aF-0.003026
aF-0.003026
aF-0.0029
aF0.07214
aF0.07214
aF0.07214
aF-0.002642
aF0.07214
aF0.07214
aF0.002144
aF0.07214
aF0.07214
aF0.07214
aF-0.00301
aF-0.002918
aF-0.002983
aF-0.002999
aF0.07214
aF-0.000853
aF-0.00235
aF0.053361
aF-0.000597
aF0.006945
aF0.004662
aF-0.001097
aF0.016681
aF0.016916
aF0.009601
aF0.014987
aF-0.0029
aF0.07214
aF0.07214
aF0.07214
aF0.001153
aF0.016764
aF-0.003024
aF0.003194
aF0.008852
aF0.07214
aF-0.001755
aF0.07214
aF0.07214
aF0.015838
aF-0.001549
asS'LShoulderPitch'
p23
(lp24
F1.350788
aF1.294479
aF1.299911
aF1.335336
aF1.349538
aF1.316708
aF1.323942
aF1.282362
aF1.410442
aF1.372017
aF1.393937
aF1.311616
aF1.346339
aF1.417928
aF1.287246
aF1.344443
aF1.351506
aF1.2846
aF1.374443
aF1.321038
aF1.36496
aF1.342617
aF1.276745
aF1.350534
aF1.312671
aF1.290857
aF1.382333
aF1.406541
aF1.332781
aF1.397163
aF1.354495
aF1.34993
aF1.255187
aF1.315011
aF1.278631
aF1.34907
aF1.408375
aF1.352313
aF1.35668
aF1.348084
aF1.346306
aF1.347834
aF1.351939
aF1.417928
aF1.40605
aF1.328112
aF1.254862
aF1.276556
aF1.413773
aF1.350605
aF1.340901
aF1.282402
aF1.390488
aF1.343786
aF1.379994
aF1.3932
aF1.391906
aF1.290793
aF1.339954
aF1.334459
aF1.31098
aF1.291748
aF1.311253
aF1.277476
aF1.366628
aF1.336343
aF1.352607
aF1.26302
aF1.2846
aF1.354495
aF1.28917
aF1.258705
aF1.332781
aF1.34845
aF1.329221
aF1.345259
aF1.279806
aF1.349421
aF1.350226
aF1.343788
aF1.338493
aF1.391906
aF1.355852
aF1.297395
aF1.286776
aF1.402103
aF1.318143
aF1.337656
aF1.349501
aF1.321744
aF1.306702
aF1.344855
aF1.347286
aF1.421056
aF1.293831
aF1.35668
aF1.323764
aF1.342617
aF1.317987
aF1.316463
aF1.285123
aF1.362858
aF1.297333
aF1.321988
aF1.259364
aF1.346684
aF1.350031
aF1.38142
aF1.344443
aF1.391761
aF1.327473
aF1.370268
aF1.280732
aF1.419317
aF1.401111
aF1.329011
aF1.340436
aF1.255904
aF1.278791
aF1.33944
aF1.315744
aF1.331739
aF1.362858
aF1.337152
aF1.317987
aF1.264779
aF1.324611
aF1.3932
aF1.31244
aF1.38504
aF1.353308
aF1.309133
aF1.343788
aF1.395884
aF1.25489
aF1.301961
aF1.347532
aF1.265471
aF1.297395
aF1.32659
aF1.350092
aF1.366564
aF1.255885
aF1.260975
aF1.319845
aF1.414582
aF1.302986
aF1.37329
aF1.391202
aF1.287246
aF1.345532
aF1.413773
aF1.34702
aF1.324803
aF1.414582
aF1.31107
aF1.299911
aF1.351783
aF1.315185
aF1.348609
aF1.376965
aF1.278846
aF1.295192
aF1.343554
aF1.354513
aF1.391761
aF1.35668
aF1.37977
aF1.31374
aF1.277003
aF1.36951
aF1.25524
aF1.37977
aF1.349538
aF1.33944
aF1.376965
aF1.385946
aF1.346219
aF1.306337
aF1.28917
aF1.389547
aF1.331309
aF1.31808
aF1.38142
aF1.336388
aF1.387764
aF1.282761
aF1.311831
aF1.336343
aF1.37702
aF1.345879
aF1.271716
aF1.367181
aF1.274302
aF1.3886
aF1.341896
aF1.268262
aF1.333425
aF1.262786
aF1.257058
aF1.292112
aF1.25524
aF1.402103
aF1.360886
aF1.352295
aF1.321209
aF1.352263
aF1.359653
aF1.390415
aF1.387578
aF1.353308
aF1.331309
aF1.269258
aF1.350065
aF1.2568
aF1.358777
aF1.311601
aF1.378508
aF1.393524
aF1.347286
aF1.366628
aF1.421374
aF1.337022
aF1.342499
aF1.313988
aF1.2568
aF1.351455
aF1.306064
aF1.351032
aF1.290793
aF1.357375
aF1.286681
aF1.346219
aF1.321744
aF1.373718
aF1.31244
aF1.349293
aF1.355852
aF1.412656
aF1.312591
aF1.349701
aF1.300279
aF1.331871
aF1.364738
aF1.34992
aF1.362801
aF1.386484
aF1.342776
aF1.3352
aF1.331457
aF1.393056
aF1.338489
aF1.350415
aF1.333192
aF1.371935
aF1.274843
aF1.370268
aF1.349803
aF1.340901
aF1.352838
aF1.349701
aF1.322734
aF1.35048
aF1.334132
aF1.347532
aF1.25489
aF1.340134
aF1.345089
aF1.37329
aF1.295192
aF1.421374
aF1.322734
aF1.346219
aF1.31808
aF1.416345
aF1.266941
aF1.329221
aF1.342204
aF1.338454
aF1.30329
aF1.271387
aF1.347834
aF1.283346
aF1.352804
aF1.352885
aF1.274302
aF1.32939
aF1.410582
aF1.271387
aF1.382784
aF1.350332
aF1.384084
aF1.277646
aF1.287948
aF1.351506
aF1.386484
aF1.403624
aF1.348815
aF1.36496
aF1.329011
aF1.421145
aF1.27687
aF1.346306
aF1.349168
aF1.331871
aF1.295192
aF1.285123
aF1.280431
aF1.360816
aF1.349064
aF1.318369
aF1.347059
aF1.328112
aF1.398525
aF1.26302
aF1.317813
aF1.42043
aF1.278791
aF1.315439
aF1.292112
aF1.359056
aF1.311659
aF1.347059
aF1.346219
aF1.260917
aF1.345168
aF1.342204
aF1.293831
aF1.300187
aF1.27687
aF1.305701
aF1.269258
aF1.345397
aF1.41651
aF1.32015
aF1.343554
aF1.419317
aF1.323942
aF1.323858
aF1.296855
aF1.312177
aF1.318143
aF1.309395
aF1.343788
aF1.257966
aF1.352607
aF1.341877
aF1.316463
aF1.31098
aF1.344482
aF1.384084
aF1.392521
aF1.330414
aF1.368471
aF1.290857
aF1.344244
aF1.420151
aF1.326548
aF1.327029
aF1.385318
aF1.336388
aF1.313988
aF1.325891
aF1.35262
aF1.347059
aF1.414582
aF1.339773
aF1.375368
aF1.346118
asS'LHipPitch'
p25
(lp26
F0.179519
aF0.179519
aF0.228608
aF0.179519
aF0.182239
aF0.217411
aF0.179519
aF0.179519
aF0.179519
aF0.177475
aF0.173384
aF0.218876
aF0.228608
aF0.179519
aF0.224972
aF0.205816
aF0.186543
aF0.179519
aF0.179519
aF0.228608
aF0.179519
aF0.188654
aF0.179519
aF0.184184
aF0.204176
aF0.228608
aF0.179519
aF0.179519
aF0.192619
aF0.179519
aF0.179519
aF0.185852
aF0.228608
aF0.202058
aF0.226687
aF0.181441
aF0.179519
aF0.189251
aF0.183237
aF0.225623
aF0.179519
aF0.204064
aF0.187857
aF0.179519
aF0.179519
aF0.193642
aF0.228608
aF0.179519
aF0.179519
aF0.19884
aF0.179519
aF0.228608
aF0.179519
aF0.228608
aF0.175008
aF0.179519
aF0.173384
aF0.179519
aF0.221143
aF0.219578
aF0.206277
aF0.179519
aF0.206277
aF0.179519
aF0.179402
aF0.210992
aF0.190717
aF0.228608
aF0.179519
aF0.179519
aF0.179519
aF0.228608
aF0.192619
aF0.226118
aF0.228608
aF0.22391
aF0.228608
aF0.228608
aF0.228608
aF0.221882
aF0.228608
aF0.173384
aF0.179519
aF0.222812
aF0.179519
aF0.179519
aF0.228608
aF0.190609
aF0.227354
aF0.197816
aF0.220271
aF0.179519
aF0.228608
aF0.179519
aF0.228608
aF0.182414
aF0.196763
aF0.188654
aF0.179519
aF0.200996
aF0.228608
aF0.179519
aF0.179519
aF0.215882
aF0.228608
aF0.179519
aF0.183156
aF0.174638
aF0.205816
aF0.179519
aF0.214297
aF0.178083
aF0.179519
aF0.179519
aF0.179519
aF0.179519
aF0.228608
aF0.228608
aF0.179519
aF0.210992
aF0.212369
aF0.228608
aF0.179519
aF0.220374
aF0.179519
aF0.228608
aF0.179519
aF0.179519
aF0.179519
aF0.179519
aF0.179519
aF0.228608
aF0.222591
aF0.179519
aF0.228608
aF0.221585
aF0.186767
aF0.228526
aF0.222812
aF0.228608
aF0.228608
aF0.179519
aF0.228608
aF0.228608
aF0.198874
aF0.179519
aF0.228608
aF0.179519
aF0.173384
aF0.225889
aF0.179519
aF0.179519
aF0.179519
aF0.216141
aF0.179519
aF0.20835
aF0.228608
aF0.197136
aF0.228608
aF0.228608
aF0.175874
aF0.179519
aF0.179519
aF0.179519
aF0.184086
aF0.179519
aF0.183237
aF0.179519
aF0.203118
aF0.228608
aF0.179519
aF0.228608
aF0.179519
aF0.182239
aF0.209288
aF0.175874
aF0.179519
aF0.204064
aF0.179519
aF0.179519
aF0.173384
aF0.179519
aF0.199934
aF0.174638
aF0.228608
aF0.179519
aF0.225889
aF0.205229
aF0.210992
aF0.179519
aF0.179519
aF0.228608
aF0.179519
aF0.228608
aF0.173411
aF0.179519
aF0.228285
aF0.179519
aF0.228608
aF0.228608
aF0.224972
aF0.228608
aF0.179519
aF0.179519
aF0.179519
aF0.179519
aF0.184957
aF0.179519
aF0.173384
aF0.173491
aF0.179519
aF0.179519
aF0.228608
aF0.227957
aF0.228608
aF0.182414
aF0.209373
aF0.17542
aF0.173384
aF0.228608
aF0.179402
aF0.179519
aF0.179519
aF0.20756
aF0.211384
aF0.228608
aF0.179519
aF0.228608
aF0.185316
aF0.179519
aF0.179519
aF0.179519
aF0.204064
aF0.197816
aF0.176903
aF0.179519
aF0.200568
aF0.179519
aF0.179519
aF0.210385
aF0.228608
aF0.179519
aF0.218755
aF0.18011
aF0.228608
aF0.180849
aF0.173623
aF0.179519
aF0.191608
aF0.179519
aF0.173384
aF0.179519
aF0.228608
aF0.212664
aF0.179519
aF0.227358
aF0.178083
aF0.227678
aF0.179519
aF0.195464
aF0.228608
aF0.215226
aF0.228608
aF0.228608
aF0.186767
aF0.228608
aF0.189624
aF0.187701
aF0.179519
aF0.179519
aF0.179519
aF0.215226
aF0.205816
aF0.199934
aF0.179519
aF0.228608
aF0.228608
aF0.228608
aF0.179519
aF0.179519
aF0.227893
aF0.202312
aF0.179519
aF0.192246
aF0.193831
aF0.228608
aF0.217907
aF0.179519
aF0.227893
aF0.174314
aF0.228608
aF0.174036
aF0.179519
aF0.228608
aF0.186543
aF0.173623
aF0.179519
aF0.226572
aF0.179519
aF0.179519
aF0.179519
aF0.179519
aF0.179519
aF0.226985
aF0.218755
aF0.179519
aF0.228608
aF0.179519
aF0.181618
aF0.228608
aF0.179519
aF0.224518
aF0.194674
aF0.179519
aF0.228608
aF0.213338
aF0.179519
aF0.179519
aF0.179519
aF0.223944
aF0.179519
aF0.179519
aF0.225089
aF0.205816
aF0.228608
aF0.228608
aF0.228608
aF0.228608
aF0.179519
aF0.179519
aF0.179519
aF0.228608
aF0.179519
aF0.179519
aF0.214291
aF0.179519
aF0.179519
aF0.179519
aF0.228608
aF0.228608
aF0.228608
aF0.228608
aF0.179519
aF0.222591
aF0.228608
aF0.192246
aF0.221882
aF0.200996
aF0.207318
aF0.223267
aF0.174036
aF0.173384
aF0.193642
aF0.178725
aF0.228608
aF0.179519
aF0.179519
aF0.179519
aF0.217035
aF0.173805
aF0.228608
aF0.211384
aF0.195715
aF0.179519
aF0.225089
aF0.179519
aF0.179519
aF0.176369
aF0.224518
asS'LElbowYaw'
p27
(lp28
F-0.987925
aF-0.895738
aF-1.845792
aF-0.978141
aF-1.006221
aF-1.518942
aF-0.957793
aF-0.867281
aF-1.026672
aF-1.050465
aF-1.140336
aF-1.546824
aF-1.844391
aF-1.051382
aF-1.675316
aF-1.319375
aF-1.051196
aF-0.872278
aF-1.013096
aF-1.845252
aF-1.003422
aF-0.974887
aF-0.847811
aF-1.025279
aF-0.933401
aF-1.845951
aF-1.020853
aF-1.019598
aF-0.954418
aF-1.003446
aF-0.992167
aF-0.990883
aF-1.835113
aF-0.92971
aF-1.719195
aF-0.999288
aF-1.044357
aF-1.083592
aF-1.006189
aF-1.682725
aF-0.986666
aF-1.26513
aF-1.066617
aF-1.051382
aF-1.042438
aF-0.945432
aF-1.837945
aF-0.849535
aF-1.032982
aF-1.213487
aF-0.984426
aF-1.845994
aF-1.028597
aF-1.844502
aF-1.081587
aF-1.031106
aF-1.13429
aF-0.855058
aF-1.420125
aF-1.337973
aF-0.952316
aF-0.889515
aF-0.943724
aF-0.846825
aF-1.032682
aF-1.404258
aF-1.10204
aF-1.800864
aF-0.872278
aF-0.992167
aF-0.883496
aF-1.819979
aF-0.954418
aF-1.712748
aF-1.845006
aF-1.579239
aF-1.845966
aF-1.8442
aF-1.844126
aF-1.501417
aF-1.8447
aF-1.13429
aF-0.993674
aF-1.626389
aF-0.877733
aF-1.011828
aF-1.845334
aF-0.964375
aF-1.785317
aF-0.934845
aF-1.574106
aF-0.986414
aF-1.844342
aF-1.049528
aF-1.845907
aF-1.006189
aF-0.937894
aF-0.974887
aF-0.887679
aF-0.929688
aF-1.845998
aF-1.001218
aF-0.902113
aF-1.490579
aF-1.845019
aF-0.986695
aF-1.014881
aF-1.087707
aF-1.319375
aF-0.994541
aF-1.461854
aF-1.044401
aF-0.847302
aF-1.052167
aF-1.038208
aF-0.96745
aF-1.844631
aF-1.831378
aF-0.846635
aF-1.375657
aF-1.047841
aF-1.844926
aF-1.001218
aF-1.379083
aF-0.887679
aF-1.845818
aF-0.896349
aF-1.031106
aF-0.934441
aF-1.023455
aF-0.990832
aF-1.845576
aF-1.501417
aF-1.033554
aF-1.840088
aF-1.600668
aF-0.98558
aF-1.788201
aF-1.626389
aF-1.845087
aF-1.84414
aF-0.955413
aF-1.842926
aF-1.845383
aF-0.932389
aF-1.049146
aF-1.845725
aF-0.965541
aF-1.13429
aF-1.675316
aF-0.924945
aF-1.032982
aF-0.986708
aF-1.179677
aF-1.049146
aF-0.963913
aF-1.845792
aF-1.188918
aF-1.845416
aF-1.844261
aF-1.069123
aF-0.858576
aF-0.859837
aF-0.985979
aF-1.001186
aF-0.994541
aF-1.006189
aF-0.9755
aF-0.930874
aF-1.846006
aF-1.008115
aF-1.841707
aF-0.9755
aF-1.006221
aF-1.375657
aF-1.069123
aF-0.985197
aF-1.291984
aF-0.921629
aF-0.883496
aF-1.124376
aF-0.971576
aF-0.93063
aF-1.087707
aF-1.844773
aF-1.026041
aF-1.697941
aF-0.937568
aF-1.404258
aF-1.015658
aF-0.986616
aF-1.846029
aF-1.005725
aF-1.846029
aF-1.120115
aF-0.985117
aF-1.773584
aF-0.975158
aF-1.845641
aF-1.826458
aF-1.65143
aF-1.841707
aF-1.011828
aF-0.999129
aF-0.989677
aF-0.952373
aF-0.996099
aF-0.945207
aF-1.12819
aF-1.115452
aF-0.990832
aF-0.971576
aF-1.846
aF-1.817444
aF-1.843839
aF-1.011219
aF-0.979251
aF-1.075378
aF-1.139393
aF-1.844342
aF-1.032682
aF-1.051379
aF-0.98047
aF-1.34719
aF-1.021545
aF-1.843839
aF-0.988708
aF-1.845652
aF-1.037397
aF-0.855058
aF-0.995344
aF-0.85145
aF-1.291984
aF-0.934845
aF-1.056629
aF-0.934441
aF-1.238928
aF-0.993674
aF-1.047726
aF-0.998572
aF-1.844176
aF-0.908588
aF-1.297137
aF-1.027066
aF-1.844156
aF-1.021624
aF-1.110433
aF-0.985619
aF-0.959302
aF-0.905514
aF-1.138142
aF-0.982201
aF-1.844105
aF-1.432888
aF-1.010577
aF-1.738963
aF-1.044401
aF-1.803072
aF-0.984426
aF-1.165327
aF-1.844176
aF-1.143337
aF-1.844097
aF-1.844849
aF-0.98558
aF-1.840088
aF-0.969586
aF-0.980234
aF-0.965541
aF-0.859837
aF-1.051379
aF-1.143337
aF-1.291984
aF-0.93063
aF-1.05037
aF-1.845933
aF-1.845006
aF-1.844565
aF-0.915078
aF-0.915111
aF-1.757132
aF-1.26513
aF-0.848886
aF-1.121875
aF-1.143003
aF-1.846029
aF-1.256915
aF-1.046124
aF-1.757132
aF-1.093696
aF-1.844114
aF-1.09951
aF-0.854973
aF-1.845983
aF-1.051196
aF-1.110433
aF-1.040383
aF-1.739997
aF-1.003422
aF-0.96745
aF-1.052363
aF-0.851941
aF-0.986666
aF-1.764248
aF-1.297137
aF-0.859837
aF-1.845998
aF-0.862697
aF-1.016349
aF-1.844228
aF-0.946636
aF-1.615806
aF-0.945432
aF-1.035926
aF-1.800864
aF-1.077129
aF-1.052574
aF-0.846635
aF-0.940639
aF-1.65143
aF-0.997166
aF-0.879598
aF-1.650399
aF-1.291984
aF-1.811453
aF-1.844444
aF-1.844565
aF-1.845907
aF-0.865583
aF-0.851941
aF-0.872201
aF-1.846
aF-0.986536
aF-1.038464
aF-1.109077
aF-0.985979
aF-1.052167
aF-0.957793
aF-1.845169
aF-1.845854
aF-1.845497
aF-1.845334
aF-0.92809
aF-1.501417
aF-1.844519
aF-1.10204
aF-1.461114
aF-0.929688
aF-0.952316
aF-1.541005
aF-1.09951
aF-1.136485
aF-0.949776
aF-1.038465
aF-1.845951
aF-0.986236
aF-1.046761
aF-0.962837
aF-1.217649
aF-1.105104
aF-1.844773
aF-1.021545
aF-0.941449
aF-0.93502
aF-1.650399
aF-1.049146
aF-0.983483
aF-1.06286
aF-1.615806
asS'LAnklePitch'
p29
(lp30
F0.13495
aF0.13495
aF0.171582
aF0.13495
aF0.136672
aF0.15976
aF0.13495
aF0.13495
aF0.13495
aF0.136257
aF0.133416
aF0.160783
aF0.171766
aF0.13495
aF0.165226
aF0.151931
aF0.139416
aF0.13495
aF0.13495
aF0.171724
aF0.13495
aF0.14402
aF0.13495
aF0.13791
aF0.154799
aF0.171474
aF0.13495
aF0.13495
aF0.146071
aF0.13495
aF0.13495
aF0.142074
aF0.169594
aF0.153328
aF0.166601
aF0.136166
aF0.13495
aF0.141151
aF0.140259
aF0.169693
aF0.13495
aF0.150774
aF0.140257
aF0.13495
aF0.13495
aF0.147484
aF0.169749
aF0.13495
aF0.13495
aF0.147351
aF0.13495
aF0.17133
aF0.13495
aF0.171766
aF0.134544
aF0.13495
aF0.133416
aF0.13495
aF0.166582
aF0.165495
aF0.156258
aF0.13495
aF0.156258
aF0.13495
aF0.137595
aF0.155382
aF0.142092
aF0.168894
aF0.13495
aF0.13495
aF0.13495
aF0.169081
aF0.146774
aF0.170037
aF0.17175
aF0.168503
aF0.171274
aF0.171766
aF0.171766
aF0.167095
aF0.171764
aF0.133416
aF0.13495
aF0.163602
aF0.13495
aF0.13495
aF0.171712
aF0.145378
aF0.170895
aF0.150383
aF0.161767
aF0.13495
aF0.171766
aF0.13495
aF0.17155
aF0.139687
aF0.149651
aF0.14402
aF0.13495
aF0.152591
aF0.171383
aF0.13495
aF0.13495
aF0.158704
aF0.170527
aF0.13495
aF0.137255
aF0.134287
aF0.151931
aF0.13495
aF0.157619
aF0.136679
aF0.13495
aF0.13495
aF0.13495
aF0.13495
aF0.171765
aF0.169431
aF0.13495
aF0.155382
aF0.160488
aF0.171755
aF0.13495
aF0.166048
aF0.13495
aF0.170827
aF0.13495
aF0.13495
aF0.13495
aF0.13495
aF0.13495
aF0.17166
aF0.167587
aF0.13495
aF0.169896
aF0.162708
aF0.14271
aF0.168451
aF0.163602
aF0.171743
aF0.171766
aF0.13495
aF0.17017
aF0.170633
aF0.151117
aF0.13495
aF0.171611
aF0.13495
aF0.133416
aF0.165947
aF0.13495
aF0.13495
aF0.13495
aF0.163108
aF0.13495
aF0.157698
aF0.171611
aF0.146242
aF0.171697
aF0.171766
aF0.135146
aF0.13495
aF0.13495
aF0.13495
aF0.140848
aF0.13495
aF0.140259
aF0.13495
aF0.154065
aF0.171212
aF0.13495
aF0.170037
aF0.13495
aF0.136672
aF0.154239
aF0.135146
aF0.13495
aF0.150774
aF0.13495
aF0.13495
aF0.133416
aF0.13495
aF0.151854
aF0.134287
aF0.171762
aF0.13495
aF0.165947
aF0.155531
aF0.155382
aF0.13495
aF0.13495
aF0.171074
aF0.13495
aF0.171146
aF0.133435
aF0.13495
aF0.168113
aF0.13495
aF0.170733
aF0.16926
aF0.165226
aF0.170037
aF0.13495
aF0.13495
aF0.13495
aF0.13495
aF0.141453
aF0.13495
aF0.133416
aF0.13349
aF0.13495
aF0.13495
aF0.170997
aF0.171313
aF0.170295
aF0.139687
aF0.158408
aF0.13483
aF0.133416
aF0.171766
aF0.137595
aF0.13495
aF0.13495
aF0.153087
aF0.159804
aF0.170295
aF0.13495
aF0.171637
aF0.138632
aF0.13495
aF0.13495
aF0.13495
aF0.150774
aF0.150383
aF0.13586
aF0.13495
aF0.148479
aF0.13495
aF0.13495
aF0.159111
aF0.171766
aF0.13495
aF0.164923
aF0.138087
aF0.171766
aF0.1386
aF0.133582
aF0.13495
aF0.146071
aF0.13495
aF0.133416
aF0.13495
aF0.171766
aF0.15651
aF0.13495
aF0.167183
aF0.136679
aF0.17112
aF0.13495
aF0.145157
aF0.171766
aF0.162473
aF0.171766
aF0.171759
aF0.14271
aF0.170037
aF0.144694
aF0.143359
aF0.13495
aF0.13495
aF0.13495
aF0.162473
aF0.151931
aF0.151854
aF0.13495
aF0.170915
aF0.171755
aF0.171766
aF0.13495
aF0.13495
aF0.167689
aF0.149622
aF0.13495
aF0.143077
aF0.1441
aF0.171146
aF0.164334
aF0.13495
aF0.167689
aF0.134062
aF0.171766
aF0.133869
aF0.13495
aF0.17143
aF0.139416
aF0.133582
aF0.13495
aF0.170352
aF0.13495
aF0.13495
aF0.13495
aF0.13495
aF0.13495
aF0.170639
aF0.164923
aF0.13495
aF0.171383
aF0.13495
aF0.139134
aF0.171766
aF0.13495
aF0.168925
aF0.148201
aF0.13495
aF0.168698
aF0.161162
aF0.13495
aF0.13495
aF0.13495
aF0.164442
aF0.13495
aF0.13495
aF0.169322
aF0.151931
aF0.168894
aF0.171766
aF0.171766
aF0.171514
aF0.13495
aF0.13495
aF0.13495
aF0.170997
aF0.13495
aF0.13495
aF0.161823
aF0.13495
aF0.13495
aF0.13495
aF0.171735
aF0.17155
aF0.17168
aF0.171712
aF0.13495
aF0.167587
aF0.170415
aF0.143077
aF0.167095
aF0.152591
aF0.156981
aF0.168057
aF0.133869
aF0.133416
aF0.147484
aF0.137125
aF0.171514
aF0.13495
aF0.13495
aF0.13495
aF0.163729
aF0.133708
aF0.171762
aF0.159804
aF0.148924
aF0.13495
aF0.169322
aF0.13495
aF0.13495
aF0.135489
aF0.168925
asS'RHipYawPitch'
p31
(lp32
F-0.380389
aF-0.380389
aF-0.418739
aF-0.380389
aF-0.382514
aF-0.409991
aF-0.380389
aF-0.380389
aF-0.380389
aF-0.292327
aF-0.282215
aF-0.411136
aF-0.418739
aF-0.380389
aF-0.415899
aF-0.400933
aF-0.385876
aF-0.380389
aF-0.380389
aF-0.418739
aF-0.380389
aF-0.319965
aF-0.380389
aF-0.384033
aF-0.358338
aF-0.418739
aF-0.380389
aF-0.380389
aF-0.329768
aF-0.380389
aF-0.380389
aF-0.313037
aF-0.418739
aF-0.353102
aF-0.417238
aF-0.38189
aF-0.380389
aF-0.387992
aF-0.306574
aF-0.41136
aF-0.380389
aF-0.398196
aF-0.386903
aF-0.380389
aF-0.380389
aF-0.334848
aF-0.418739
aF-0.380389
aF-0.380389
aF-0.395483
aF-0.380389
aF-0.418739
aF-0.380389
aF-0.418739
aF-0.286228
aF-0.380389
aF-0.282215
aF-0.380389
aF-0.400283
aF-0.396415
aF-0.366106
aF-0.380389
aF-0.363532
aF-0.380389
aF-0.297092
aF-0.404977
aF-0.389137
aF-0.418739
aF-0.380389
aF-0.380389
aF-0.380389
aF-0.418739
aF-0.329768
aF-0.412583
aF-0.418739
aF-0.407124
aF-0.418739
aF-0.418739
aF-0.418739
aF-0.403862
aF-0.418739
aF-0.282215
aF-0.380389
aF-0.414211
aF-0.380389
aF-0.380389
aF-0.418739
aF-0.324798
aF-0.415638
aF-0.342616
aF-0.412226
aF-0.380389
aF-0.418739
aF-0.380389
aF-0.418739
aF-0.306574
aF-0.340012
aF-0.319965
aF-0.380389
aF-0.350477
aF-0.418739
aF-0.380389
aF-0.380389
aF-0.408797
aF-0.418739
aF-0.380389
aF-0.38323
aF-0.285316
aF-0.400933
aF-0.380389
aF-0.407559
aF-0.29383
aF-0.380389
aF-0.380389
aF-0.380389
aF-0.380389
aF-0.418739
aF-0.418739
aF-0.380389
aF-0.403645
aF-0.378591
aF-0.418739
aF-0.380389
aF-0.398383
aF-0.380389
aF-0.418739
aF-0.380389
aF-0.380389
aF-0.380389
aF-0.380389
aF-0.380389
aF-0.418739
aF-0.403862
aF-0.380389
aF-0.418739
aF-0.413253
aF-0.315299
aF-0.418675
aF-0.414211
aF-0.418739
aF-0.418739
aF-0.380389
aF-0.418739
aF-0.418739
aF-0.345231
aF-0.380389
aF-0.418739
aF-0.380389
aF-0.282215
aF-0.415899
aF-0.380389
aF-0.380389
aF-0.380389
aF-0.387917
aF-0.380389
aF-0.368658
aF-0.418739
aF-0.394152
aF-0.418739
aF-0.418739
aF-0.288371
aF-0.380389
aF-0.380389
aF-0.380389
aF-0.308671
aF-0.380389
aF-0.306574
aF-0.380389
aF-0.355723
aF-0.418739
aF-0.380389
aF-0.418739
aF-0.380389
aF-0.382514
aF-0.403645
aF-0.288371
aF-0.380389
aF-0.399564
aF-0.380389
aF-0.380389
aF-0.282215
aF-0.380389
aF-0.347852
aF-0.285316
aF-0.418739
aF-0.380389
aF-0.416615
aF-0.360942
aF-0.404977
aF-0.380389
aF-0.380389
aF-0.418739
aF-0.380389
aF-0.418739
aF-0.282281
aF-0.380389
aF-0.418487
aF-0.380389
aF-0.418739
aF-0.418739
aF-0.415095
aF-0.418739
aF-0.380389
aF-0.380389
aF-0.380389
aF-0.380389
aF-0.310826
aF-0.380389
aF-0.282215
aF-0.282479
aF-0.380389
aF-0.380389
aF-0.418739
aF-0.417128
aF-0.418739
aF-0.304539
aF-0.371186
aF-0.287248
aF-0.282215
aF-0.418739
aF-0.297092
aF-0.380389
aF-0.380389
aF-0.402295
aF-0.376156
aF-0.418739
aF-0.380389
aF-0.418739
aF-0.384917
aF-0.380389
aF-0.380389
aF-0.380389
aF-0.399564
aF-0.342616
aF-0.290914
aF-0.380389
aF-0.396833
aF-0.380389
aF-0.380389
aF-0.373687
aF-0.418739
aF-0.380389
aF-0.39438
aF-0.298843
aF-0.418739
aF-0.300671
aF-0.282805
aF-0.380389
aF-0.327267
aF-0.380389
aF-0.282215
aF-0.380389
aF-0.418739
aF-0.406283
aF-0.380389
aF-0.417762
aF-0.29383
aF-0.41644
aF-0.380389
aF-0.392846
aF-0.418739
aF-0.385655
aF-0.418739
aF-0.418739
aF-0.315299
aF-0.418739
aF-0.322363
aF-0.31761
aF-0.380389
aF-0.380389
aF-0.380389
aF-0.385655
aF-0.399564
aF-0.347852
aF-0.380389
aF-0.418739
aF-0.418739
aF-0.418739
aF-0.380389
aF-0.380389
aF-0.41818
aF-0.398196
aF-0.380389
aF-0.390332
aF-0.39157
aF-0.418739
aF-0.392283
aF-0.380389
aF-0.41818
aF-0.284514
aF-0.418739
aF-0.283826
aF-0.380389
aF-0.418739
aF-0.385876
aF-0.282805
aF-0.380389
aF-0.413706
aF-0.380389
aF-0.380389
aF-0.380389
aF-0.380389
aF-0.380389
aF-0.414726
aF-0.39438
aF-0.380389
aF-0.418739
aF-0.380389
aF-0.30257
aF-0.418739
aF-0.380389
aF-0.408626
aF-0.334848
aF-0.380389
aF-0.418739
aF-0.380988
aF-0.380389
aF-0.380389
aF-0.380389
aF-0.415095
aF-0.380389
aF-0.380389
aF-0.41004
aF-0.399564
aF-0.418739
aF-0.418739
aF-0.418739
aF-0.418739
aF-0.380389
aF-0.380389
aF-0.380389
aF-0.418739
aF-0.380389
aF-0.380389
aF-0.383344
aF-0.380389
aF-0.380389
aF-0.380389
aF-0.418739
aF-0.418739
aF-0.418739
aF-0.418739
aF-0.380389
aF-0.403862
aF-0.418739
aF-0.389137
aF-0.402111
aF-0.350477
aF-0.366106
aF-0.405534
aF-0.283826
aF-0.282215
aF-0.332296
aF-0.29542
aF-0.418739
aF-0.380389
aF-0.380389
aF-0.380389
aF-0.390128
aF-0.283255
aF-0.418739
aF-0.376156
aF-0.337421
aF-0.380389
aF-0.41004
aF-0.380389
aF-0.380389
aF-0.289594
aF-0.408626
asS'HeadPitch'
p33
(lp34
F-0.297501
aF-0.230004
aF-0.266614
aF-0.301852
aF-0.257404
aF-0.056888
aF-0.284449
aF-0.199463
aF-0.028129
aF-0.237574
aF-0.391212
aF-0.064373
aF-0.283175
aF-0.077005
aF-0.108967
aF-0.029188
aF-0.187765
aF-0.211607
aF-0.199782
aF-0.275578
aF-0.232068
aF-0.012139
aF-0.165474
aF-0.224472
aF0.077367
aF-0.261625
aF-0.176697
aF-0.026194
aF0.020958
aF-0.024586
aF-0.276247
aF-0.044109
aF-0.207675
aF0.070724
aF-0.128409
aF-0.271668
aF-0.111564
aF-0.149799
aF-0.088599
aF-0.156442
aF-0.308375
aF-0.030866
aF-0.168782
aF-0.077005
aF-0.118484
aF0.028149
aF-0.211735
aF-0.171042
aF-0.03075
aF-0.05352
aF-0.308097
aF-0.255903
aF-0.156305
aF-0.282526
aF-0.324114
aF-0.144524
aF-0.391212
aF-0.122475
aF-0.019747
aF0.01503
aF0.084465
aF-0.223882
aF0.082476
aF-0.159329
aF-0.179881
aF-0.034835
aF-0.13113
aF-0.182542
aF-0.205505
aF-0.276247
aF-0.217741
aF-0.189973
aF0.020958
aF-0.175155
aF-0.278346
aF-0.097451
aF-0.253827
aF-0.283832
aF-0.283832
aF-0.03846
aF-0.281109
aF-0.391212
aF-0.269669
aF-0.090069
aF-0.211607
aF-0.024996
aF-0.274517
aF0.005284
aF-0.225588
aF0.052704
aF-0.07246
aF-0.308375
aF-0.283415
aF-0.047107
aF-0.263368
aF-0.105588
aF0.047188
aF-0.012139
aF-0.082048
aF0.066818
aF-0.257894
aF-0.240025
aF-0.236081
aF-0.050099
aF-0.23114
aF-0.308375
aF-0.241567
aF-0.338475
aF-0.029188
aF-0.025118
aF-0.044098
aF-0.21849
aF-0.145595
aF-0.070453
aF-0.131932
aF-0.292508
aF-0.281642
aF-0.202633
aF-0.152678
aF-0.034835
aF0.08893
aF-0.279134
aF-0.240025
aF-0.001849
aF-0.082048
aF-0.239528
aF-0.07433
aF-0.150374
aF-0.264877
aF-0.169524
aF-0.282377
aF-0.270901
aF-0.057784
aF-0.144524
aF-0.21522
aF-0.081057
aF-0.031995
aF-0.165943
aF-0.090069
aF-0.277491
aF-0.283832
aF-0.036673
aF-0.221886
aF-0.234031
aF0.057812
aF-0.09062
aF-0.26812
aF-0.032515
aF-0.391212
aF-0.118667
aF-0.053213
aF-0.03075
aF-0.308375
aF0.068281
aF-0.09062
aF0.086084
aF-0.26812
aF-0.065896
aF-0.273384
aF-0.28373
aF-0.291943
aF-0.187658
aF-0.114386
aF-0.308375
aF-0.072578
aF-0.025118
aF-0.088599
aF-0.029155
aF0.07424
aF-0.251666
aF-0.215902
aF-0.218603
aF-0.032515
aF-0.257404
aF-0.03176
aF-0.291943
aF-0.026665
aF-0.030866
aF-0.25378
aF-0.217741
aF-0.391212
aF-0.296014
aF0.062515
aF-0.338475
aF-0.280514
aF-0.162707
aF-0.118667
aF0.080111
aF-0.034835
aF-0.191884
aF-0.308375
aF-0.24708
aF-0.224008
aF-0.249417
aF-0.389969
aF-0.308375
aF-0.156962
aF-0.299138
aF-0.236826
aF-0.196701
aF-0.108967
aF-0.218603
aF-0.024996
aF-0.247821
aF-0.288001
aF-0.279949
aF-0.057692
aF-0.041557
aF-0.391212
aF-0.38635
aF-0.282377
aF-0.296014
aF-0.244654
aF-0.252418
aF-0.225069
aF-0.105588
aF0.087335
aF-0.308547
aF-0.391212
aF-0.283599
aF-0.179881
aF-0.052414
aF-0.304131
aF-0.029847
aF0.088754
aF-0.225069
aF-0.293061
aF-0.269548
aF-0.206433
aF-0.122475
aF-0.262701
aF-0.130422
aF-0.030866
aF0.052704
aF-0.25629
aF-0.264877
aF-0.043347
aF-0.269669
aF-0.097582
aF0.088224
aF-0.283832
aF-0.242087
aF0.030686
aF-0.160692
aF-0.283832
aF-0.141801
aF-0.380523
aF-0.308375
aF0.013338
aF-0.066903
aF-0.391212
aF-0.305949
aF-0.283832
aF-0.038979
aF-0.207807
aF-0.138102
aF-0.21849
aF-0.239818
aF-0.308097
aF-0.080159
aF-0.283832
aF0.07701
aF-0.283832
aF-0.279856
aF-0.031995
aF-0.21522
aF-0.003207
aF-0.021518
aF-0.032515
aF-0.114386
aF-0.052414
aF0.07701
aF-0.029188
aF0.062515
aF-0.083744
aF-0.242137
aF-0.279134
aF-0.282114
aF-0.05984
aF-0.247995
aF-0.14765
aF-0.035691
aF-0.138152
aF-0.113091
aF-0.095996
aF-0.249417
aF0.044916
aF-0.10458
aF-0.14765
aF-0.351463
aF-0.283832
aF-0.362912
aF-0.181948
aF-0.259801
aF-0.187765
aF-0.380523
aF-0.12529
aF-0.193053
aF-0.232068
aF-0.292508
aF-0.052414
aF-0.176401
aF-0.308375
aF-0.209932
aF0.030686
aF-0.114386
aF-0.257894
aF-0.193505
aF-0.123378
aF-0.283807
aF-0.275169
aF-0.117387
aF0.034915
aF-0.13836
aF-0.174501
aF0.087538
aF-0.064136
aF-0.152678
aF-0.270137
aF-0.099403
aF-0.255399
aF-0.089985
aF-0.137118
aF-0.030866
aF-0.182542
aF-0.282879
aF-0.282526
aF-0.263368
aF-0.106227
aF-0.176401
aF-0.106227
aF-0.244654
aF-0.308375
aF-0.034009
aF0.083496
aF-0.308375
aF-0.070453
aF-0.284449
aF-0.276569
aF-0.265031
aF-0.272179
aF-0.274517
aF-0.259416
aF-0.057784
aF-0.228153
aF-0.13113
aF-0.03846
aF0.066818
aF0.084465
aF-0.077516
aF-0.362912
aF-0.391212
aF0.028149
aF-0.199203
aF-0.263368
aF-0.308375
aF-0.042238
aF-0.288644
aF0.057516
aF-0.372654
aF-0.280514
aF0.088754
aF0.04126
aF-0.047095
aF-0.137118
aF-0.09062
aF-0.30728
aF-0.274468
aF-0.117387
asS'LElbowRoll'
p35
(lp36
F-0.585333
aF-0.788475
aF-0.702872
aF-0.612176
aF-0.588581
aF-0.684298
aF-0.65726
aF-0.847172
aF-0.719889
aF-0.456554
aF-0.394347
aF-0.690153
aF-0.658521
aF-0.661189
aF-0.716222
aF-0.644979
aF-0.596306
aF-0.836718
aF-0.603033
aF-0.682354
aF-0.595378
aF-0.518538
aF-0.88784
aF-0.591806
aF-0.581784
aF-0.711869
aF-0.610103
aF-0.728058
aF-0.536995
aF-0.745366
aF-0.587807
aF-0.504823
aF-0.747391
aF-0.574711
aF-0.724907
aF-0.587452
aF-0.641398
aF-0.602006
aF-0.49168
aF-0.646859
aF-0.587026
aF-0.635011
aF-0.599013
aF-0.661189
aF-0.637759
aF-0.546017
aF-0.74755
aF-0.88409
aF-0.712099
aF-0.62549
aF-0.596037
aF-0.720529
aF-0.618272
aF-0.660835
aF-0.434507
aF-0.621233
aF-0.398913
aF-0.882821
aF-0.631877
aF-0.627227
aF-0.591425
aF-0.80137
aF-0.588327
aF-0.89025
aF-0.469965
aF-0.660436
aF-0.605272
aF-0.741095
aF-0.836718
aF-0.587807
aF-0.813782
aF-0.744843
aF-0.536995
aF-0.64846
aF-0.674525
aF-0.640812
aF-0.723286
aF-0.655933
aF-0.655346
aF-0.636049
aF-0.665754
aF-0.398913
aF-0.588741
aF-0.70658
aF-0.8256
aF-0.736567
aF-0.685139
aF-0.527796
aF-0.652202
aF-0.558977
aF-0.695827
aF-0.588802
aF-0.657689
aF-0.685308
aF-0.708892
aF-0.49168
aF-0.55475
aF-0.518538
aF-0.852981
aF-0.57097
aF-0.717699
aF-0.593788
aF-0.775208
aF-0.678267
aF-0.742869
aF-0.586635
aF-0.590032
aF-0.430313
aF-0.644979
aF-0.7544
aF-0.672065
aF-0.461042
aF-0.891008
aF-0.665456
aF-0.63081
aF-0.636246
aF-0.663937
aF-0.746907
aF-0.891302
aF-0.655231
aF-0.606056
aF-0.672131
aF-0.593788
aF-0.629599
aF-0.852981
aF-0.737652
aF-0.845221
aF-0.621233
aF-0.707164
aF-0.612705
aF-0.587002
aF-0.693856
aF-0.636049
aF-0.624311
aF-0.747408
aF-0.701308
aF-0.50935
aF-0.738588
aF-0.70658
aF-0.677035
aF-0.655439
aF-0.791817
aF-0.746305
aF-0.741309
aF-0.563095
aF-0.652959
aF-0.699853
aF-0.782383
aF-0.398913
aF-0.716222
aF-0.819588
aF-0.712099
aF-0.586314
aF-0.616937
aF-0.652959
aF-0.594438
aF-0.702872
aF-0.620934
aF-0.687992
aF-0.656576
aF-0.443172
aF-0.865279
aF-0.87828
aF-0.590789
aF-0.495989
aF-0.7544
aF-0.49168
aF-0.772964
aF-0.578316
aF-0.725962
aF-0.598949
aF-0.746987
aF-0.772964
aF-0.588581
aF-0.655231
aF-0.443172
aF-0.763617
aF-0.639947
aF-0.734278
aF-0.813782
aF-0.405662
aF-0.627116
aF-0.567096
aF-0.430313
aF-0.667733
aF-0.615429
aF-0.720697
aF-0.585118
aF-0.660436
aF-0.605265
aF-0.587502
aF-0.731012
aF-0.597099
aF-0.728541
aF-0.408516
aF-0.593879
aF-0.735691
aF-0.619055
aF-0.739566
aF-0.746069
aF-0.711507
aF-0.746987
aF-0.736567
aF-0.592329
aF-0.586324
aF-0.668919
aF-0.500364
aF-0.801204
aF-0.403095
aF-0.411631
aF-0.587002
aF-0.627116
aF-0.733362
aF-0.653802
aF-0.745381
aF-0.487389
aF-0.597401
aF-0.438801
aF-0.395129
aF-0.657689
aF-0.469965
aF-0.679758
aF-0.606592
aF-0.650092
aF-0.603219
aF-0.745381
aF-0.585769
aF-0.696844
aF-0.5939
aF-0.882821
aF-0.589805
aF-0.886636
aF-0.639947
aF-0.558977
aF-0.452068
aF-0.707164
aF-0.630187
aF-0.588741
aF-0.649
aF-0.600331
aF-0.655722
aF-0.761678
aF-0.62477
aF-0.474378
aF-0.655561
aF-0.478751
aF-0.414985
aF-0.592161
aF-0.53241
aF-0.837024
aF-0.39611
aF-0.60221
aF-0.655222
aF-0.665685
aF-0.600927
aF-0.728826
aF-0.461042
aF-0.65309
aF-0.596037
aF-0.616533
aF-0.655722
aF-0.614193
aF-0.655181
aF-0.669863
aF-0.50935
aF-0.747408
aF-0.523167
aF-0.513928
aF-0.782383
aF-0.87828
aF-0.679758
aF-0.614193
aF-0.639947
aF-0.567096
aF-0.657023
aF-0.73558
aF-0.674525
aF-0.662293
aF-0.828457
aF-0.747998
aF-0.732429
aF-0.635011
aF-0.88942
aF-0.608795
aF-0.612556
aF-0.728541
aF-0.622231
aF-0.645146
aF-0.732429
aF-0.426241
aF-0.655276
aF-0.422314
aF-0.872744
aF-0.714809
aF-0.596306
aF-0.414985
aF-0.634229
aF-0.649886
aF-0.595378
aF-0.636246
aF-0.674638
aF-0.879039
aF-0.587026
aF-0.651134
aF-0.62477
aF-0.87828
aF-0.717699
aF-0.856724
aF-0.483086
aF-0.656211
aF-0.681198
aF-0.642979
aF-0.546017
aF-0.627503
aF-0.741095
aF-0.608835
aF-0.669898
aF-0.891302
aF-0.693984
aF-0.711507
aF-0.591001
aF-0.860236
aF-0.644996
aF-0.639947
aF-0.743187
aF-0.659574
aF-0.662293
aF-0.708892
aF-0.872955
aF-0.879039
aF-0.866917
aF-0.733362
aF-0.588085
aF-0.704724
aF-0.61155
aF-0.590789
aF-0.665456
aF-0.65726
aF-0.679649
aF-0.705889
aF-0.690902
aF-0.685139
aF-0.72063
aF-0.636049
aF-0.744231
aF-0.605272
aF-0.634022
aF-0.57097
aF-0.591425
aF-0.6385
aF-0.422314
aF-0.397347
aF-0.541535
aF-0.465517
aF-0.711869
aF-0.589688
aF-0.691316
aF-0.646331
aF-0.619618
aF-0.418554
aF-0.667733
aF-0.603219
aF-0.550426
aF-0.810482
aF-0.644996
aF-0.652959
aF-0.598761
aF-0.447601
aF-0.642979
asS'RShoulderRoll'
p37
(lp38
F-0.129478
aF-0.089338
aF-0.141107
aF-0.119812
aF-0.12939
aF-0.132422
aF-0.111565
aF-0.080316
aF-0.096059
aF-0.094348
aF-0.104409
aF-0.133381
aF-0.142225
aF-0.10376
aF-0.137972
aF-0.127478
aF-0.129669
aF-0.081861
aF-0.121602
aF-0.14155
aF-0.124879
aF-0.084655
aF-0.074566
aF-0.129592
aF-0.079487
aF-0.140935
aF-0.118764
aF-0.095163
aF-0.082381
aF-0.093254
aF-0.12832
aF-0.086526
aF-0.140988
aF-0.079702
aF-0.139372
aF-0.129256
aF-0.108392
aF-0.129587
aF-0.088505
aF-0.112872
aF-0.127758
aF-0.127831
aF-0.129649
aF-0.10376
aF-0.109412
aF-0.081476
aF-0.140973
aF-0.075068
aF-0.096916
aF-0.128295
aF-0.123856
aF-0.140787
aF-0.11571
aF-0.142136
aF-0.098024
aF-0.114663
aF-0.103552
aF-0.075525
aF-0.088044
aF-0.084007
aF-0.079289
aF-0.0873
aF-0.079344
aF-0.074258
aF-0.092086
aF-0.12875
aF-0.129482
aF-0.140831
aF-0.081861
aF-0.12832
aF-0.085366
aF-0.140951
aF-0.082381
aF-0.11791
aF-0.141739
aF-0.099509
aF-0.140746
aF-0.142363
aF-0.142413
aF-0.093442
aF-0.141976
aF-0.103552
aF-0.127886
aF-0.136207
aF-0.083548
aF-0.094228
aF-0.141486
aF-0.083468
aF-0.130708
aF-0.080476
aF-0.134317
aF-0.126744
aF-0.142261
aF-0.100021
aF-0.141047
aF-0.088505
aF-0.080763
aF-0.084655
aF-0.080156
aF-0.079846
aF-0.140833
aF-0.125586
aF-0.091464
aF-0.131459
aF-0.140693
aF-0.128016
aF-0.129504
aF-0.09871
aF-0.127478
aF-0.092246
aF-0.13051
aF-0.093591
aF-0.07422
aF-0.102968
aF-0.111496
aF-0.115323
aF-0.142032
aF-0.140991
aF-0.074144
aF-0.12875
aF-0.07916
aF-0.1418
aF-0.125586
aF-0.085875
aF-0.080156
aF-0.140627
aF-0.081228
aF-0.114663
aF-0.102819
aF-0.117765
aF-0.128696
aF-0.141293
aF-0.093442
aF-0.113608
aF-0.140946
aF-0.135216
aF-0.085892
aF-0.140729
aF-0.136207
aF-0.141676
aF-0.142403
aF-0.087934
aF-0.140867
aF-0.140659
aF-0.080229
aF-0.105484
aF-0.141168
aF-0.089044
aF-0.103552
aF-0.138723
aF-0.084556
aF-0.096916
aF-0.128241
aF-0.079877
aF-0.105484
aF-0.079243
aF-0.141168
aF-0.12856
aF-0.141421
aF-0.14232
aF-0.096591
aF-0.077694
aF-0.076272
aF-0.125808
aF-0.087831
aF-0.092246
aF-0.088505
aF-0.090136
aF-0.079583
aF-0.140709
aF-0.123325
aF-0.140911
aF-0.090136
aF-0.12939
aF-0.128
aF-0.096591
aF-0.091205
aF-0.127634
aF-0.098206
aF-0.085366
aF-0.102555
aF-0.116975
aF-0.08002
aF-0.09871
aF-0.141919
aF-0.116745
aF-0.138723
aF-0.079409
aF-0.12875
aF-0.120687
aF-0.127464
aF-0.140654
aF-0.124125
aF-0.140678
aF-0.102137
aF-0.124592
aF-0.140591
aF-0.118469
aF-0.140637
aF-0.14098
aF-0.137972
aF-0.140911
aF-0.094228
aF-0.126242
aF-0.129013
aF-0.109496
aF-0.087172
aF-0.086812
aF-0.102928
aF-0.101672
aF-0.128696
aF-0.116975
aF-0.140636
aF-0.136669
aF-0.140815
aF-0.089193
aF-0.079204
aF-0.097316
aF-0.104234
aF-0.142261
aF-0.092086
aF-0.100748
aF-0.121011
aF-0.127386
aF-0.079155
aF-0.140815
aF-0.129273
aF-0.14123
aF-0.129649
aF-0.075525
aF-0.127394
aF-0.074922
aF-0.127634
aF-0.080476
aF-0.095103
aF-0.102819
aF-0.128051
aF-0.127886
aF-0.10642
aF-0.079173
aF-0.142379
aF-0.093662
aF-0.082505
aF-0.091344
aF-0.142392
aF-0.090614
aF-0.101158
aF-0.125239
aF-0.082905
aF-0.082322
aF-0.104036
aF-0.122077
aF-0.142426
aF-0.129598
aF-0.122483
aF-0.139908
aF-0.093591
aF-0.13398
aF-0.123856
aF-0.128846
aF-0.142379
aF-0.079511
aF-0.142432
aF-0.14186
aF-0.085892
aF-0.140946
aF-0.084054
aF-0.085268
aF-0.089044
aF-0.076272
aF-0.100748
aF-0.079511
aF-0.127634
aF-0.08002
aF-0.104597
aF-0.140627
aF-0.1418
aF-0.142085
aF-0.083433
aF-0.095916
aF-0.140315
aF-0.127831
aF-0.074483
aF-0.129337
aF-0.129154
aF-0.140678
aF-0.081344
aF-0.107393
aF-0.140315
aF-0.09937
aF-0.14242
aF-0.100001
aF-0.076637
aF-0.140882
aF-0.129669
aF-0.101158
aF-0.110448
aF-0.12261
aF-0.124879
aF-0.115323
aF-0.100748
aF-0.07576
aF-0.127758
aF-0.126898
aF-0.082505
aF-0.076272
aF-0.140833
aF-0.078924
aF-0.089896
aF-0.142343
aF-0.107333
aF-0.102688
aF-0.081476
aF-0.112551
aF-0.140831
aF-0.079202
aF-0.102209
aF-0.074144
aF-0.1051
aF-0.137129
aF-0.126846
aF-0.079111
aF-0.107576
aF-0.127634
aF-0.140903
aF-0.142183
aF-0.142085
aF-0.14099
aF-0.07714
aF-0.07576
aF-0.078098
aF-0.140636
aF-0.127128
aF-0.097737
aF-0.079306
aF-0.125808
aF-0.102968
aF-0.111565
aF-0.141613
aF-0.141047
aF-0.141357
aF-0.141486
aF-0.100514
aF-0.093442
aF-0.140757
aF-0.129482
aF-0.090648
aF-0.079846
aF-0.079289
aF-0.096409
aF-0.100001
aF-0.103809
aF-0.081904
aF-0.092836
aF-0.14099
aF-0.126307
aF-0.099283
aF-0.113515
aF-0.080478
aF-0.1006
aF-0.141919
aF-0.079155
aF-0.081096
aF-0.085684
aF-0.107576
aF-0.105484
aF-0.123021
aF-0.095851
aF-0.102688
asS'LAnkleRoll'
p39
(lp40
F-0.052114
aF-0.052114
aF-0.020084
aF-0.052114
aF-0.050646
aF-0.030856
aF-0.052114
aF-0.052114
aF-0.052114
aF-0.09518
aF-0.101202
aF-0.029971
aF-0.0199
aF-0.052114
aF-0.0261
aF-0.037599
aF-0.048307
aF-0.052114
aF-0.052114
aF-0.019942
aF-0.052114
aF-0.078721
aF-0.052114
aF-0.049591
aF-0.05587
aF-0.020192
aF-0.052114
aF-0.052114
aF-0.074373
aF-0.052114
aF-0.052114
aF-0.082847
aF-0.022072
aF-0.058988
aF-0.024885
aF-0.051078
aF-0.052114
aF-0.046826
aF-0.086696
aF-0.024295
aF-0.052114
aF-0.038591
aF-0.047589
aF-0.052114
aF-0.052114
aF-0.071378
aF-0.021917
aF-0.052114
aF-0.052114
aF-0.041525
aF-0.052114
aF-0.020336
aF-0.052114
aF-0.0199
aF-0.098812
aF-0.052114
aF-0.101202
aF-0.052114
aF-0.030891
aF-0.033195
aF-0.052776
aF-0.052114
aF-0.052776
aF-0.052114
aF-0.092343
aF-0.034633
aF-0.046021
aF-0.022772
aF-0.052114
aF-0.052114
aF-0.052114
aF-0.022585
aF-0.072884
aF-0.023566
aF-0.019916
aF-0.026817
aF-0.020393
aF-0.0199
aF-0.0199
aF-0.029803
aF-0.019902
aF-0.101202
aF-0.052114
aF-0.027521
aF-0.052114
aF-0.052114
aF-0.019955
aF-0.075843
aF-0.021747
aF-0.065232
aF-0.029118
aF-0.052114
aF-0.0199
aF-0.052114
aF-0.020116
aF-0.087907
aF-0.066783
aF-0.078721
aF-0.052114
aF-0.060551
aF-0.020284
aF-0.052114
aF-0.052114
aF-0.031769
aF-0.021139
aF-0.052114
aF-0.05015
aF-0.099355
aF-0.037599
aF-0.052114
aF-0.032706
aF-0.094285
aF-0.052114
aF-0.052114
aF-0.052114
aF-0.052114
aF-0.019901
aF-0.022235
aF-0.052114
aF-0.034633
aF-0.043809
aF-0.019911
aF-0.052114
aF-0.032022
aF-0.052114
aF-0.020839
aF-0.052114
aF-0.052114
aF-0.052114
aF-0.052114
aF-0.052114
aF-0.020006
aF-0.02876
aF-0.052114
aF-0.02177
aF-0.028299
aF-0.0815
aF-0.023207
aF-0.027521
aF-0.019923
aF-0.0199
aF-0.052114
aF-0.021497
aF-0.021033
aF-0.063675
aF-0.052114
aF-0.020055
aF-0.052114
aF-0.101202
aF-0.025465
aF-0.052114
aF-0.052114
aF-0.052114
aF-0.038255
aF-0.052114
aF-0.049724
aF-0.020055
aF-0.042474
aF-0.019969
aF-0.0199
aF-0.097536
aF-0.052114
aF-0.052114
aF-0.052114
aF-0.085447
aF-0.052114
aF-0.086696
aF-0.052114
aF-0.057427
aF-0.020454
aF-0.052114
aF-0.02163
aF-0.052114
aF-0.050646
aF-0.035615
aF-0.097536
aF-0.052114
aF-0.038591
aF-0.052114
aF-0.052114
aF-0.101202
aF-0.052114
aF-0.062114
aF-0.099355
aF-0.019904
aF-0.052114
aF-0.025465
aF-0.054319
aF-0.034633
aF-0.052114
aF-0.052114
aF-0.020592
aF-0.052114
aF-0.02052
aF-0.101162
aF-0.052114
aF-0.023523
aF-0.052114
aF-0.020933
aF-0.022406
aF-0.0261
aF-0.02163
aF-0.052114
aF-0.052114
aF-0.052114
aF-0.052114
aF-0.084164
aF-0.052114
aF-0.101202
aF-0.101044
aF-0.052114
aF-0.052114
aF-0.020669
aF-0.020859
aF-0.021371
aF-0.087907
aF-0.048218
aF-0.098205
aF-0.101202
aF-0.0199
aF-0.092343
aF-0.052114
aF-0.052114
aF-0.036605
aF-0.045259
aF-0.021371
aF-0.052114
aF-0.020029
aF-0.048976
aF-0.052114
aF-0.052114
aF-0.052114
aF-0.038591
aF-0.065232
aF-0.096021
aF-0.052114
aF-0.040558
aF-0.052114
aF-0.052114
aF-0.046729
aF-0.0199
aF-0.052114
aF-0.034406
aF-0.0913
aF-0.0199
aF-0.090211
aF-0.10085
aF-0.052114
aF-0.074373
aF-0.052114
aF-0.101202
aF-0.052114
aF-0.0199
aF-0.033662
aF-0.052114
aF-0.024366
aF-0.094285
aF-0.021269
aF-0.052114
aF-0.043402
aF-0.0199
aF-0.039602
aF-0.0199
aF-0.019907
aF-0.0815
aF-0.02163
aF-0.077293
aF-0.080124
aF-0.052114
aF-0.052114
aF-0.052114
aF-0.039602
aF-0.037599
aF-0.062114
aF-0.052114
aF-0.020751
aF-0.019911
aF-0.0199
aF-0.052114
aF-0.052114
aF-0.02391
aF-0.039579
aF-0.052114
aF-0.04518
aF-0.044306
aF-0.02052
aF-0.035655
aF-0.052114
aF-0.02391
aF-0.099833
aF-0.0199
aF-0.100243
aF-0.052114
aF-0.020236
aF-0.048307
aF-0.10085
aF-0.052114
aF-0.022898
aF-0.052114
aF-0.052114
aF-0.052114
aF-0.052114
aF-0.052114
aF-0.02229
aF-0.034406
aF-0.052114
aF-0.020284
aF-0.052114
aF-0.08908
aF-0.0199
aF-0.052114
aF-0.025922
aF-0.069858
aF-0.052114
aF-0.022968
aF-0.042381
aF-0.052114
aF-0.052114
aF-0.052114
aF-0.026786
aF-0.052114
aF-0.052114
aF-0.025081
aF-0.037599
aF-0.022772
aF-0.0199
aF-0.0199
aF-0.020152
aF-0.052114
aF-0.052114
aF-0.052114
aF-0.020669
aF-0.052114
aF-0.052114
aF-0.040978
aF-0.052114
aF-0.052114
aF-0.052114
aF-0.019932
aF-0.020116
aF-0.019987
aF-0.019955
aF-0.052114
aF-0.02876
aF-0.021251
aF-0.04518
aF-0.029803
aF-0.060551
aF-0.051244
aF-0.027764
aF-0.100243
aF-0.101202
aF-0.071378
aF-0.093338
aF-0.020152
aF-0.052114
aF-0.052114
aF-0.052114
aF-0.036939
aF-0.100583
aF-0.019904
aF-0.045259
aF-0.068326
aF-0.052114
aF-0.025081
aF-0.052114
aF-0.052114
aF-0.096807
aF-0.025922
asS'LHipYawPitch'
p41
(lp42
F-0.380389
aF-0.380389
aF-0.418739
aF-0.380389
aF-0.382514
aF-0.409991
aF-0.380389
aF-0.380389
aF-0.380389
aF-0.292327
aF-0.282215
aF-0.411136
aF-0.418739
aF-0.380389
aF-0.415899
aF-0.400933
aF-0.385876
aF-0.380389
aF-0.380389
aF-0.418739
aF-0.380389
aF-0.319965
aF-0.380389
aF-0.384033
aF-0.358338
aF-0.418739
aF-0.380389
aF-0.380389
aF-0.329768
aF-0.380389
aF-0.380389
aF-0.313037
aF-0.418739
aF-0.353102
aF-0.417238
aF-0.38189
aF-0.380389
aF-0.387992
aF-0.306574
aF-0.41136
aF-0.380389
aF-0.399564
aF-0.386903
aF-0.380389
aF-0.380389
aF-0.332296
aF-0.418739
aF-0.380389
aF-0.380389
aF-0.395483
aF-0.380389
aF-0.418739
aF-0.380389
aF-0.418739
aF-0.286228
aF-0.380389
aF-0.282215
aF-0.380389
aF-0.400283
aF-0.396415
aF-0.363532
aF-0.380389
aF-0.363532
aF-0.380389
aF-0.297092
aF-0.404977
aF-0.389137
aF-0.418739
aF-0.380389
aF-0.380389
aF-0.380389
aF-0.418739
aF-0.329768
aF-0.412583
aF-0.418739
aF-0.407124
aF-0.418739
aF-0.418739
aF-0.418739
aF-0.402111
aF-0.418739
aF-0.282215
aF-0.380389
aF-0.414211
aF-0.380389
aF-0.380389
aF-0.418739
aF-0.324798
aF-0.415638
aF-0.342616
aF-0.412226
aF-0.380389
aF-0.418739
aF-0.380389
aF-0.418739
aF-0.304539
aF-0.340012
aF-0.319965
aF-0.380389
aF-0.350477
aF-0.418739
aF-0.380389
aF-0.380389
aF-0.408797
aF-0.418739
aF-0.380389
aF-0.38323
aF-0.285316
aF-0.400933
aF-0.380389
aF-0.407559
aF-0.29383
aF-0.380389
aF-0.380389
aF-0.380389
aF-0.380389
aF-0.418739
aF-0.418739
aF-0.380389
aF-0.404977
aF-0.378591
aF-0.418739
aF-0.380389
aF-0.398383
aF-0.380389
aF-0.418739
aF-0.380389
aF-0.380389
aF-0.380389
aF-0.380389
aF-0.380389
aF-0.418739
aF-0.403862
aF-0.380389
aF-0.418739
aF-0.413253
aF-0.315299
aF-0.418675
aF-0.414211
aF-0.418739
aF-0.418739
aF-0.380389
aF-0.418739
aF-0.418739
aF-0.345231
aF-0.380389
aF-0.418739
aF-0.380389
aF-0.282215
aF-0.416615
aF-0.380389
aF-0.380389
aF-0.380389
aF-0.387917
aF-0.380389
aF-0.368658
aF-0.418739
aF-0.394152
aF-0.418739
aF-0.418739
aF-0.288371
aF-0.380389
aF-0.380389
aF-0.380389
aF-0.308671
aF-0.380389
aF-0.306574
aF-0.380389
aF-0.355723
aF-0.418739
aF-0.380389
aF-0.418739
aF-0.380389
aF-0.382514
aF-0.403645
aF-0.288371
aF-0.380389
aF-0.399564
aF-0.380389
aF-0.380389
aF-0.282215
aF-0.380389
aF-0.347852
aF-0.285316
aF-0.418739
aF-0.380389
aF-0.416615
aF-0.360942
aF-0.404977
aF-0.380389
aF-0.380389
aF-0.418739
aF-0.380389
aF-0.418739
aF-0.282281
aF-0.380389
aF-0.418487
aF-0.380389
aF-0.418739
aF-0.418739
aF-0.415899
aF-0.418739
aF-0.380389
aF-0.380389
aF-0.380389
aF-0.380389
aF-0.310826
aF-0.380389
aF-0.282215
aF-0.282479
aF-0.380389
aF-0.380389
aF-0.418739
aF-0.417128
aF-0.418739
aF-0.304539
aF-0.371186
aF-0.287248
aF-0.282215
aF-0.418739
aF-0.297092
aF-0.380389
aF-0.380389
aF-0.402295
aF-0.376156
aF-0.418739
aF-0.380389
aF-0.418739
aF-0.384917
aF-0.380389
aF-0.380389
aF-0.380389
aF-0.399564
aF-0.342616
aF-0.290914
aF-0.380389
aF-0.396833
aF-0.380389
aF-0.380389
aF-0.373687
aF-0.418739
aF-0.380389
aF-0.39438
aF-0.298843
aF-0.418739
aF-0.300671
aF-0.282805
aF-0.380389
aF-0.327267
aF-0.380389
aF-0.282215
aF-0.380389
aF-0.418739
aF-0.406283
aF-0.380389
aF-0.417762
aF-0.29383
aF-0.41644
aF-0.380389
aF-0.392846
aF-0.418739
aF-0.385655
aF-0.418739
aF-0.418739
aF-0.315299
aF-0.418739
aF-0.322363
aF-0.31761
aF-0.380389
aF-0.380389
aF-0.380389
aF-0.385655
aF-0.400933
aF-0.347852
aF-0.380389
aF-0.418739
aF-0.418739
aF-0.418739
aF-0.380389
aF-0.380389
aF-0.41818
aF-0.398196
aF-0.380389
aF-0.390332
aF-0.39157
aF-0.418739
aF-0.392283
aF-0.380389
aF-0.41818
aF-0.284514
aF-0.418739
aF-0.283826
aF-0.380389
aF-0.418739
aF-0.385876
aF-0.282805
aF-0.380389
aF-0.413706
aF-0.380389
aF-0.380389
aF-0.380389
aF-0.380389
aF-0.380389
aF-0.414726
aF-0.39438
aF-0.380389
aF-0.418739
aF-0.380389
aF-0.30257
aF-0.418739
aF-0.380389
aF-0.408626
aF-0.334848
aF-0.380389
aF-0.418739
aF-0.380988
aF-0.380389
aF-0.380389
aF-0.380389
aF-0.415095
aF-0.380389
aF-0.380389
aF-0.41004
aF-0.400933
aF-0.418739
aF-0.418739
aF-0.418739
aF-0.418739
aF-0.380389
aF-0.380389
aF-0.380389
aF-0.418739
aF-0.380389
aF-0.380389
aF-0.383344
aF-0.380389
aF-0.380389
aF-0.380389
aF-0.418739
aF-0.418739
aF-0.418739
aF-0.418739
aF-0.380389
aF-0.403862
aF-0.418739
aF-0.390332
aF-0.402111
aF-0.350477
aF-0.366106
aF-0.405534
aF-0.283826
aF-0.282215
aF-0.332296
aF-0.29542
aF-0.418739
aF-0.380389
aF-0.380389
aF-0.380389
aF-0.390128
aF-0.283255
aF-0.418739
aF-0.376156
aF-0.337421
aF-0.380389
aF-0.41004
aF-0.380389
aF-0.380389
aF-0.289594
aF-0.408626
asS'RAnklePitch'
p43
(lp44
F0.121228
aF0.121228
aF0.177709
aF0.121228
aF0.123897
aF0.159627
aF0.121228
aF0.121228
aF0.121228
aF0.122592
aF0.11816
aF0.161207
aF0.177985
aF0.121228
aF0.168062
aF0.147521
aF0.128146
aF0.121228
aF0.121228
aF0.177922
aF0.121228
aF0.134702
aF0.121228
aF0.125814
aF0.151517
aF0.177547
aF0.121228
aF0.121228
aF0.137902
aF0.121228
aF0.121228
aF0.131666
aF0.174727
aF0.149223
aF0.170178
aF0.123112
aF0.121228
aF0.130833
aF0.128834
aF0.174751
aF0.121228
aF0.145731
aF0.129449
aF0.121228
aF0.121228
aF0.140106
aF0.17496
aF0.121228
aF0.121228
aF0.140433
aF0.121228
aF0.177332
aF0.121228
aF0.177985
aF0.119919
aF0.121228
aF0.11816
aF0.121228
aF0.169898
aF0.168202
aF0.153793
aF0.121228
aF0.153793
aF0.121228
aF0.124679
aF0.152859
aF0.132291
aF0.173678
aF0.121228
aF0.121228
aF0.121228
aF0.173958
aF0.138998
aF0.175287
aF0.177961
aF0.172895
aF0.177247
aF0.177985
aF0.177985
aF0.170699
aF0.177982
aF0.11816
aF0.121228
aF0.165558
aF0.121228
aF0.121228
aF0.177903
aF0.13682
aF0.176626
aF0.144628
aF0.162727
aF0.121228
aF0.177985
aF0.121228
aF0.177661
aF0.127943
aF0.143487
aF0.134702
aF0.121228
aF0.148073
aF0.17741
aF0.121228
aF0.121228
aF0.157995
aF0.176127
aF0.121228
aF0.1248
aF0.119519
aF0.14931
aF0.121228
aF0.156318
aF0.12325
aF0.121228
aF0.121228
aF0.121228
aF0.121228
aF0.177984
aF0.174483
aF0.121228
aF0.152859
aF0.160392
aF0.177969
aF0.121228
aF0.169065
aF0.121228
aF0.176577
aF0.121228
aF0.121228
aF0.121228
aF0.121228
aF0.121228
aF0.177826
aF0.171466
aF0.121228
aF0.175181
aF0.16418
aF0.132658
aF0.173011
aF0.165558
aF0.177951
aF0.177985
aF0.121228
aF0.175591
aF0.176286
aF0.145774
aF0.121228
aF0.177753
aF0.121228
aF0.11816
aF0.169172
aF0.121228
aF0.121228
aF0.121228
aF0.164479
aF0.121228
aF0.156039
aF0.177753
aF0.138716
aF0.177881
aF0.177985
aF0.120858
aF0.121228
aF0.121228
aF0.121228
aF0.129753
aF0.121228
aF0.128834
aF0.121228
aF0.150372
aF0.177154
aF0.121228
aF0.175391
aF0.121228
aF0.123897
aF0.151092
aF0.120858
aF0.121228
aF0.145731
aF0.121228
aF0.121228
aF0.11816
aF0.121228
aF0.146922
aF0.119519
aF0.177979
aF0.121228
aF0.169172
aF0.152658
aF0.152859
aF0.121228
aF0.121228
aF0.176947
aF0.121228
aF0.177055
aF0.118189
aF0.121228
aF0.172496
aF0.121228
aF0.176436
aF0.174227
aF0.168062
aF0.175391
aF0.121228
aF0.121228
aF0.121228
aF0.121228
aF0.130698
aF0.121228
aF0.11816
aF0.118276
aF0.121228
aF0.121228
aF0.176832
aF0.177279
aF0.17578
aF0.127943
aF0.157147
aF0.120366
aF0.11816
aF0.177985
aF0.124679
aF0.121228
aF0.121228
aF0.14931
aF0.159325
aF0.17578
aF0.121228
aF0.177792
aF0.126932
aF0.121228
aF0.121228
aF0.121228
aF0.145731
aF0.144628
aF0.121972
aF0.121228
aF0.142179
aF0.121228
aF0.121228
aF0.158243
aF0.177985
aF0.121228
aF0.167311
aF0.125447
aF0.177985
aF0.126247
aF0.118419
aF0.121228
aF0.137902
aF0.121228
aF0.11816
aF0.121228
aF0.177985
aF0.154604
aF0.121228
aF0.171072
aF0.12325
aF0.176978
aF0.121228
aF0.137036
aF0.177985
aF0.163488
aF0.177985
aF0.177975
aF0.132658
aF0.175391
aF0.135753
aF0.13367
aF0.121228
aF0.121228
aF0.121228
aF0.163488
aF0.147521
aF0.146922
aF0.121228
aF0.176709
aF0.177969
aF0.177985
aF0.121228
aF0.121228
aF0.171847
aF0.143948
aF0.121228
aF0.133816
aF0.1354
aF0.177055
aF0.166392
aF0.121228
aF0.171847
aF0.119168
aF0.177985
aF0.118866
aF0.121228
aF0.177482
aF0.128146
aF0.118419
aF0.121228
aF0.17578
aF0.121228
aF0.121228
aF0.121228
aF0.121228
aF0.121228
aF0.176226
aF0.167311
aF0.121228
aF0.17741
aF0.121228
aF0.12708
aF0.177985
aF0.121228
aF0.173554
aF0.141224
aF0.121228
aF0.173384
aF0.161443
aF0.121228
aF0.121228
aF0.121228
aF0.166855
aF0.121228
aF0.121228
aF0.174173
aF0.147521
aF0.173678
aF0.177985
aF0.177985
aF0.177607
aF0.121228
aF0.121228
aF0.121228
aF0.176832
aF0.121228
aF0.121228
aF0.162475
aF0.121228
aF0.121228
aF0.121228
aF0.177938
aF0.177661
aF0.177855
aF0.177903
aF0.121228
aF0.171466
aF0.175958
aF0.133816
aF0.170699
aF0.148073
aF0.154921
aF0.172199
aF0.118866
aF0.11816
aF0.140106
aF0.123946
aF0.177607
aF0.121228
aF0.121228
aF0.121228
aF0.165448
aF0.118616
aF0.177979
aF0.159325
aF0.142352
aF0.121228
aF0.174173
aF0.121228
aF0.121228
aF0.121394
aF0.173554
asS'LHipRoll'
p45
(lp46
F0.042994
aF0.042994
aF0.035471
aF0.042994
aF0.042718
aF0.038798
aF0.042994
aF0.042994
aF0.042994
aF0.106342
aF0.112024
aF0.038608
aF0.035324
aF0.042994
aF0.037736
aF0.040185
aF0.042274
aF0.042994
aF0.042994
aF0.035371
aF0.042994
aF0.090815
aF0.042994
aF0.042518
aF0.069258
aF0.035537
aF0.042994
aF0.042994
aF0.085308
aF0.042994
aF0.042994
aF0.094708
aF0.036461
aF0.072199
aF0.037436
aF0.042799
aF0.042994
aF0.041991
aF0.098339
aF0.03947
aF0.042994
aF0.040384
aF0.042137
aF0.042994
aF0.042994
aF0.083888
aF0.036391
aF0.042994
aF0.042994
aF0.040963
aF0.042994
aF0.035619
aF0.042994
aF0.035324
aF0.109769
aF0.042994
aF0.112024
aF0.042994
aF0.045693
aF0.047866
aF0.066339
aF0.042994
aF0.066339
aF0.042994
aF0.103666
aF0.039585
aF0.041836
aF0.036772
aF0.042994
aF0.042994
aF0.042994
aF0.03669
aF0.085308
aF0.038783
aF0.035347
aF0.04185
aF0.03565
aF0.035324
aF0.035324
aF0.044666
aF0.035329
aF0.112024
aF0.042994
aF0.038067
aF0.042994
aF0.042994
aF0.035381
aF0.088101
aF0.037066
aF0.07809
aF0.038423
aF0.042994
aF0.035324
aF0.042994
aF0.035491
aF0.099482
aF0.079553
aF0.090815
aF0.042994
aF0.073674
aF0.03559
aF0.042994
aF0.042994
aF0.038991
aF0.036028
aF0.042994
aF0.042624
aF0.110282
aF0.040185
aF0.042994
aF0.039187
aF0.105498
aF0.042994
aF0.042994
aF0.042994
aF0.042994
aF0.035327
aF0.036535
aF0.042994
aF0.039585
aF0.057879
aF0.035341
aF0.042994
aF0.04676
aF0.042994
aF0.035881
aF0.042994
aF0.042994
aF0.042994
aF0.042994
aF0.042994
aF0.03542
aF0.043682
aF0.042994
aF0.036324
aF0.038242
aF0.093437
aF0.036951
aF0.038067
aF0.035354
aF0.035324
aF0.042994
aF0.036197
aF0.035977
aF0.076621
aF0.042994
aF0.035452
aF0.042994
aF0.112024
aF0.037582
aF0.042994
aF0.042994
aF0.042994
aF0.05264
aF0.042994
aF0.06346
aF0.035452
aF0.041149
aF0.035393
aF0.035324
aF0.108565
aF0.042994
aF0.042994
aF0.042994
aF0.097161
aF0.042994
aF0.098339
aF0.042994
aF0.070727
aF0.035683
aF0.042994
aF0.036259
aF0.042994
aF0.042718
aF0.039785
aF0.108565
aF0.042994
aF0.040384
aF0.042994
aF0.042994
aF0.112024
aF0.042994
aF0.075149
aF0.110282
aF0.035332
aF0.042994
aF0.037582
aF0.067795
aF0.039585
aF0.042994
aF0.042994
aF0.035756
aF0.042994
aF0.035719
aF0.111986
aF0.042994
aF0.037057
aF0.042994
aF0.035928
aF0.036611
aF0.037736
aF0.036259
aF0.042994
aF0.042994
aF0.042994
aF0.042994
aF0.09595
aF0.042994
aF0.112024
aF0.111875
aF0.042994
aF0.042994
aF0.035795
aF0.036229
aF0.036138
aF0.099482
aF0.062039
aF0.109196
aF0.112024
aF0.035324
aF0.103666
aF0.042994
aF0.042994
aF0.039986
aF0.059247
aF0.036138
aF0.042994
aF0.035435
aF0.042401
aF0.042994
aF0.042994
aF0.042994
aF0.040384
aF0.07809
aF0.107136
aF0.042994
aF0.040773
aF0.042994
aF0.042994
aF0.060635
aF0.035324
aF0.042994
aF0.049009
aF0.102682
aF0.035324
aF0.101655
aF0.111692
aF0.042994
aF0.086713
aF0.042994
aF0.112024
aF0.042994
aF0.035324
aF0.039385
aF0.042994
aF0.0373
aF0.105498
aF0.036616
aF0.042994
aF0.04133
aF0.035324
aF0.053911
aF0.035324
aF0.035336
aF0.093437
aF0.036259
aF0.089469
aF0.092139
aF0.042994
aF0.042994
aF0.042994
aF0.053911
aF0.040185
aF0.075149
aF0.042994
aF0.035837
aF0.035341
aF0.035325
aF0.042994
aF0.042994
aF0.037173
aF0.04058
aF0.042994
aF0.041674
aF0.041505
aF0.035719
aF0.050187
aF0.042994
aF0.037173
aF0.110732
aF0.035324
aF0.111119
aF0.042994
aF0.035563
aF0.042274
aF0.111692
aF0.042994
aF0.038152
aF0.042994
aF0.042994
aF0.042994
aF0.042994
aF0.042994
aF0.037579
aF0.049009
aF0.042994
aF0.03559
aF0.042994
aF0.100588
aF0.035324
aF0.042994
aF0.041005
aF0.082454
aF0.042994
aF0.036858
aF0.056532
aF0.042994
aF0.042994
aF0.042994
aF0.037898
aF0.042994
aF0.042994
aF0.040211
aF0.040185
aF0.036772
aF0.035324
aF0.035324
aF0.035513
aF0.042994
aF0.042994
aF0.042994
aF0.035795
aF0.042994
aF0.042994
aF0.055209
aF0.042994
aF0.042994
aF0.042994
aF0.035362
aF0.035491
aF0.035405
aF0.035381
aF0.042994
aF0.043682
aF0.036082
aF0.041674
aF0.044666
aF0.073674
aF0.064894
aF0.042743
aF0.111119
aF0.112024
aF0.083888
aF0.104605
aF0.035513
aF0.042994
aF0.042994
aF0.042994
aF0.051398
aF0.11144
aF0.035332
aF0.059247
aF0.081009
aF0.042994
aF0.040211
aF0.042994
aF0.042994
aF0.107878
aF0.041005
asS'RHipRoll'
p47
(lp48
F-0.082794
aF-0.082794
aF-0.023981
aF-0.082794
aF-0.07948
aF-0.036615
aF-0.082794
aF-0.082794
aF-0.082794
aF-0.0174
aF-0.016832
aF-0.034829
aF-0.024502
aF-0.082794
aF-0.0274
aF-0.050746
aF-0.074235
aF-0.082794
aF-0.082794
aF-0.024281
aF-0.082794
aF-0.018953
aF-0.082794
aF-0.077109
aF-0.021109
aF-0.023835
aF-0.082794
aF-0.082794
aF-0.019363
aF-0.082794
aF-0.082794
aF-0.018564
aF-0.023018
aF-0.020814
aF-0.02531
aF-0.080452
aF-0.082794
aF-0.070933
aF-0.018201
aF-0.024087
aF-0.082794
aF-0.052881
aF-0.072632
aF-0.082794
aF-0.082794
aF-0.019646
aF-0.023039
aF-0.082794
aF-0.082794
aF-0.059247
aF-0.082794
aF-0.023685
aF-0.082794
aF-0.0245
aF-0.017058
aF-0.082794
aF-0.016832
aF-0.082794
aF-0.023465
aF-0.023248
aF-0.0214
aF-0.082794
aF-0.0214
aF-0.082794
aF-0.017668
aF-0.044438
aF-0.069147
aF-0.02297
aF-0.082794
aF-0.082794
aF-0.082794
aF-0.022976
aF-0.019504
aF-0.024156
aF-0.024379
aF-0.023849
aF-0.023635
aF-0.024502
aF-0.024502
aF-0.023568
aF-0.024469
aF-0.016832
aF-0.082794
aF-0.030032
aF-0.082794
aF-0.082794
aF-0.024243
aF-0.019224
aF-0.024328
aF-0.020225
aF-0.03313
aF-0.082794
aF-0.024502
aF-0.082794
aF-0.023933
aF-0.018086
aF-0.020079
aF-0.018953
aF-0.082794
aF-0.020667
aF-0.023735
aF-0.082794
aF-0.082794
aF-0.038478
aF-0.023227
aF-0.082794
aF-0.078362
aF-0.017006
aF-0.048621
aF-0.082794
aF-0.04041
aF-0.017485
aF-0.082794
aF-0.082794
aF-0.082794
aF-0.082794
aF-0.024483
aF-0.023001
aF-0.082794
aF-0.044438
aF-0.022246
aF-0.024406
aF-0.082794
aF-0.023358
aF-0.082794
aF-0.023351
aF-0.082794
aF-0.082794
aF-0.082794
aF-0.082794
aF-0.082794
aF-0.024119
aF-0.023666
aF-0.082794
aF-0.023064
aF-0.031528
aF-0.018691
aF-0.023068
aF-0.030032
aF-0.024349
aF-0.024502
aF-0.082794
aF-0.023121
aF-0.023266
aF-0.020372
aF-0.082794
aF-0.024028
aF-0.082794
aF-0.016832
aF-0.026282
aF-0.082794
aF-0.082794
aF-0.082794
aF-0.02277
aF-0.082794
aF-0.021688
aF-0.024028
aF-0.061324
aF-0.024204
aF-0.024502
aF-0.017178
aF-0.082794
aF-0.082794
aF-0.082794
aF-0.018318
aF-0.082794
aF-0.018201
aF-0.082794
aF-0.020962
aF-0.023586
aF-0.082794
aF-0.023091
aF-0.082794
aF-0.07948
aF-0.046515
aF-0.017178
aF-0.082794
aF-0.052881
aF-0.082794
aF-0.082794
aF-0.016832
aF-0.082794
aF-0.02052
aF-0.017006
aF-0.024452
aF-0.082794
aF-0.026282
aF-0.021255
aF-0.044438
aF-0.082794
aF-0.082794
aF-0.023489
aF-0.082794
aF-0.023537
aF-0.016836
aF-0.082794
aF-0.023362
aF-0.082794
aF-0.023308
aF-0.022987
aF-0.0274
aF-0.023091
aF-0.082794
aF-0.082794
aF-0.082794
aF-0.082794
aF-0.018439
aF-0.082794
aF-0.016832
aF-0.016847
aF-0.082794
aF-0.082794
aF-0.023442
aF-0.024411
aF-0.023154
aF-0.018086
aF-0.02183
aF-0.017115
aF-0.016832
aF-0.024502
aF-0.017668
aF-0.082794
aF-0.082794
aF-0.048621
aF-0.02211
aF-0.023154
aF-0.082794
aF-0.024074
aF-0.07573
aF-0.082794
aF-0.082794
aF-0.082794
aF-0.052881
aF-0.020225
aF-0.017321
aF-0.082794
aF-0.057141
aF-0.082794
aF-0.082794
aF-0.021971
aF-0.024502
aF-0.082794
aF-0.023133
aF-0.017766
aF-0.024502
aF-0.017869
aF-0.016865
aF-0.082794
aF-0.019363
aF-0.082794
aF-0.016832
aF-0.082794
aF-0.024502
aF-0.0424
aF-0.082794
aF-0.024493
aF-0.017485
aF-0.024373
aF-0.082794
aF-0.063362
aF-0.024502
aF-0.022643
aF-0.024502
aF-0.02443
aF-0.018691
aF-0.023091
aF-0.019088
aF-0.018821
aF-0.082794
aF-0.082794
aF-0.082794
aF-0.022643
aF-0.050746
aF-0.02052
aF-0.082794
aF-0.023396
aF-0.024406
aF-0.024494
aF-0.082794
aF-0.082794
aF-0.02384
aF-0.055016
aF-0.082794
aF-0.067284
aF-0.065352
aF-0.023537
aF-0.023016
aF-0.082794
aF-0.02384
aF-0.016961
aF-0.024502
aF-0.016923
aF-0.082794
aF-0.023785
aF-0.074235
aF-0.016865
aF-0.082794
aF-0.024219
aF-0.082794
aF-0.082794
aF-0.082794
aF-0.082794
aF-0.082794
aF-0.024276
aF-0.023133
aF-0.082794
aF-0.023735
aF-0.082794
aF-0.017976
aF-0.024502
aF-0.082794
aF-0.023934
aF-0.019789
aF-0.082794
aF-0.022968
aF-0.022381
aF-0.082794
aF-0.082794
aF-0.082794
aF-0.028653
aF-0.082794
aF-0.082794
aF-0.024013
aF-0.050746
aF-0.02297
aF-0.024502
aF-0.0245
aF-0.023884
aF-0.082794
aF-0.082794
aF-0.082794
aF-0.023442
aF-0.082794
aF-0.082794
aF-0.022513
aF-0.082794
aF-0.082794
aF-0.082794
aF-0.024316
aF-0.023933
aF-0.024162
aF-0.024243
aF-0.082794
aF-0.023666
aF-0.023189
aF-0.067284
aF-0.023568
aF-0.020667
aF-0.021545
aF-0.02376
aF-0.016923
aF-0.016832
aF-0.019646
aF-0.017574
aF-0.023884
aF-0.082794
aF-0.082794
aF-0.082794
aF-0.022895
aF-0.01689
aF-0.024452
aF-0.02211
aF-0.019934
aF-0.082794
aF-0.024013
aF-0.082794
aF-0.082794
aF-0.017247
aF-0.023934
asS'RElbowRoll'
p49
(lp50
F0.598786
aF0.731352
aF0.637513
aF0.609272
aF0.600612
aF0.645065
aF0.629553
aF0.790498
aF0.654514
aF0.618395
aF0.590387
aF0.64791
aF0.619118
aF0.578577
aF0.659298
aF0.621907
aF0.602858
aF0.779146
aF0.588505
aF0.627568
aF0.592371
aF0.672716
aF0.846102
aF0.601523
aF0.737409
aF0.642253
aF0.585502
aF0.667198
aF0.68887
aF0.694074
aF0.597003
aF0.660993
aF0.666842
aF0.729648
aF0.662603
aF0.600308
aF0.577414
aF0.604636
aF0.649098
aF0.652864
aF0.600426
aF0.617611
aF0.603691
aF0.578577
aF0.577964
aF0.693288
aF0.666353
aF0.838803
aF0.642487
aF0.613593
aF0.603732
aF0.647038
aF0.582618
aF0.61957
aF0.603205
aF0.581716
aF0.591114
aF0.865891
aF0.706366
aF0.721676
aF0.746621
aF0.743462
aF0.743934
aF0.852396
aF0.629412
aF0.631993
aF0.605694
aF0.667125
aF0.779146
aF0.597003
aF0.75553
aF0.667488
aF0.68887
aF0.646765
aF0.624187
aF0.674344
aF0.648614
aF0.618655
aF0.618549
aF0.690586
aF0.620908
aF0.591114
aF0.596374
aF0.655313
aF0.767457
aF0.680425
aF0.628838
aF0.680583
aF0.631542
aF0.711837
aF0.650594
aF0.601109
aF0.61897
aF0.603047
aF0.639078
aF0.649098
aF0.707169
aF0.672716
aF0.844032
aF0.725415
aF0.645449
aF0.593266
aF0.719298
aF0.642059
aF0.661144
aF0.600272
aF0.601015
aF0.600849
aF0.621907
aF0.708022
aF0.638887
aF0.621954
aF0.861625
aF0.581122
aF0.579286
aF0.618555
aF0.620349
aF0.6672
aF0.857599
aF0.631993
aF0.752372
aF0.623224
aF0.593266
aF0.714266
aF0.844032
aF0.657431
aF0.835426
aF0.581716
aF0.663302
aF0.584518
aF0.597561
aF0.632985
aF0.690586
aF0.580855
aF0.665743
aF0.653114
aF0.664916
aF0.666663
aF0.655313
aF0.625237
aF0.618566
aF0.764251
aF0.664191
aF0.659975
aF0.716464
aF0.576502
aF0.635972
aF0.750388
aF0.591114
aF0.661044
aF0.803216
aF0.642487
aF0.600143
aF0.744292
aF0.576502
aF0.748863
aF0.635972
aF0.611703
aF0.630168
aF0.61877
aF0.608669
aF0.811802
aF0.864498
aF0.601441
aF0.65308
aF0.708022
aF0.649098
aF0.736308
aF0.733661
aF0.65017
aF0.590481
aF0.66502
aF0.736308
aF0.600612
aF0.628222
aF0.608669
aF0.722143
aF0.619739
aF0.684453
aF0.75553
aF0.592236
aF0.614696
aF0.721005
aF0.600849
aF0.621578
aF0.583554
aF0.661044
aF0.740848
aF0.631993
aF0.587503
aF0.600612
aF0.653197
aF0.59144
aF0.6517
aF0.592808
aF0.602965
aF0.665989
aF0.611663
aF0.658736
aF0.667419
aF0.659298
aF0.66502
aF0.680425
aF0.594121
aF0.598047
aF0.636673
aF0.657047
aF0.777766
aF0.591779
aF0.593524
aF0.597561
aF0.614696
aF0.654656
aF0.624608
aF0.663264
aF0.645112
aF0.750611
aF0.60582
aF0.590518
aF0.61897
aF0.629412
aF0.595793
aF0.607382
aF0.624181
aF0.752421
aF0.663264
aF0.598455
aF0.634461
aF0.602136
aF0.865891
aF0.595681
aF0.865839
aF0.619739
aF0.711837
aF0.614979
aF0.663302
aF0.615562
aF0.596374
aF0.576573
aF0.751815
aF0.618617
aF0.707398
aF0.728512
aF0.633268
aF0.618588
aF0.637181
aF0.594426
aF0.602347
aF0.68464
aF0.825664
aF0.590678
aF0.605882
aF0.618527
aF0.635538
aF0.5895
aF0.663958
aF0.621954
aF0.627722
aF0.603732
aF0.609891
aF0.618617
aF0.747638
aF0.618519
aF0.622352
aF0.664916
aF0.66502
aF0.676625
aF0.66882
aF0.750388
aF0.864498
aF0.595793
aF0.747638
aF0.619739
aF0.721005
aF0.577089
aF0.656069
aF0.623224
aF0.619906
aF0.814882
aF0.69575
aF0.665092
aF0.617611
aF0.864396
aF0.606866
aF0.608154
aF0.6517
aF0.734645
aF0.576948
aF0.665092
aF0.598775
aF0.618536
aF0.597005
aF0.821559
aF0.643852
aF0.602858
aF0.594426
aF0.57859
aF0.641127
aF0.592371
aF0.618555
aF0.595793
aF0.830591
aF0.600426
aF0.63603
aF0.728512
aF0.864498
aF0.645449
aF0.801416
aF0.641134
aF0.618705
aF0.644738
aF0.666296
aF0.697844
aF0.580043
aF0.667125
aF0.751604
aF0.584819
aF0.857599
aF0.653648
aF0.657381
aF0.594928
aF0.851348
aF0.659337
aF0.619739
aF0.667394
aF0.619313
aF0.619906
aF0.64066
aF0.86162
aF0.830591
aF0.857237
aF0.654656
aF0.600836
aF0.631228
aF0.75005
aF0.601847
aF0.581122
aF0.629553
aF0.626366
aF0.639078
aF0.631552
aF0.628838
aF0.673604
aF0.690586
aF0.662246
aF0.605694
aF0.698585
aF0.725415
aF0.746621
aF0.682472
aF0.597005
aF0.590874
aF0.693288
aF0.625633
aF0.64066
aF0.601441
aF0.61142
aF0.62348
aF0.739945
aF0.595564
aF0.621578
aF0.752421
aF0.702488
aF0.790799
aF0.659337
aF0.576502
aF0.604687
aF0.61173
aF0.666296
asS'RKneePitch'
p51
(lp52
F-0.092328
aF-0.092328
aF-0.092328
aF-0.092328
aF-0.092328
aF-0.092328
aF-0.092328
aF-0.092328
aF-0.092328
aF-0.077819
aF-0.076658
aF-0.092328
aF-0.092328
aF-0.092328
aF-0.092328
aF-0.092328
aF-0.092328
aF-0.092328
aF-0.092328
aF-0.092328
aF-0.092328
aF-0.080991
aF-0.092328
aF-0.092328
aF-0.085395
aF-0.092328
aF-0.092328
aF-0.092328
aF-0.081829
aF-0.092328
aF-0.092328
aF-0.080196
aF-0.092328
aF-0.084794
aF-0.092328
aF-0.092328
aF-0.092328
aF-0.092328
aF-0.079454
aF-0.091481
aF-0.092328
aF-0.092328
aF-0.092328
aF-0.092328
aF-0.092328
aF-0.082406
aF-0.092328
aF-0.092328
aF-0.092328
aF-0.092328
aF-0.092328
aF-0.092328
aF-0.092328
aF-0.092328
aF-0.077119
aF-0.092328
aF-0.076658
aF-0.092328
aF-0.09021
aF-0.089766
aF-0.085991
aF-0.092328
aF-0.085991
aF-0.092328
aF-0.078366
aF-0.092328
aF-0.092328
aF-0.092328
aF-0.092328
aF-0.092328
aF-0.092328
aF-0.092328
aF-0.082116
aF-0.091621
aF-0.092328
aF-0.090995
aF-0.092328
aF-0.092328
aF-0.092328
aF-0.090419
aF-0.092328
aF-0.076658
aF-0.092328
aF-0.092328
aF-0.092328
aF-0.092328
aF-0.092328
aF-0.081546
aF-0.091972
aF-0.083591
aF-0.092328
aF-0.092328
aF-0.092328
aF-0.092328
aF-0.092328
aF-0.07922
aF-0.083292
aF-0.080991
aF-0.092328
aF-0.084493
aF-0.092328
aF-0.092328
aF-0.092328
aF-0.092328
aF-0.092328
aF-0.092328
aF-0.092328
aF-0.077014
aF-0.092328
aF-0.092328
aF-0.092328
aF-0.077991
aF-0.092328
aF-0.092328
aF-0.092328
aF-0.092328
aF-0.092328
aF-0.092328
aF-0.092328
aF-0.092328
aF-0.08772
aF-0.092328
aF-0.092328
aF-0.089992
aF-0.092328
aF-0.092328
aF-0.092328
aF-0.092328
aF-0.092328
aF-0.092328
aF-0.092328
aF-0.092328
aF-0.09062
aF-0.092328
aF-0.092328
aF-0.092328
aF-0.080455
aF-0.092328
aF-0.092328
aF-0.092328
aF-0.092328
aF-0.092328
aF-0.092328
aF-0.092328
aF-0.083891
aF-0.092328
aF-0.092328
aF-0.092328
aF-0.076658
aF-0.092328
aF-0.092328
aF-0.092328
aF-0.092328
aF-0.08879
aF-0.092328
aF-0.08658
aF-0.092328
aF-0.092328
aF-0.092328
aF-0.092328
aF-0.077365
aF-0.092328
aF-0.092328
aF-0.092328
aF-0.079695
aF-0.092328
aF-0.079454
aF-0.092328
aF-0.085095
aF-0.092328
aF-0.092328
aF-0.092328
aF-0.092328
aF-0.092328
aF-0.092328
aF-0.077365
aF-0.092328
aF-0.092328
aF-0.092328
aF-0.092328
aF-0.076658
aF-0.092328
aF-0.084192
aF-0.077014
aF-0.092328
aF-0.092328
aF-0.092328
aF-0.085694
aF-0.092328
aF-0.092328
aF-0.092328
aF-0.092328
aF-0.092328
aF-0.092328
aF-0.076666
aF-0.092328
aF-0.092328
aF-0.092328
aF-0.092328
aF-0.092328
aF-0.092328
aF-0.092328
aF-0.092328
aF-0.092328
aF-0.092328
aF-0.092328
aF-0.079942
aF-0.092328
aF-0.076658
aF-0.076688
aF-0.092328
aF-0.092328
aF-0.092328
aF-0.092143
aF-0.092328
aF-0.07922
aF-0.08687
aF-0.077236
aF-0.076658
aF-0.092328
aF-0.078366
aF-0.092328
aF-0.092328
aF-0.092328
aF-0.08744
aF-0.092328
aF-0.092328
aF-0.092328
aF-0.092328
aF-0.092328
aF-0.092328
aF-0.092328
aF-0.092328
aF-0.083591
aF-0.077657
aF-0.092328
aF-0.092328
aF-0.092328
aF-0.092328
aF-0.087157
aF-0.092328
aF-0.092328
aF-0.089532
aF-0.078567
aF-0.092328
aF-0.078776
aF-0.076726
aF-0.092328
aF-0.081829
aF-0.092328
aF-0.076658
aF-0.092328
aF-0.092328
aF-0.092328
aF-0.092328
aF-0.092328
aF-0.077991
aF-0.092064
aF-0.092328
aF-0.092328
aF-0.092328
aF-0.088531
aF-0.092328
aF-0.092328
aF-0.080455
aF-0.092328
aF-0.081266
aF-0.080721
aF-0.092328
aF-0.092328
aF-0.092328
aF-0.088531
aF-0.092328
aF-0.084192
aF-0.092328
aF-0.092328
aF-0.092328
aF-0.092328
aF-0.092328
aF-0.092328
aF-0.092328
aF-0.092328
aF-0.092328
aF-0.092328
aF-0.092328
aF-0.092328
aF-0.089291
aF-0.092328
aF-0.092328
aF-0.076922
aF-0.092328
aF-0.076843
aF-0.092328
aF-0.092328
aF-0.092328
aF-0.076726
aF-0.092328
aF-0.09175
aF-0.092328
aF-0.092328
aF-0.092328
aF-0.092328
aF-0.092328
aF-0.091867
aF-0.089532
aF-0.092328
aF-0.092328
aF-0.092328
aF-0.078994
aF-0.092328
aF-0.092328
aF-0.091167
aF-0.082699
aF-0.092328
aF-0.092328
aF-0.087995
aF-0.092328
aF-0.092328
aF-0.092328
aF-0.092328
aF-0.092328
aF-0.092328
aF-0.091329
aF-0.092328
aF-0.092328
aF-0.092328
aF-0.092328
aF-0.092328
aF-0.092328
aF-0.092328
aF-0.092328
aF-0.092328
aF-0.092328
aF-0.092328
aF-0.088265
aF-0.092328
aF-0.092328
aF-0.092328
aF-0.092328
aF-0.092328
aF-0.092328
aF-0.092328
aF-0.092328
aF-0.09062
aF-0.092328
aF-0.092328
aF-0.090419
aF-0.084493
aF-0.086287
aF-0.090812
aF-0.076843
aF-0.076658
aF-0.082406
aF-0.078174
aF-0.092328
aF-0.092328
aF-0.092328
aF-0.092328
aF-0.089044
aF-0.076777
aF-0.092328
aF-0.08744
aF-0.082994
aF-0.092328
aF-0.091329
aF-0.092328
aF-0.092328
aF-0.077505
aF-0.091167
as.