(dp0
S'LWristYaw'
p1
(lp2
F-0.174981
aF-0.182647
aF-0.18262
aF-0.182588
aF-0.183944
aF-0.181637
aF-0.183342
aF-0.182588
aF-0.182685
aF-0.182588
aF-0.182607
aF-0.182612
aF-0.182588
aF-0.183354
aF-0.179515
aF-0.182588
aF-0.182588
aF-0.183516
aF-0.179054
aF-0.182588
aF-0.182809
aF-0.182686
aF-0.175482
aF-0.182588
aF-0.183893
aF-0.184055
aF-0.17815
aF-0.184043
aF-0.182588
aF-0.183427
aF-0.182588
aF-0.182631
aF-0.179196
aF-0.182588
aF-0.182147
aF-0.183901
aF-0.179054
aF-0.183263
aF-0.183176
aF-0.184021
aF-0.181312
aF-0.183607
aF-0.182588
aF-0.183654
aF-0.182536
aF-0.182938
aF-0.183788
aF-0.183354
aF-0.182588
aF-0.182588
aF-0.182588
aF-0.183988
aF-0.182588
aF-0.174946
aF-0.181917
aF-0.180434
aF-0.182713
aF-0.175027
aF-0.182588
aF-0.178597
aF-0.175107
aF-0.183201
aF-0.182588
aF-0.175659
aF-0.183524
aF-0.175062
aF-0.182921
aF-0.183507
aF-0.177717
aF-0.183949
aF-0.182588
aF-0.180545
aF-0.182588
aF-0.183084
aF-0.182455
aF-0.18387
aF-0.18286
aF-0.17494
aF-0.182588
aF-0.183582
aF-0.18287
aF-0.183354
aF-0.175347
aF-0.182588
aF-0.182588
aF-0.180881
aF-0.17692
aF-0.178723
aF-0.182588
aF-0.182588
aF-0.176549
aF-0.177787
aF-0.174935
aF-0.18366
aF-0.182588
aF-0.182868
aF-0.18335
aF-0.182588
aF-0.182588
aF-0.182631
aF-0.182588
aF-0.180946
aF-0.177303
aF-0.182799
aF-0.183687
aF-0.182588
aF-0.182588
aF-0.182588
aF-0.183325
aF-0.183891
aF-0.176217
aF-0.181727
aF-0.182986
aF-0.183787
aF-0.181314
aF-0.182588
aF-0.183256
aF-0.180115
aF-0.183762
aF-0.182607
aF-0.182588
aF-0.182588
aF-0.175895
aF-0.182588
aF-0.182936
aF-0.174946
aF-0.182613
aF-0.182644
aF-0.183834
aF-0.182805
aF-0.183876
aF-0.182756
aF-0.182588
aF-0.182588
aF-0.175244
aF-0.182588
aF-0.179196
aF-0.182588
aF-0.182662
aF-0.183171
aF-0.182717
aF-0.183524
aF-0.182588
aF-0.183763
aF-0.182713
aF-0.182115
aF-0.183835
aF-0.182588
aF-0.175438
aF-0.183662
aF-0.183431
aF-0.175259
aF-0.18262
aF-0.17734
aF-0.182921
aF-0.184044
aF-0.182327
aF-0.183054
aF-0.182662
aF-0.176549
aF-0.176533
aF-0.182757
aF-0.182758
aF-0.17825
aF-0.182115
aF-0.183507
aF-0.182716
aF-0.182588
aF-0.182536
aF-0.182808
aF-0.179977
aF-0.17566
aF-0.182588
aF-0.183127
aF-0.182588
aF-0.183201
aF-0.183438
aF-0.182588
aF-0.182588
aF-0.179663
aF-0.175001
aF-0.183891
aF-0.182647
aF-0.182588
aF-0.182588
aF-0.182588
aF-0.183988
aF-0.182602
aF-0.182455
aF-0.182606
aF-0.18383
aF-0.183847
aF-0.176913
aF-0.182588
aF-0.182588
aF-0.182588
aF-0.182644
aF-0.182588
aF-0.174955
aF-0.182588
aF-0.182662
aF-0.182588
aF-0.183509
aF-0.183093
aF-0.175244
aF-0.182588
aF-0.182588
aF-0.182588
aF-0.18387
aF-0.183013
aF-0.182588
aF-0.182588
aF-0.17566
aF-0.183516
aF-0.183729
aF-0.183588
aF-0.175438
aF-0.175166
aF-0.182588
aF-0.183089
aF-0.182588
aF-0.182577
aF-0.182588
aF-0.183277
aF-0.175062
aF-0.182588
aF-0.183654
aF-0.181312
aF-0.18301
aF-0.175919
aF-0.179977
aF-0.183787
aF-0.182588
aF-0.182677
aF-0.183438
aF-0.183516
aF-0.177787
aF-0.182588
aF-0.183054
aF-0.183263
aF-0.183723
aF-0.182588
aF-0.174966
aF-0.184021
aF-0.183989
aF-0.176549
aF-0.182809
aF-0.176188
aF-0.182588
aF-0.181727
aF-0.182588
aF-0.182805
aF-0.183876
asS'RWristYaw'
p3
(lp4
F0.019907
aF-0.006178
aF-0.006178
aF0.023068
aF-0.006178
aF0.023217
aF-0.006166
aF-0.001819
aF-0.006177
aF0.025518
aF-0.006178
aF-0.006178
aF0.026191
aF-0.006178
aF0.003844
aF-0.0057
aF0.022312
aF-0.005443
aF0.005315
aF0.024417
aF-0.006178
aF-0.006178
aF0.019963
aF0.025966
aF-0.005992
aF-0.006178
aF0.008306
aF-0.006178
aF0.021506
aF-0.006162
aF0.008444
aF-0.006178
aF0.02064
aF-0.003737
aF0.024152
aF-0.006178
aF0.005315
aF-0.006178
aF-0.006178
aF-0.006178
aF0.022313
aF-0.006178
aF-0.004258
aF-0.006178
aF0.025467
aF-0.006178
aF-0.006116
aF-0.006178
aF0.015871
aF0.027027
aF0.009511
aF-0.006178
aF0.025
aF0.019903
aF0.023685
aF0.001056
aF-0.006178
aF0.019912
aF0.026997
aF0.00681
aF0.019921
aF-0.006178
aF0.001449
aF0.017135
aF-0.006178
aF0.019916
aF-0.006178
aF-0.006178
aF0.009782
aF-0.006178
aF0.026979
aF0.021895
aF0.024417
aF-0.004906
aF0.025052
aF-0.00607
aF-0.006178
aF0.019902
aF0.026719
aF-0.006178
aF-0.006178
aF-0.006178
aF0.019948
aF0.016885
aF0.026635
aF-0.000217
aF0.020147
aF0.02064
aF0.026191
aF-0.005437
aF0.01389
aF0.020327
aF0.019902
aF-0.00562
aF0.023068
aF-0.006176
aF-0.006178
aF0.006339
aF0.026635
aF-0.006178
aF0.015871
aF0.022313
aF0.011217
aF-0.004504
aF-0.006178
aF-0.001071
aF-0.003155
aF0.000567
aF-0.005211
aF-0.006178
aF0.015089
aF-0.002407
aF-0.006178
aF-0.006178
aF-0.001379
aF0.012726
aF-0.006169
aF0.021509
aF-0.006178
aF-0.006178
aF0.026719
aF0.002369
aF0.020008
aF0.026191
aF-0.006175
aF0.019903
aF-0.006178
aF-0.006178
aF-0.005855
aF-0.006178
aF-0.005933
aF-0.006178
aF0.02634
aF-0.002514
aF0.019936
aF0.023068
aF0.020873
aF0.014837
aF-0.006177
aF-0.006171
aF-0.006178
aF-0.006178
aF0.026893
aF-0.005754
aF-0.006178
aF-0.003976
aF-0.006096
aF0.013787
aF0.017954
aF-0.006142
aF-0.006178
aF0.018626
aF-0.006178
aF0.020225
aF-0.006178
aF-0.006178
aF0.02461
aF-0.006178
aF-0.006178
aF0.01389
aF0.020088
aF-0.006177
aF-0.006178
aF0.020462
aF-0.003281
aF-0.006178
aF-0.006177
aF0.005311
aF0.025467
aF-0.006176
aF0.002416
aF0.019963
aF0.000567
aF-0.006178
aF0.015871
aF-0.006178
aF-0.006178
aF0.026483
aF0.026997
aF0.021166
aF0.019909
aF-0.006178
aF-0.006178
aF-0.001071
aF0.021506
aF0.026848
aF-0.006178
aF-0.006178
aF0.025052
aF-0.006178
aF-0.006178
aF-0.006178
aF0.012593
aF0.004303
aF-0.005109
aF0.019764
aF-0.006178
aF-0.001071
aF0.019904
aF0.010583
aF-0.006178
aF0.020655
aF-0.006157
aF-0.006178
aF0.019936
aF-0.005437
aF0.026635
aF0.007385
aF-0.00607
aF-0.006178
aF0.023771
aF0.018835
aF0.019982
aF-0.005443
aF-0.006131
aF-0.006151
aF0.017954
aF0.019928
aF-0.000274
aF-0.006173
aF0.019764
aF0.02585
aF0.005311
aF-0.006178
aF0.019916
aF0.003321
aF-0.006178
aF0.022757
aF-0.006174
aF0.016176
aF0.002416
aF-0.006178
aF-0.003155
aF-0.006178
aF-0.006178
aF-0.005443
aF0.020327
aF0.017874
aF-0.006178
aF-0.006178
aF-0.006178
aF0.011656
aF0.019905
aF-0.006178
aF-0.006178
aF0.01389
aF-0.006178
aF0.020043
aF0.012726
aF-0.002407
aF-0.004716
aF-0.006178
aF-0.005933
asS'HeadYaw'
p5
(lp6
F-0.096684
aF-0.100718
aF-0.098218
aF-0.269629
aF-0.128182
aF-0.05399
aF-0.112988
aF-0.154261
aF-0.098389
aF-0.238965
aF-0.098218
aF-0.098218
aF-0.079876
aF-0.120087
aF-0.117832
aF-0.108126
aF-0.282313
aF-0.131851
aF-0.116086
aF-0.260757
aF-0.099668
aF-0.098389
aF-0.091037
aF-0.22645
aF-0.130516
aF-0.131966
aF-0.112563
aF-0.131966
aF-0.28572
aF-0.115092
aF-0.237983
aF-0.098218
aF-0.06664
aF-0.133806
aF-0.054913
aF-0.129466
aF-0.116086
aF-0.110912
aF-0.108896
aF-0.130516
aF-0.05591
aF-0.119271
aF-0.1277
aF-0.124676
aF-0.071004
aF-0.103491
aF-0.125028
aF-0.118447
aF-0.276993
aF-0.155777
aF-0.244818
aF-0.129466
aF-0.250468
aF-0.096684
aF-0.053732
aF-0.121214
aF-0.102873
aF-0.096684
aF-0.127508
aF-0.114325
aF-0.096426
aF-0.115092
aF-0.184706
aF-0.10155
aF-0.115092
aF-0.096684
aF-0.108502
aF-0.121682
aF-0.110818
aF-0.130326
aF-0.170316
aF-0.057475
aF-0.260757
aF-0.130251
aF-0.05832
aF-0.128182
aF-0.106967
aF-0.096684
aF-0.114183
aF-0.123216
aF-0.102002
aF-0.118447
aF-0.092941
aF-0.28043
aF-0.199193
aF-0.122819
aF-0.078128
aF-0.06664
aF-0.090165
aF-0.112194
aF-0.105831
aF-0.072287
aF-0.096684
aF-0.131851
aF-0.276882
aF-0.102002
aF-0.112988
aF-0.223489
aF-0.199193
aF-0.098218
aF-0.276993
aF-0.05591
aF-0.109103
aF-0.129352
aF-0.121288
aF-0.16163
aF-0.140301
aF-0.1769
aF-0.130978
aF-0.126693
aF-0.104305
aF-0.125777
aF-0.110097
aF-0.127311
aF-0.124345
aF-0.263089
aF-0.110912
aF-0.059379
aF-0.123216
aF-0.098218
aF-0.101668
aF-0.192559
aF-0.086406
aF-0.090165
aF-0.103491
aF-0.096684
aF-0.098218
aF-0.098218
aF-0.131795
aF-0.105507
aF-0.131302
aF-0.104138
aF-0.213125
aF-0.147136
aF-0.094506
aF-0.276882
aF-0.06401
aF-0.272924
aF-0.098218
aF-0.108896
aF-0.098882
aF-0.117196
aF-0.127508
aF-0.131966
aF-0.102873
aF-0.128297
aF-0.126693
aF-0.268273
aF-0.100353
aF-0.121288
aF-0.120087
aF-0.099297
aF-0.098218
aF-0.075208
aF-0.108502
aF-0.131302
aF-0.05832
aF-0.111737
aF-0.098218
aF-0.105831
aF-0.081
aF-0.099668
aF-0.099668
aF-0.069415
aF-0.1271
aF-0.121682
aF-0.098882
aF-0.215926
aF-0.071004
aF-0.100718
aF-0.119547
aF-0.091037
aF-0.1769
aF-0.113407
aF-0.28043
aF-0.115092
aF-0.115092
aF-0.101668
aF-0.14144
aF-0.061574
aF-0.096684
aF-0.126693
aF-0.100718
aF-0.16163
aF-0.28572
aF-0.184856
aF-0.129466
aF-0.098218
aF-0.063751
aF-0.098218
aF-0.125028
aF-0.128456
aF-0.107436
aF-0.208218
aF-0.116845
aF-0.286472
aF-0.098218
aF-0.16163
aF-0.096684
aF-0.251312
aF-0.098218
aF-0.286901
aF-0.117196
aF-0.106967
aF-0.094506
aF-0.112194
aF-0.184856
aF-0.230857
aF-0.128182
aF-0.105156
aF-0.269629
aF-0.285218
aF-0.088842
aF-0.131516
aF-0.123216
aF-0.119271
aF-0.100353
aF-0.095684
aF-0.169192
aF-0.106967
aF-0.286472
aF-0.079876
aF-0.215926
aF-0.116777
aF-0.096684
aF-0.200413
aF-0.124676
aF-0.054732
aF-0.105156
aF-0.102873
aF-0.119547
aF-0.127311
aF-0.140301
aF-0.101728
aF-0.115092
aF-0.131516
aF-0.072287
aF-0.283188
aF-0.111737
aF-0.110912
aF-0.126046
aF-0.257419
aF-0.096684
aF-0.131536
aF-0.131021
aF-0.105831
aF-0.100718
aF-0.083776
aF-0.257419
aF-0.125777
aF-0.12203
aF-0.105507
aF-0.131302
asS'RHipPitch'
p7
(lp8
F0.197844
aF0.241457
aF0.061318
aF0.183645
aF-0.026767
aF0.197844
aF0.270455
aF0.084206
aF0.274544
aF0.190565
aF0.061318
aF0.274544
aF0.197844
aF0.009691
aF0.218414
aF0.065141
aF0.178027
aF0.245319
aF0.216379
aF0.186166
aF0.061318
aF0.061318
aF0.197844
aF0.192417
aF0.253973
aF-0.057993
aF0.212516
aF-0.057993
aF0.174955
aF0.269282
aF0.125487
aF0.274544
aF0.197844
aF0.075517
aF0.197844
aF-0.066059
aF0.216379
aF0.04687
aF0.04687
aF-0.041047
aF0.197844
aF0.012848
aF0.072996
aF-0.034451
aF0.197844
aF0.058783
aF0.261685
aF0.027052
aF0.153684
aF0.197682
aF0.129581
aF-0.034131
aF0.188477
aF0.197844
aF0.197844
aF0.222653
aF0.213508
aF0.197844
aF0.197844
aF0.214411
aF0.197844
aF0.064343
aF0.097933
aF0.201933
aF0.027911
aF0.197844
aF0.142662
aF-0.006502
aF0.210702
aF-0.067538
aF0.197206
aF0.197844
aF0.186166
aF0.238493
aF0.197844
aF0.259871
aF0.161658
aF0.197844
aF0.197844
aF-0.021294
aF0.060665
aF0.027052
aF0.197844
aF0.157502
aF0.195362
aF0.224842
aF0.197844
aF0.197844
aF0.197844
aF0.066744
aF0.20582
aF0.197844
aF0.197844
aF0.245319
aF0.180927
aF0.274453
aF0.034827
aF0.117352
aF0.195362
aF0.061318
aF0.153684
aF0.197844
aF0.208977
aF0.236194
aF0.004925
aF0.087435
aF0.078234
aF0.097933
aF0.240786
aF-0.019068
aF0.204404
aF0.229324
aF0.123199
aF-0.054926
aF0.227068
aF0.141809
aF0.271495
aF0.197844
aF-0.00311
aF0.061318
aF0.197844
aF0.10166
aF0.197844
aF0.197844
aF0.274185
aF0.197844
aF0.061318
aF0.061318
aF0.249735
aF0.179954
aF0.25188
aF0.197315
aF0.194021
aF0.081135
aF0.197844
aF0.180927
aF0.197844
aF0.149787
aF0.274544
aF0.272396
aF0.061318
aF0.020547
aF0.197844
aF0.247545
aF0.213508
aF0.233894
aF0.259871
aF0.145824
aF0.200892
aF0.26504
aF0.009691
aF0.199991
aF0.274544
aF0.197844
aF0.142662
aF-0.047404
aF0.197844
aF0.103503
aF0.061318
aF0.20582
aF0.197844
aF0.274544
aF0.061318
aF0.197844
aF0.231601
aF-0.006502
aF0.274544
aF0.113337
aF0.197844
aF0.274544
aF0.220508
aF0.197844
aF0.094311
aF0.083806
aF0.157502
aF0.064343
aF0.027911
aF0.197844
aF0.197844
aF0.197844
aF0.197844
aF-0.019068
aF0.241457
aF0.087435
aF0.174955
aF0.196428
aF-0.034131
aF0.274544
aF0.197844
aF0.274544
aF-0.011145
aF-0.061777
aF0.207347
aF0.109375
aF0.068596
aF0.171727
aF0.274544
aF0.087435
aF0.197844
aF0.133674
aF0.061318
aF0.171727
aF0.267983
aF0.051773
aF0.197844
aF0.066744
aF0.196428
aF0.121407
aF0.257977
aF0.055781
aF0.183645
aF0.16485
aF0.197844
aF0.243064
aF0.263411
aF0.266567
aF0.200892
aF0.197844
aF0.090807
aF0.27315
aF0.168354
aF0.197844
aF0.113337
aF0.045347
aF0.197844
aF0.105478
aF-0.045739
aF0.197844
aF0.273749
aF0.203106
aF0.220508
aF-0.054926
aF0.078234
aF0.2283
aF0.027911
aF0.243064
aF0.197844
aF0.161228
aF0.103503
aF0.041184
aF-0.045739
aF0.137755
aF0.197844
aF-0.065003
aF-0.066885
aF0.20582
aF0.061318
aF0.197844
aF0.141809
aF0.229324
aF0.070685
aF0.179954
aF0.25188
asS'RElbowYaw'
p9
(lp10
F1.454609
aF1.509835
aF1.497131
aF1.55481
aF1.751262
aF1.594267
aF1.591519
aF1.372729
aF1.499717
aF1.667442
aF1.496047
aF1.493973
aF1.716144
aF1.71366
aF1.697664
aF1.478937
aF1.523311
aF1.829057
aF1.675263
aF1.614769
aF1.507994
aF1.502307
aF1.457402
aF1.689824
aF1.781606
aF1.820378
aF1.62979
aF1.82772
aF1.491438
aF1.610156
aF1.235175
aF1.495391
aF1.486921
aF1.421343
aF1.632919
aF1.829143
aF1.675263
aF1.576854
aF1.560906
aF1.784409
aF1.556795
aF1.652506
aF1.435783
aF1.786061
aF1.6869
aF1.525135
aF1.710504
aF1.71366
aF1.31803
aF1.746472
aF1.236029
aF1.768576
aF1.64226
aF1.45437
aF1.613624
aF1.740136
aF1.530243
aF1.454895
aF1.746501
aF1.65253
aF1.45536
aF1.672622
aF1.305543
aF1.495912
aF1.612925
aF1.455099
aF1.592749
aF1.752277
aF1.607364
aF1.833178
aF1.742876
aF1.53939
aF1.614769
aF1.829166
aF1.669909
aF1.748471
aF1.574876
aF1.454321
aF1.736849
aF1.769918
aF1.517817
aF1.71366
aF1.456684
aF1.342639
aF1.724223
aF1.759535
aF1.465735
aF1.486921
aF1.716144
aF1.470669
aF1.545032
aF1.473591
aF1.454282
aF1.824586
aF1.55481
aF1.515138
aF1.594297
aF1.244011
aF1.724223
aF1.497947
aF1.31803
aF1.556795
aF1.585564
aF1.824604
aF1.672901
aF1.355626
aF1.405854
aF1.321739
aF1.830627
aF1.732748
aF1.526858
aF1.792958
aF1.611729
aF1.812509
aF1.777256
aF1.261337
aF1.574076
aF1.523348
aF1.693273
aF1.496047
aF1.736849
aF1.290244
aF1.459532
aF1.716144
aF1.522429
aF1.45437
aF1.496514
aF1.499022
aF1.807664
aF1.558354
aF1.795654
aF1.543411
aF1.708915
aF1.389562
aF1.456128
aF1.55481
aF1.496761
aF1.296054
aF1.497864
aF1.558137
aF1.504764
aF1.632431
aF1.743204
aF1.817386
aF1.530243
aF1.816945
aF1.729947
aF1.277055
aF1.48353
aF1.670157
aF1.733423
aF1.473387
aF1.494583
aF1.469149
aF1.592749
aF1.798491
aF1.651799
aF1.631553
aF1.50044
aF1.545032
aF1.46311
aF1.505368
aF1.507994
aF1.479378
aF1.806297
aF1.752277
aF1.502157
aF1.252721
aF1.6869
aF1.509589
aF1.7194
aF1.457402
aF1.321739
aF1.651945
aF1.31803
aF1.672622
aF1.612925
aF1.727726
aF1.746501
aF1.50902
aF1.454735
aF1.732748
aF1.509835
aF1.355626
aF1.491438
aF1.735511
aF1.768576
aF1.493164
aF1.669909
aF1.493511
aF1.71332
aF1.822198
aF1.564691
aF1.263532
aF1.460631
aF1.428447
aF1.496457
aF1.355626
aF1.454432
aF1.240682
aF1.50044
aF1.459662
aF1.629679
aF1.546763
aF1.456128
aF1.470669
aF1.724223
aF1.237956
aF1.748471
aF1.534736
aF1.585457
aF1.398247
aF1.45833
aF1.829057
aF1.690499
aF1.649782
aF1.48353
aF1.455696
aF1.338534
aF1.544009
aF1.428447
aF1.702425
aF1.252721
aF1.693292
aF1.455099
aF1.27614
aF1.786061
aF1.575205
aF1.532003
aF1.510413
aF1.7194
aF1.812509
aF1.405854
aF1.519013
aF1.612925
aF1.829057
aF1.473591
aF1.369504
aF1.631553
aF1.576854
aF1.800361
aF1.249151
aF1.45451
aF1.832395
aF1.834249
aF1.545032
aF1.51224
aF1.461089
aF1.249151
aF1.792958
aF1.448947
aF1.558354
aF1.795654
asS'RHand'
p11
(lp12
F0.221844
aF0.218571
aF0.218571
aF0.224118
aF0.218571
aF0.222453
aF0.218571
aF0.219702
aF0.218571
aF0.224318
aF0.218571
aF0.218571
aF0.22346
aF0.218571
aF0.219244
aF0.218762
aF0.223922
aF0.218571
aF0.219244
aF0.224198
aF0.218571
aF0.218571
aF0.221844
aF0.224357
aF0.218571
aF0.218571
aF0.219802
aF0.218571
aF0.223808
aF0.218571
aF0.22167
aF0.218571
aF0.221844
aF0.219276
aF0.222773
aF0.218571
aF0.21942
aF0.218571
aF0.218571
aF0.218571
aF0.222179
aF0.218571
aF0.219152
aF0.218571
aF0.22329
aF0.218571
aF0.218571
aF0.218571
aF0.222937
aF0.22426
aF0.221858
aF0.218571
aF0.224265
aF0.221844
aF0.222609
aF0.218938
aF0.218571
aF0.221844
aF0.224054
aF0.219607
aF0.221844
aF0.218571
aF0.220368
aF0.221171
aF0.218571
aF0.221844
aF0.218571
aF0.218571
aF0.220003
aF0.218571
aF0.22433
aF0.222066
aF0.224198
aF0.218571
aF0.222943
aF0.218571
aF0.218571
aF0.221844
aF0.223924
aF0.218571
aF0.218571
aF0.218571
aF0.221844
aF0.2231
aF0.224389
aF0.218813
aF0.221844
aF0.221844
aF0.223624
aF0.218842
aF0.220613
aF0.221844
aF0.221844
aF0.218571
aF0.224026
aF0.218571
aF0.218571
aF0.22129
aF0.224389
aF0.218571
aF0.222937
aF0.222179
aF0.220208
aF0.218571
aF0.218571
aF0.21986
aF0.21941
aF0.220368
aF0.218571
aF0.218571
aF0.220808
aF0.218588
aF0.218571
aF0.218571
aF0.218712
aF0.222414
aF0.218571
aF0.221973
aF0.218571
aF0.218571
aF0.22378
aF0.220546
aF0.221844
aF0.223624
aF0.218571
aF0.221844
aF0.218571
aF0.218571
aF0.218571
aF0.218571
aF0.218571
aF0.218571
aF0.224381
aF0.219552
aF0.221844
aF0.224026
aF0.221859
aF0.222767
aF0.218571
aF0.218571
aF0.218571
aF0.218571
aF0.224054
aF0.218571
aF0.218571
aF0.218571
aF0.218571
aF0.222592
aF0.221333
aF0.218571
aF0.218571
aF0.221477
aF0.218571
aF0.221844
aF0.218571
aF0.218571
aF0.222943
aF0.218571
aF0.218571
aF0.220613
aF0.221844
aF0.218571
aF0.218571
aF0.221844
aF0.218588
aF0.218571
aF0.218571
aF0.221102
aF0.223117
aF0.218571
aF0.219082
aF0.221844
aF0.220193
aF0.218571
aF0.2231
aF0.218571
aF0.218571
aF0.22378
aF0.224167
aF0.221903
aF0.221844
aF0.218571
aF0.218571
aF0.21986
aF0.223808
aF0.224374
aF0.218571
aF0.218571
aF0.223117
aF0.218571
aF0.218571
aF0.218571
aF0.220412
aF0.220914
aF0.218934
aF0.223684
aF0.218571
aF0.21986
aF0.221844
aF0.222046
aF0.218571
aF0.223684
aF0.218571
aF0.218571
aF0.221844
aF0.218842
aF0.224374
aF0.22148
aF0.218571
aF0.218571
aF0.224118
aF0.223408
aF0.221844
aF0.218571
aF0.218571
aF0.218571
aF0.221171
aF0.221844
aF0.220023
aF0.218571
aF0.22355
aF0.22346
aF0.221102
aF0.218571
aF0.221844
aF0.220729
aF0.218571
aF0.222309
aF0.218571
aF0.220995
aF0.219082
aF0.218571
aF0.21941
aF0.218571
aF0.218571
aF0.218571
aF0.221844
aF0.223258
aF0.218571
aF0.218571
aF0.218571
aF0.222231
aF0.221844
aF0.218571
aF0.218571
aF0.220412
aF0.218571
aF0.221844
aF0.222414
aF0.218635
aF0.219038
aF0.218571
aF0.218571
asS'RShoulderPitch'
p13
(lp14
F1.526923
aF1.53029
aF1.526646
aF1.47528
aF1.589132
aF1.480806
aF1.558645
aF1.510267
aF1.53382
aF1.470478
aF1.525284
aF1.529885
aF1.462666
aF1.566589
aF1.568629
aF1.519355
aF1.476204
aF1.59787
aF1.564719
aF1.473089
aF1.53361
aF1.530653
aF1.521571
aF1.46904
aF1.593651
aF1.598049
aF1.556998
aF1.598309
aF1.477013
aF1.56265
aF1.486851
aF1.531147
aF1.504831
aF1.51501
aF1.474157
aF1.593903
aF1.564719
aF1.553805
aF1.549865
aF1.594114
aF1.487955
aF1.570866
aF1.516235
aF1.582144
aF1.466136
aF1.540004
aF1.582418
aF1.566589
aF1.480155
aF1.461942
aF1.485261
aF1.591836
aF1.471831
aF1.527897
aF1.477389
aF1.576303
aF1.533405
aF1.526037
aF1.461202
aF1.560826
aF1.5249
aF1.558532
aF1.501985
aF1.535447
aF1.562217
aF1.525504
aF1.543913
aF1.574631
aF1.553279
aF1.5958
aF1.463041
aF1.491565
aF1.473089
aF1.595961
aF1.468478
aF1.588741
aF1.540814
aF1.528149
aF1.461005
aF1.578507
aF1.537543
aF1.566589
aF1.522563
aF1.479717
aF1.46596
aF1.579962
aF1.51435
aF1.504831
aF1.462666
aF1.518827
aF1.543195
aF1.510084
aF1.528371
aF1.598043
aF1.47528
aF1.539834
aF1.557946
aF1.490723
aF1.46596
aF1.527464
aF1.480155
aF1.487955
aF1.549713
aF1.594259
aF1.574974
aF1.508368
aF1.513602
aF1.504202
aF1.597173
aF1.586045
aF1.540313
aF1.586655
aF1.547273
aF1.588727
aF1.583431
aF1.481933
aF1.554775
aF1.495117
aF1.578912
aF1.525284
aF1.461005
aF1.499715
aF1.519184
aF1.462666
aF1.542045
aF1.527897
aF1.525923
aF1.528393
aF1.59683
aF1.53801
aF1.595474
aF1.535531
aF1.467529
aF1.512017
aF1.52344
aF1.47528
aF1.501809
aF1.480642
aF1.532801
aF1.551108
aF1.53203
aF1.566546
aF1.460878
aF1.597692
aF1.533405
aF1.59211
aF1.585734
aF1.48122
aF1.533505
aF1.574807
aF1.570639
aF1.531903
aF1.530474
aF1.512333
aF1.543913
aF1.59593
aF1.471168
aF1.550856
aF1.529449
aF1.543195
aF1.516152
aF1.536366
aF1.53361
aF1.507587
aF1.589576
aF1.574631
aF1.534998
aF1.492896
aF1.466136
aF1.537962
aF1.572507
aF1.521571
aF1.504202
aF1.554623
aF1.480155
aF1.558532
aF1.562217
aF1.461601
aF1.461202
aF1.498552
aF1.526508
aF1.586045
aF1.53029
aF1.508368
aF1.477013
aF1.464417
aF1.591836
aF1.528913
aF1.468478
aF1.529367
aF1.582621
aF1.591526
aF1.546339
aF1.49514
aF1.518139
aF1.478314
aF1.531917
aF1.508368
aF1.527612
aF1.483922
aF1.529449
aF1.477713
aF1.566721
aF1.546202
aF1.52344
aF1.518827
aF1.46596
aF1.488683
aF1.588741
aF1.54289
aF1.47424
aF1.478833
aF1.52045
aF1.59787
aF1.5787
aF1.570794
aF1.533505
aF1.524215
aF1.506338
aF1.547716
aF1.478314
aF1.464187
aF1.492896
aF1.562536
aF1.525504
aF1.497423
aF1.582144
aF1.484349
aF1.544671
aF1.537722
aF1.572507
aF1.588727
aF1.513602
aF1.531654
aF1.562217
aF1.59787
aF1.510084
aF1.479291
aF1.550856
aF1.553805
aF1.585575
aF1.482821
aF1.527289
aF1.59802
aF1.59718
aF1.543195
aF1.535432
aF1.517757
aF1.482821
aF1.586655
aF1.517277
aF1.53801
aF1.595474
asS'LShoulderRoll'
p15
(lp16
F0.093278
aF0.090986
aF0.10314
aF0.110295
aF0.159104
aF0.143457
aF0.131707
aF0.097297
aF0.100622
aF0.117198
aF0.100979
aF0.093424
aF0.140774
aF0.120988
aF0.120609
aF0.093955
aF0.108911
aF0.150419
aF0.117435
aF0.113484
aF0.116988
aF0.109542
aF0.101444
aF0.119226
aF0.154041
aF0.159713
aF0.111249
aF0.158423
aF0.107669
aF0.135016
aF0.100348
aF0.095711
aF0.130112
aF0.096006
aF0.144905
aF0.149126
aF0.117435
aF0.136297
aF0.133025
aF0.160733
aF0.142083
aF0.14843
aF0.095556
aF0.135879
aF0.143653
aF0.123139
aF0.148658
aF0.120988
aF0.102848
aF0.130366
aF0.10061
aF0.160138
aF0.11528
aF0.091949
aF0.144406
aF0.12696
aF0.092966
aF0.094524
aF0.132627
aF0.114304
aF0.096182
aF0.113695
aF0.098642
aF0.094708
aF0.145435
aF0.095293
aF0.101099
aF0.1285
aF0.108302
aF0.152
aF0.128079
aF0.138188
aF0.113484
aF0.146242
aF0.14452
aF0.152213
aF0.098579
aF0.091612
aF0.136943
aF0.132228
aF0.119983
aF0.120988
aF0.09981
aF0.103394
aF0.123545
aF0.130078
aF0.114118
aF0.127019
aF0.140774
aF0.0943
aF0.100444
aF0.120557
aF0.091316
aF0.152029
aF0.110295
aF0.111157
aF0.139483
aF0.099868
aF0.123545
aF0.104446
aF0.102848
aF0.140314
aF0.105497
aF0.143981
aF0.151186
aF0.097682
aF0.096006
aF0.098354
aF0.148471
aF0.15766
aF0.098259
aF0.136057
aF0.103904
aF0.142779
aF0.13312
aF0.101557
aF0.128287
aF0.135748
aF0.153667
aF0.100979
aF0.136943
aF0.098911
aF0.105617
aF0.138935
aF0.114419
aF0.091949
aF0.10199
aF0.105931
aF0.153979
aF0.09637
aF0.154251
aF0.094494
aF0.121348
aF0.096885
aF0.098412
aF0.110295
aF0.130112
aF0.10237
aF0.098748
aF0.124801
aF0.111728
aF0.145435
aF0.134829
aF0.15323
aF0.092966
aF0.138863
aF0.150637
aF0.101942
aF0.093378
aF0.143859
aF0.124739
aF0.092357
aF0.094487
aF0.117304
aF0.101099
aF0.160869
aF0.144943
aF0.106962
aF0.10762
aF0.100444
aF0.111063
aF0.105276
aF0.114215
aF0.123815
aF0.138863
aF0.1285
aF0.102784
aF0.099637
aF0.143653
aF0.108089
aF0.123794
aF0.103361
aF0.098354
aF0.110238
aF0.102848
aF0.113695
aF0.142543
aF0.138935
aF0.132627
aF0.133039
aF0.093857
aF0.15766
aF0.090986
aF0.097682
aF0.106567
aF0.125797
aF0.160138
aF0.091697
aF0.14452
aF0.0925
aF0.155837
aF0.145946
aF0.102867
aF0.099405
aF0.09469
aF0.105598
aF0.097122
aF0.097297
aF0.092333
aF0.100895
aF0.10762
aF0.106567
aF0.138171
aF0.12971
aF0.098412
aF0.0943
aF0.123545
aF0.100103
aF0.152213
aF0.126399
aF0.11182
aF0.104754
aF0.103361
aF0.150419
aF0.146312
aF0.141133
aF0.093378
aF0.097213
aF0.098035
aF0.121294
aF0.105598
aF0.142382
aF0.099637
aF0.117293
aF0.095293
aF0.099164
aF0.135879
aF0.142083
aF0.117817
aF0.09634
aF0.123794
aF0.142779
aF0.096452
aF0.091796
aF0.142543
aF0.150419
aF0.120557
aF0.104024
aF0.106962
aF0.136297
aF0.13941
aF0.101209
aF0.092773
aF0.156682
aF0.154529
aF0.100444
aF0.116988
aF0.108207
aF0.101209
aF0.136057
aF0.095113
aF0.09637
aF0.154251
asS'LHand'
p17
(lp18
F0.111663
aF0.105481
aF0.105481
aF0.110632
aF0.105481
aF0.111663
aF0.105481
aF0.106383
aF0.105481
aF0.110998
aF0.105481
aF0.105481
aF0.111663
aF0.105481
aF0.107594
aF0.10563
aF0.110356
aF0.105481
aF0.107594
aF0.110761
aF0.105481
aF0.105481
aF0.111663
aF0.111106
aF0.105481
aF0.105481
aF0.108572
aF0.105481
aF0.110211
aF0.105481
aF0.108059
aF0.105481
aF0.111663
aF0.106038
aF0.111663
aF0.105481
aF0.107914
aF0.105481
aF0.105481
aF0.105481
aF0.111663
aF0.105481
aF0.105939
aF0.105481
aF0.111663
aF0.105481
aF0.105481
aF0.105481
aF0.109254
aF0.111514
aF0.108229
aF0.105481
aF0.110883
aF0.111663
aF0.111663
aF0.106987
aF0.105481
aF0.111663
aF0.111608
aF0.108241
aF0.111663
aF0.105481
aF0.106933
aF0.110697
aF0.105481
aF0.111663
aF0.105481
aF0.105481
aF0.108903
aF0.105481
aF0.111451
aF0.111663
aF0.110761
aF0.105571
aF0.111663
aF0.105481
aF0.105481
aF0.111663
aF0.111638
aF0.105481
aF0.105481
aF0.105481
aF0.111663
aF0.109421
aF0.111296
aF0.106707
aF0.111663
aF0.111663
aF0.111663
aF0.105693
aF0.109861
aF0.111663
aF0.111663
aF0.105481
aF0.110497
aF0.105481
aF0.105481
aF0.107723
aF0.111296
aF0.105481
aF0.109254
aF0.111663
aF0.10923
aF0.105679
aF0.105481
aF0.106512
aF0.106146
aF0.106933
aF0.105504
aF0.105481
aF0.110157
aF0.106002
aF0.105481
aF0.105481
aF0.106447
aF0.108744
aF0.105481
aF0.111663
aF0.105481
aF0.105481
aF0.111657
aF0.107084
aF0.111663
aF0.111663
aF0.105481
aF0.111663
aF0.105481
aF0.105481
aF0.105481
aF0.105481
aF0.105481
aF0.105481
aF0.111205
aF0.106261
aF0.111663
aF0.110497
aF0.111663
aF0.109085
aF0.105481
aF0.105481
aF0.105481
aF0.105481
aF0.111608
aF0.105481
aF0.105481
aF0.105823
aF0.105481
aF0.108915
aF0.110933
aF0.105481
aF0.105481
aF0.111142
aF0.105481
aF0.111663
aF0.105481
aF0.105481
aF0.111663
aF0.105481
aF0.105481
aF0.109861
aF0.111663
aF0.105481
aF0.105481
aF0.111663
aF0.106002
aF0.105481
aF0.105481
aF0.107559
aF0.111663
aF0.105481
aF0.107283
aF0.111663
aF0.106788
aF0.105481
aF0.109421
aF0.105481
aF0.105481
aF0.111657
aF0.111566
aF0.111663
aF0.111663
aF0.105481
aF0.105481
aF0.106512
aF0.110211
aF0.111378
aF0.105481
aF0.105481
aF0.111663
aF0.105481
aF0.105481
aF0.105481
aF0.10955
aF0.107397
aF0.105766
aF0.11006
aF0.105481
aF0.106512
aF0.111663
aF0.1084
aF0.105481
aF0.11006
aF0.105481
aF0.105481
aF0.111663
aF0.105693
aF0.111378
aF0.10789
aF0.105481
aF0.105481
aF0.110632
aF0.109747
aF0.111663
aF0.105481
aF0.105481
aF0.105481
aF0.110697
aF0.111663
aF0.106647
aF0.105481
aF0.109906
aF0.111663
aF0.107559
aF0.105481
aF0.111663
aF0.107238
aF0.105481
aF0.111663
aF0.105481
aF0.110437
aF0.107283
aF0.105481
aF0.106146
aF0.105481
aF0.105481
aF0.105481
aF0.111663
aF0.109585
aF0.105481
aF0.105481
aF0.105481
aF0.108572
aF0.111663
aF0.105481
aF0.105481
aF0.10955
aF0.105481
aF0.111663
aF0.108744
aF0.106211
aF0.105848
aF0.105481
aF0.105481
asS'LKneePitch'
p19
(lp20
F-0.089014
aF-0.07645
aF0.33437
aF-0.044982
aF0.23013
aF-0.089014
aF-0.091918
aF0.263391
aF-0.092082
aF-0.066442
aF0.33437
aF-0.092082
aF-0.089014
aF0.053367
aF-0.089837
aF0.322515
aF-0.027559
aF-0.090913
aF-0.089755
aF-0.052799
aF0.33437
aF0.33437
aF-0.089014
aF-0.072187
aF-0.091259
aF0.176254
aF-0.089601
aF0.176254
aF-0.018034
aF-0.091872
aF0.135373
aF-0.092082
aF-0.089014
aF0.290338
aF-0.089014
aF0.129137
aF-0.089755
aF0.313285
aF0.319388
aF0.20834
aF-0.089014
aF0.281241
aF0.298156
aF0.087942
aF-0.089014
aF0.33181
aF-0.091568
aF0.041576
aF0.047932
aF-0.088513
aF0.122678
aF0.21925
aF-0.059966
aF-0.089014
aF-0.089014
aF-0.090006
aF-0.062773
aF-0.089014
aF-0.089014
aF-0.089677
aF-0.089014
aF0.018082
aF0.220822
aF-0.089177
aF0.298627
aF-0.089014
aF-0.026272
aF0.065079
aF-0.089528
aF0.138018
aF-0.087036
aF-0.089014
aF-0.052799
aF-0.09064
aF-0.089014
aF-0.091495
aF-0.036337
aF-0.089014
aF-0.089014
aF0.076631
aF0.333717
aF0.041576
aF-0.089014
aF0.036091
aF-0.081318
aF-0.090094
aF-0.089014
aF-0.089014
aF-0.089014
aF0.317543
aF-0.089333
aF-0.089014
aF-0.089014
aF-0.090913
aF-0.036555
aF-0.092078
aF0.306338
aF0.1606
aF-0.081318
aF0.33437
aF0.047932
aF-0.089014
aF-0.089459
aF-0.090548
aF0.27173
aF0.253379
aF0.281911
aF0.232054
aF-0.090732
aF0.2409
aF-0.089276
aF-0.090273
aF-0.015717
aF0.109512
aF-0.090183
aF0.084756
aF-0.09196
aF-0.089014
aF0.261781
aF0.33437
aF-0.089014
aF0.209265
aF-0.089014
aF-0.089014
aF-0.092068
aF-0.089014
aF0.33437
aF0.33437
aF-0.09109
aF-0.04583
aF-0.091175
aF-0.054669
aF-0.077159
aF0.272915
aF-0.089014
aF-0.036555
aF-0.089014
aF0.060017
aF-0.092082
aF-0.091996
aF0.33437
aF0.290234
aF-0.089014
aF-0.091002
aF-0.062773
aF-0.090456
aF-0.091495
aF0.072306
aF-0.089136
aF-0.091702
aF0.053367
aF-0.0891
aF-0.092082
aF-0.089014
aF-0.026272
aF0.197484
aF-0.089014
aF-0.004751
aF0.33437
aF-0.089333
aF-0.089014
aF-0.092082
aF0.33437
aF-0.089014
aF-0.090364
aF0.065079
aF-0.092082
aF0.173051
aF-0.089014
aF-0.092082
aF-0.08992
aF-0.089014
aF0.232054
aF0.006542
aF0.036091
aF0.018082
aF0.298627
aF-0.089014
aF-0.089014
aF-0.089014
aF-0.089014
aF0.2409
aF-0.07645
aF0.253379
aF-0.018034
aF-0.084624
aF0.21925
aF-0.092082
aF-0.089014
aF-0.092082
aF0.251477
aF0.119608
aF-0.089394
aF0.185339
aF0.311799
aF-0.008022
aF-0.092082
aF0.253379
aF-0.089014
aF0.109983
aF0.33437
aF-0.008022
aF-0.09182
aF0.324564
aF-0.089014
aF0.317543
aF-0.084624
aF0.148027
aF-0.091419
aF0.328732
aF-0.044982
aF0.013303
aF-0.089014
aF-0.090823
aF-0.091637
aF-0.091763
aF-0.089136
aF-0.089014
aF0.242919
aF-0.092026
aF0.002437
aF-0.089014
aF0.173051
aF0.029787
aF-0.089014
aF0.197424
aF0.098929
aF-0.089014
aF-0.09205
aF-0.089224
aF-0.08992
aF0.109512
aF0.281911
aF-0.07006
aF0.298627
aF-0.090823
aF-0.089014
aF0.024534
aF-0.004751
aF0.313285
aF0.098929
aF0.097329
aF-0.089014
aF0.156215
aF0.146845
aF-0.089333
aF0.33437
aF-0.089014
aF0.084756
aF-0.090273
aF0.305323
aF-0.04583
aF-0.091175
asS'RAnkleRoll'
p21
(lp22
F0.119694
aF0.077357
aF0.113558
aF0.119056
aF0.099368
aF0.119694
aF0.079032
aF0.114587
aF0.076742
aF0.119367
aF0.113558
aF0.076742
aF0.119694
aF0.08342
aF0.108175
aF0.11373
aF0.118803
aF0.093108
aF0.109314
aF0.119169
aF0.113558
aF0.113558
aF0.119694
aF0.11945
aF0.088261
aF0.092877
aF0.111477
aF0.092877
aF0.118665
aF0.079689
aF0.116442
aF0.076742
aF0.119694
aF0.114196
aF0.119694
aF0.08828
aF0.109314
aF0.111413
aF0.111413
aF0.096646
aF0.119694
aF0.106115
aF0.114083
aF0.085425
aF0.119694
aF0.113187
aF0.083943
aF0.082787
aF0.117709
aF0.119687
aF0.116626
aF0.097995
aF0.119273
aF0.119694
aF0.119694
aF0.105801
aF0.077918
aF0.119694
aF0.119694
aF0.110416
aF0.119694
aF0.081587
aF0.115204
aF0.117404
aF0.108504
aF0.119694
aF0.079496
aF0.084072
aF0.112493
aF0.089014
aF0.119665
aF0.119694
aF0.119169
aF0.09693
aF0.119694
aF0.084959
aF0.079049
aF0.119694
aF0.119694
aF0.084741
aF0.113463
aF0.082787
aF0.119694
aF0.117881
aF0.119582
aF0.104575
aF0.119694
aF0.119694
aF0.119694
aF0.113802
aF0.115227
aF0.119694
aF0.119694
aF0.093108
aF0.118934
aF0.076793
aF0.109577
aF0.116076
aF0.119582
aF0.113558
aF0.117709
aF0.119694
aF0.113459
aF0.098218
aF0.104827
aF0.114732
aF0.114318
aF0.115204
aF0.095646
aF0.100752
aF0.11602
aF0.10079
aF0.079975
aF0.086833
aF0.103328
aF0.117176
aF0.078449
aF0.119694
aF0.103495
aF0.113558
aF0.119694
aF0.115371
aF0.119694
aF0.119694
aF0.076943
aF0.119694
aF0.113558
aF0.113558
aF0.090635
aF0.078635
aF0.089434
aF0.078258
aF0.119522
aF0.114449
aF0.119694
aF0.118934
aF0.119694
aF0.117534
aF0.076742
aF0.077945
aF0.113558
aF0.107345
aF0.119694
aF0.091861
aF0.077918
aF0.099506
aF0.084959
aF0.117356
aF0.117987
aF0.082064
aF0.08342
aF0.118491
aF0.076742
aF0.119694
aF0.079496
aF0.095334
aF0.119694
aF0.081023
aF0.113558
aF0.115227
aF0.119694
aF0.076742
aF0.113558
aF0.119694
aF0.10079
aF0.084072
aF0.076742
aF0.115896
aF0.119694
aF0.076742
aF0.107002
aF0.119694
aF0.115041
aF0.081023
aF0.117881
aF0.081587
aF0.108504
aF0.119694
aF0.119694
aF0.119694
aF0.119694
aF0.100752
aF0.077357
aF0.114732
aF0.118665
aF0.11963
aF0.097995
aF0.076742
aF0.119694
aF0.076742
aF0.102132
aF0.087552
aF0.114372
aF0.115718
aF0.113885
aF0.11852
aF0.076742
aF0.114732
aF0.119694
aF0.11681
aF0.113558
aF0.11852
aF0.080416
aF0.112149
aF0.119694
aF0.113802
aF0.11963
aF0.116259
aF0.08602
aF0.112745
aF0.119056
aF0.118211
aF0.119694
aF0.094371
aF0.082977
aF0.081209
aF0.117987
aF0.119694
aF0.114883
aF0.077523
aF0.118369
aF0.119694
aF0.115896
aF0.082176
aF0.119694
aF0.115543
aF0.086123
aF0.119694
aF0.077187
aF0.116747
aF0.107002
aF0.086833
aF0.114318
aF0.077617
aF0.108504
aF0.094371
aF0.119694
aF0.118048
aF0.080485
aF0.110551
aF0.086123
aF0.116993
aF0.119694
aF0.090734
aF0.089814
aF0.114372
aF0.113558
aF0.119694
aF0.117176
aF0.102065
aF0.113979
aF0.078635
aF0.089434
asS'LShoulderPitch'
p23
(lp24
F1.375854
aF1.486052
aF1.485214
aF1.346373
aF1.554322
aF1.395988
aF1.530164
aF1.437884
aF1.494845
aF1.358311
aF1.482928
aF1.487937
aF1.390717
aF1.515852
aF1.462616
aF1.470105
aF1.343987
aF1.543916
aF1.453591
aF1.351965
aF1.5009
aF1.492152
aF1.380076
aF1.361647
aF1.553769
aF1.555069
aF1.435984
aF1.553705
aF1.341946
aF1.534106
aF1.366966
aF1.490085
aF1.391882
aF1.453589
aF1.3958
aF1.544332
aF1.453591
aF1.525862
aF1.521488
aF1.556151
aF1.395747
aF1.541919
aF1.457937
aF1.530806
aF1.393616
aF1.508597
aF1.549776
aF1.515852
aF1.33994
aF1.378198
aF1.36141
aF1.555485
aF1.355068
aF1.375004
aF1.396011
aF1.480659
aF1.488206
aF1.376588
aF1.381189
aF1.444685
aF1.377498
aF1.50869
aF1.412544
aF1.387866
aF1.538361
aF1.377019
aF1.496383
aF1.523327
aF1.427578
aF1.547147
aF1.375044
aF1.394676
aF1.351965
aF1.534346
aF1.394617
aF1.552887
aF1.493894
aF1.374775
aF1.386519
aF1.527087
aF1.504609
aF1.515852
aF1.379311
aF1.338793
aF1.36842
aF1.489498
aF1.385565
aF1.39072
aF1.390717
aF1.467875
aF1.404967
aF1.38819
aF1.374569
aF1.547433
aF1.346373
aF1.506156
aF1.53017
aF1.379145
aF1.36842
aF1.486602
aF1.33994
aF1.395304
aF1.419551
aF1.528294
aF1.54517
aF1.431912
aF1.453589
aF1.419182
aF1.539544
aF1.552681
aF1.398564
aF1.506366
aF1.499133
aF1.537951
aF1.498097
aF1.347725
aF1.526099
aF1.393883
aF1.548072
aF1.482928
aF1.386519
aF1.405802
aF1.381946
aF1.38878
aF1.509865
aF1.375004
aF1.483998
aF1.488193
aF1.552065
aF1.491689
aF1.553261
aF1.489787
aF1.365031
aF1.44352
aF1.378635
aF1.346373
aF1.391882
aF1.341793
aF1.492995
aF1.521971
aF1.494633
aF1.538361
aF1.383976
aF1.550136
aF1.488206
aF1.514214
aF1.551588
aF1.344394
aF1.383676
aF1.544614
aF1.519569
aF1.380301
aF1.488933
aF1.386876
aF1.496383
aF1.556305
aF1.39534
aF1.502119
aF1.490026
aF1.404967
aF1.384287
aF1.499667
aF1.497548
aF1.38948
aF1.514214
aF1.523327
aF1.497041
aF1.385626
aF1.393616
aF1.502731
aF1.462616
aF1.380947
aF1.419182
aF1.505315
aF1.33994
aF1.50869
aF1.534353
aF1.38878
aF1.381189
aF1.392944
aF1.376202
aF1.552681
aF1.486052
aF1.431912
aF1.340302
aF1.371772
aF1.555485
aF1.486317
aF1.394617
aF1.487072
aF1.550587
aF1.541287
aF1.411988
aF1.392276
aF1.4651
aF1.339112
aF1.491425
aF1.437884
aF1.375258
aF1.356304
aF1.490026
aF1.340302
aF1.537864
aF1.517108
aF1.378635
aF1.467875
aF1.36842
aF1.372901
aF1.552887
aF1.512788
aF1.34905
aF1.338428
aF1.380947
aF1.543916
aF1.5475
aF1.541385
aF1.383676
aF1.378034
aF1.425659
aF1.517844
aF1.339112
aF1.392322
aF1.385626
aF1.512213
aF1.377019
aF1.399024
aF1.530806
aF1.395747
aF1.513785
aF1.392844
aF1.471668
aF1.537951
aF1.44877
aF1.486959
aF1.534353
aF1.543916
aF1.38819
aF1.338305
aF1.502119
aF1.525862
aF1.534442
aF1.351719
aF1.37554
aF1.551889
aF1.549682
aF1.404967
aF1.5009
aF1.38307
aF1.351719
aF1.506366
aF1.461782
aF1.491689
aF1.553261
asS'LHipPitch'
p25
(lp26
F0.214801
aF0.25495
aF0.00311
aF0.192785
aF-0.018911
aF0.214801
aF0.281605
aF0.0386
aF0.285367
aF0.203515
aF0.00311
aF0.285367
aF0.214801
aF0.041892
aF0.233726
aF0.009037
aF0.184074
aF0.258479
aF0.231854
aF0.196694
aF0.00311
aF0.00311
aF0.214801
aF0.206388
aF0.266441
aF-0.026718
aF0.2283
aF-0.026718
aF0.179312
aF0.280525
aF0.102608
aF0.285367
aF0.214801
aF0.025126
aF0.214801
aF-0.027744
aF0.231854
aF-0.001923
aF-0.000502
aF-0.022481
aF0.214801
aF-0.009008
aF0.021217
aF0.001312
aF0.214801
aF0.002476
aF0.273536
aF0.057851
aF0.146328
aF0.214551
aF0.108956
aF-0.020752
aF0.200277
aF0.214801
aF0.214801
aF0.237626
aF0.229257
aF0.214801
aF0.214801
aF0.230043
aF0.214801
aF0.092132
aF0.059884
aF0.218563
aF-0.005242
aF0.214801
aF0.16413
aF0.027005
aF0.226631
aF-0.029104
aF0.213812
aF0.214801
aF0.196694
aF0.2522
aF0.214801
aF0.271868
aF0.181593
aF0.214801
aF0.214801
aF0.013407
aF0.002947
aF0.057851
aF0.214801
aF0.152249
aF0.210953
aF0.23964
aF0.214801
aF0.214801
aF0.214801
aF0.011523
aF0.22214
aF0.214801
aF0.214801
aF0.258479
aF0.188572
aF0.285283
aF-0.003513
aF0.089995
aF0.210953
aF0.00311
aF0.146328
aF0.214801
aF0.225044
aF0.250084
aF-0.010988
aF0.043606
aF0.029339
aF0.054268
aF0.254309
aF-0.016987
aF0.220837
aF0.243763
aF0.146238
aF-0.01751
aF0.241688
aF0.127916
aF0.282562
aF0.214801
aF-0.012997
aF0.00311
aF0.214801
aF0.065662
aF0.214801
aF0.214801
aF0.285037
aF0.214801
aF0.00311
aF0.00311
aF0.262542
aF0.198411
aF0.264515
aF0.214371
aF0.208874
aF0.033837
aF0.214801
aF0.188572
aF0.214801
aF0.140286
aF0.285367
aF0.283391
aF0.00311
aF-0.007083
aF0.214801
aF0.260528
aF0.229257
aF0.247968
aF0.271868
aF0.134142
aF0.217606
aF0.276623
aF0.041892
aF0.216777
aF0.285367
aF0.214801
aF0.16413
aF-0.024071
aF0.214801
aF0.128131
aF0.00311
aF0.22214
aF0.214801
aF0.285367
aF0.00311
aF0.214801
aF0.245859
aF0.027005
aF0.285367
aF0.083769
aF0.214801
aF0.285367
aF0.235652
aF0.214801
aF0.054268
aF0.110024
aF0.152249
aF0.092132
aF-0.005242
aF0.214801
aF0.214801
aF0.214801
aF0.214801
aF-0.016987
aF0.25495
aF0.043606
aF0.179312
aF0.212606
aF-0.020752
aF0.285367
aF0.214801
aF0.285367
aF-0.015006
aF-0.023808
aF0.223544
aF0.077625
aF0.014396
aF0.174305
aF0.285367
aF0.043606
aF0.214801
aF0.115303
aF0.00311
aF0.174305
aF0.279331
aF0.000724
aF0.214801
aF0.011523
aF0.212606
aF0.096281
aF0.270124
aF0.001726
aF0.192785
aF0.163643
aF0.214801
aF0.256404
aF0.275124
aF0.278028
aF0.217606
aF0.214801
aF0.048835
aF0.284084
aF0.169076
aF0.214801
aF0.083769
aF0.07467
aF0.214801
aF0.071583
aF-0.009065
aF0.214801
aF0.284635
aF0.219643
aF0.235652
aF-0.01751
aF0.029339
aF0.242855
aF-0.005242
aF0.256404
aF0.214801
aF0.158027
aF0.128131
aF-0.001923
aF-0.009065
aF0.12163
aF0.214801
aF-0.02847
aF-0.028941
aF0.22214
aF0.00311
aF0.214801
aF0.127916
aF0.243763
aF0.017634
aF0.198411
aF0.264515
asS'LElbowYaw'
p27
(lp28
F-1.044543
aF-1.45033
aF-1.446583
aF-0.916965
aF-1.789123
aF-1.158544
aF-1.632833
aF-1.279708
aF-1.460671
aF-0.98116
aF-1.442923
aF-1.441377
aF-1.152127
aF-1.634488
aF-1.437737
aF-1.419373
aF-0.904368
aF-1.781103
aF-1.398145
aF-0.946819
aF-1.495896
aF-1.463801
aF-1.053242
aF-0.999344
aF-1.800537
aF-1.817495
aF-1.320628
aF-1.814431
aF-0.893657
aF-1.65536
aF-0.990515
aF-1.446183
aF-1.118415
aF-1.346578
aF-1.164694
aF-1.777338
aF-1.398145
aF-1.613189
aF-1.59091
aF-1.808952
aF-1.153723
aF-1.702096
aF-1.365432
aF-1.712697
aF-1.162777
aF-1.529263
aF-1.755358
aF-1.634488
aF-0.880845
aF-1.089368
aF-0.968254
aF-1.800351
aF-0.963562
aF-1.043996
aF-1.162254
aF-1.516531
aF-1.467307
aF-1.045304
aF-1.105233
aF-1.358974
aF-1.046662
aF-1.594575
aF-1.174594
aF-1.106868
aF-1.680508
aF-1.045887
aF-1.521449
aF-1.67443
aF-1.283507
aF-1.789763
aF-1.072414
aF-1.141374
aF-0.946819
aF-1.743962
aF-1.16512
aF-1.78335
aF-1.505705
aF-1.043903
aF-1.132566
aF-1.69388
aF-1.511578
aF-1.634488
aF-1.050861
aF-0.876002
aF-1.036369
aF-1.554896
aF-1.078589
aF-1.110197
aF-1.152127
aF-1.409321
aF-1.183285
aF-1.093833
aF-1.043837
aF-1.793117
aF-0.916965
aF-1.508514
aF-1.635771
aF-1.03934
aF-1.036369
aF-1.449316
aF-0.880845
aF-1.147947
aF-1.247998
aF-1.719481
aF-1.722694
aF-1.254679
aF-1.346578
aF-1.20188
aF-1.764662
aF-1.775484
aF-1.154765
aF-1.627456
aF-1.538395
aF-1.747567
aF-1.592013
aF-0.913148
aF-1.610252
aF-1.134158
aF-1.74199
aF-1.442923
aF-1.132566
aF-1.147052
aF-1.060514
aF-1.143461
aF-1.526227
aF-1.043996
aF-1.444504
aF-1.452905
aF-1.804509
aF-1.491333
aF-1.804317
aF-1.478488
aF-1.017839
aF-1.303514
aF-1.049057
aF-0.916965
aF-1.118415
aF-0.888696
aF-1.454484
aF-1.587957
aF-1.471916
aF-1.680508
aF-1.119728
aF-1.800853
aF-1.467307
aF-1.660799
aF-1.770547
aF-0.899523
aF-1.087935
aF-1.719202
aF-1.654561
aF-1.072531
aF-1.443453
aF-1.085994
aF-1.521449
aF-1.814747
aF-1.165704
aF-1.55636
aF-1.457617
aF-1.183285
aF-1.071771
aF-1.479451
aF-1.482561
aF-1.101952
aF-1.660799
aF-1.67443
aF-1.468793
aF-1.065392
aF-1.162777
aF-1.492807
aF-1.477338
aF-1.056381
aF-1.20188
aF-1.575153
aF-0.880845
aF-1.594575
aF-1.658321
aF-1.143461
aF-1.105233
aF-1.126454
aF-1.044868
aF-1.775484
aF-1.45033
aF-1.254679
aF-0.885067
aF-1.054654
aF-1.800351
aF-1.4386
aF-1.16512
aF-1.439799
aF-1.759683
aF-1.763188
aF-1.214472
aF-1.092198
aF-1.396931
aF-0.878817
aF-1.449771
aF-1.279708
aF-1.044125
aF-0.947769
aF-1.457617
aF-0.885067
aF-1.67749
aF-1.56927
aF-1.049057
aF-1.409321
aF-1.036369
aF-1.014295
aF-1.78335
aF-1.548607
aF-0.9312
aF-0.87511
aF-1.056381
aF-1.781103
aF-1.738108
aF-1.698883
aF-1.087935
aF-1.047693
aF-1.228657
aF-1.566293
aF-0.878817
aF-1.158505
aF-1.065392
aF-1.614422
aF-1.045887
aF-1.119502
aF-1.712697
aF-1.153723
aF-1.545601
aF-1.12921
aF-1.477338
aF-1.747567
aF-1.325873
aF-1.457896
aF-1.658321
aF-1.781103
aF-1.093833
aF-0.874124
aF-1.55636
aF-1.613189
aF-1.730664
aF-0.929315
aF-1.044302
aF-1.808576
aF-1.800247
aF-1.183285
aF-1.495896
aF-1.065695
aF-0.929315
aF-1.627456
aF-1.382265
aF-1.491333
aF-1.804317
asS'LAnklePitch'
p29
(lp30
F0.105804
aF0.087214
aF-0.096684
aF0.084745
aF-0.015358
aF0.105804
aF0.08983
aF-0.062737
aF0.08893
aF0.095009
aF-0.096684
aF0.08893
aF0.105804
aF0.066346
aF0.101279
aF-0.091014
aF0.076412
aF0.095359
aF0.101726
aF0.088484
aF-0.096684
aF-0.096684
aF0.105804
aF0.097756
aF0.093456
aF0.020837
aF0.102576
aF0.020837
aF0.071857
aF0.090088
aF-0.001511
aF0.08893
aF0.105804
aF-0.075625
aF0.105804
aF0.045014
aF0.101726
aF-0.084265
aF-0.084265
aF-4.5e-05
aF0.105804
aF-0.053775
aF-0.079364
aF0.058084
aF0.105804
aF-0.094535
aF0.091759
aF0.068809
aF0.040308
aF0.105564
aF0.00456
aF-0.007617
aF0.091912
aF0.105804
aF0.105804
aF0.100346
aF0.085558
aF0.105804
aF0.105804
aF0.102159
aF0.105804
aF0.073301
aF-0.042378
aF0.104904
aF-0.06749
aF0.105804
aF0.080564
aF0.063738
aF0.102975
aF0.041376
aF0.104858
aF0.105804
aF0.088484
aF0.096861
aF0.105804
aF0.092158
aF0.082024
aF0.105804
aF0.105804
aF0.060984
aF-0.096133
aF0.068809
aF0.105804
aF0.045971
aF0.102124
aF0.099864
aF0.105804
aF0.105804
aF0.105804
aF-0.088636
aF0.104049
aF0.105804
aF0.105804
aF0.095359
aF0.080715
aF0.08895
aF-0.07367
aF-0.013576
aF0.102124
aF-0.096684
aF0.040308
aF0.105804
aF0.103355
aF0.097367
aF-0.046401
aF-0.057949
aF-0.071595
aF-0.04775
aF0.096357
aF-0.023188
aF0.104361
aF0.098878
aF0.078962
aF0.051844
aF0.099375
aF0.022696
aF0.089601
aF0.105804
aF-0.038791
aF-0.096684
aF0.105804
aF-0.036851
aF0.105804
aF0.105804
aF0.089009
aF0.105804
aF-0.096684
aF-0.096684
aF0.094388
aF0.083343
aF0.093916
aF0.08452
aF0.100134
aF-0.067292
aF0.105804
aF0.080715
aF0.105804
aF0.034528
aF0.08893
aF0.089403
aF-0.096684
aF-0.060831
aF0.105804
aF0.09487
aF0.085558
aF0.097873
aF0.092158
aF0.028651
aF0.105133
aF0.091021
aF0.066346
aF0.105331
aF0.08893
aF0.105804
aF0.080564
aF0.007275
aF0.105804
aF0.077218
aF-0.096684
aF0.104049
aF0.105804
aF0.08893
aF-0.096684
aF0.105804
aF0.098377
aF0.063738
aF0.08893
aF-0.019531
aF0.105804
aF0.08893
aF0.100818
aF0.105804
aF-0.04775
aF0.075331
aF0.045971
aF0.073301
aF-0.06749
aF0.105804
aF0.105804
aF0.105804
aF0.105804
aF-0.023188
aF0.087214
aF-0.057949
aF0.071857
aF0.103705
aF-0.007617
aF0.08893
aF0.105804
aF0.08893
aF-0.031026
aF0.048503
aF0.103713
aF-0.025408
aF-0.085889
aF0.067069
aF0.08893
aF-0.057949
aF0.105804
aF0.010631
aF-0.096684
aF0.067069
aF0.090373
aF-0.08852
aF0.105804
aF-0.088636
aF0.103705
aF-0.007563
aF0.092575
aF-0.09197
aF0.084745
aF0.05687
aF0.105804
aF0.095856
aF0.091379
aF0.090685
aF0.105133
aF0.105804
aF-0.052947
aF0.089237
aF0.062067
aF0.105804
aF-0.019531
aF0.071127
aF0.105804
aF-0.031188
aF0.055038
aF0.105804
aF0.089105
aF0.104646
aF0.100818
aF0.051844
aF-0.071595
aF0.086455
aF-0.06749
aF0.095856
aF0.105804
aF0.051498
aF0.077218
aF-0.079288
aF0.055038
aF0.016683
aF0.105804
aF0.032421
aF0.037268
aF0.104049
aF-0.096684
aF0.105804
aF0.022696
aF0.098878
aF-0.082792
aF0.083343
aF0.093916
asS'RHipYawPitch'
p31
(lp32
F-0.282215
aF-0.267435
aF-0.335904
aF-0.288867
aF-0.325244
aF-0.282215
aF-0.264788
aF-0.326903
aF-0.263807
aF-0.285077
aF-0.335904
aF-0.263807
aF-0.282215
aF-0.293772
aF-0.277278
aF-0.334401
aF-0.290008
aF-0.271362
aF-0.277766
aF-0.286807
aF-0.335904
aF-0.335904
aF-0.282215
aF-0.284348
aF-0.268743
aF-0.318604
aF-0.278693
aF-0.317195
aF-0.291216
aF-0.265069
aF-0.310669
aF-0.263807
aF-0.282215
aF-0.330321
aF-0.282215
aF-0.311348
aF-0.277766
aF-0.333931
aF-0.334513
aF-0.322689
aF-0.282215
aF-0.330754
aF-0.331312
aF-0.303443
aF-0.282215
aF-0.335672
aF-0.266893
aF-0.293772
aF-0.299581
aF-0.282278
aF-0.309059
aF-0.323987
aF-0.285898
aF-0.282215
aF-0.282215
aF-0.27626
aF-0.270579
aF-0.282215
aF-0.282215
aF-0.278238
aF-0.282215
aF-0.28869
aF-0.321505
aF-0.281233
aF-0.332502
aF-0.282215
aF-0.278859
aF-0.298745
aF-0.279128
aF-0.312894
aF-0.282465
aF-0.282215
aF-0.286807
aF-0.272459
aF-0.282215
aF-0.267783
aF-0.276592
aF-0.282215
aF-0.282215
aF-0.301139
aF-0.335845
aF-0.293772
aF-0.282215
aF-0.298079
aF-0.28319
aF-0.275735
aF-0.282215
aF-0.282215
aF-0.282215
aF-0.33377
aF-0.2803
aF-0.282215
aF-0.282215
aF-0.27082
aF-0.288867
aF-0.263828
aF-0.333259
aF-0.313868
aF-0.28319
aF-0.335904
aF-0.299581
aF-0.282215
aF-0.279543
aF-0.273011
aF-0.329772
aF-0.325634
aF-0.330321
aF-0.322929
aF-0.271908
aF-0.325244
aF-0.28064
aF-0.274659
aF-0.281224
aF-0.307699
aF-0.275201
aF-0.304251
aF-0.264538
aF-0.282215
aF-0.328725
aF-0.335904
aF-0.282215
aF-0.32004
aF-0.282215
aF-0.282215
aF-0.263893
aF-0.282215
aF-0.335904
aF-0.335904
aF-0.269761
aF-0.274443
aF-0.269246
aF-0.272431
aF-0.283718
aF-0.328111
aF-0.282215
aF-0.288867
aF-0.282215
aF-0.301113
aF-0.263807
aF-0.264322
aF-0.335904
aF-0.331665
aF-0.282215
aF-0.270286
aF-0.270579
aF-0.274113
aF-0.267328
aF-0.302672
aF-0.281483
aF-0.266087
aF-0.296283
aF-0.281699
aF-0.263807
aF-0.282215
aF-0.278859
aF-0.321356
aF-0.282215
aF-0.283664
aF-0.335904
aF-0.2803
aF-0.282215
aF-0.263807
aF-0.335904
aF-0.282215
aF-0.274113
aF-0.298745
aF-0.263807
aF-0.315447
aF-0.282215
aF-0.263807
aF-0.276775
aF-0.282215
aF-0.322929
aF-0.28616
aF-0.299581
aF-0.28869
aF-0.332502
aF-0.282215
aF-0.282215
aF-0.282215
aF-0.282215
aF-0.326456
aF-0.267435
aF-0.325634
aF-0.292485
aF-0.282771
aF-0.323987
aF-0.263807
aF-0.282215
aF-0.263807
aF-0.327618
aF-0.30961
aF-0.279934
aF-0.317006
aF-0.333042
aF-0.293812
aF-0.263807
aF-0.326903
aF-0.282215
aF-0.30745
aF-0.335904
aF-0.292485
aF-0.265381
aF-0.335001
aF-0.282215
aF-0.33377
aF-0.28319
aF-0.312274
aF-0.267783
aF-0.335389
aF-0.287798
aF-0.295189
aF-0.282215
aF-0.271362
aF-0.266478
aF-0.265721
aF-0.281483
aF-0.282215
aF-0.324307
aF-0.264141
aF-0.293812
aF-0.282215
aF-0.315447
aF-0.291235
aF-0.282215
aF-0.318538
aF-0.303443
aF-0.282215
aF-0.263997
aF-0.280952
aF-0.276775
aF-0.307699
aF-0.329252
aF-0.268907
aF-0.332502
aF-0.271362
aF-0.282215
aF-0.296614
aF-0.283664
aF-0.333931
aF-0.305636
aF-0.305845
aF-0.282215
aF-0.31577
aF-0.314335
aF-0.2803
aF-0.335904
aF-0.282215
aF-0.305845
aF-0.274659
aF-0.332221
aF-0.274443
aF-0.269246
asS'HeadPitch'
p33
(lp34
F-0.369736
aF-0.238097
aF-0.266959
aF0.29855
aF0.07899
aF-0.324374
aF-0.096436
aF-0.085615
aF-0.264986
aF0.217936
aF-0.266959
aF-0.266959
aF-0.221162
aF-0.014474
aF-0.074579
aF-0.234898
aF0.331651
aF0.121073
aF-0.098945
aF0.275307
aF-0.250216
aF-0.264986
aF-0.369124
aF0.184807
aF0.105936
aF0.122678
aF-0.148113
aF0.122678
aF0.340509
aF-0.07214
aF0.185287
aF-0.266959
aF-0.356295
aF-0.151803
aF-0.3077
aF0.093816
aF-0.098945
aF-0.120394
aF-0.143675
aF0.105936
aF-0.336139
aF-0.023887
aF-0.171563
aF0.038516
aF-0.24885
aF-0.206078
aF0.042575
aF-0.033408
aF0.311513
aF-0.005276
aF0.207402
aF0.093816
aF0.248269
aF-0.369736
aF-0.31758
aF-0.027381
aF-0.213218
aF-0.369736
aF-0.083383
aF-0.123529
aF-0.369731
aF-0.07214
aF0.012895
aF-0.301819
aF-0.07214
aF-0.369736
aF-0.14822
aF0.00394
aF-0.172478
aF0.103745
aF0.034333
aF-0.34117
aF0.275307
aF0.09875
aF-0.292619
aF0.07899
aF-0.165942
aF-0.369736
aF-0.120882
aF0.021661
aF-0.223271
aF-0.033408
aF-0.369422
aF0.322636
aF0.112162
aF-0.004985
aF-0.364838
aF-0.356295
aF-0.190271
aF-0.221734
aF-0.242073
aF-0.361272
aF-0.369736
aF0.121073
aF0.317498
aF-0.223271
aF-0.096436
aF0.138388
aF0.112162
aF-0.266959
aF0.311513
aF-0.336139
aF-0.196406
aF0.086203
aF-0.000605
aF-0.061773
aF-0.130788
aF-0.012361
aF0.10889
aF0.061797
aF-0.263374
aF0.036305
aF-0.129806
aF0.068937
aF0.016317
aF0.266524
aF-0.120394
aF-0.345671
aF0.021661
aF-0.266959
aF-0.156678
aF0.038307
aF-0.368056
aF-0.190271
aF-0.206078
aF-0.369736
aF-0.266959
aF-0.266959
aF0.120705
aF-0.182797
aF0.115012
aF-0.198613
aF0.149382
aF-0.108673
aF-0.369604
aF0.317498
aF-0.353204
aF0.298349
aF-0.266959
aF-0.143675
aF-0.259292
aF-0.047844
aF-0.083383
aF0.122678
aF-0.213218
aF0.071467
aF0.061797
aF0.2833
aF-0.318525
aF-0.000605
aF-0.014474
aF-0.333261
aF-0.266959
aF-0.363216
aF-0.14822
aF0.115012
aF-0.292619
aF-0.110873
aF-0.266959
aF-0.242073
aF-0.366165
aF-0.250216
aF-0.250216
aF-0.358975
aF0.054761
aF0.00394
aF-0.259292
aF0.113917
aF-0.24885
aF-0.238097
aF-0.050652
aF-0.369124
aF-0.012361
aF-0.091593
aF0.322636
aF-0.07214
aF-0.07214
aF-0.156678
aF-0.044681
aF-0.349673
aF-0.369736
aF0.061797
aF-0.238097
aF-0.061773
aF0.340509
aF0.073646
aF0.093816
aF-0.266959
aF-0.272835
aF-0.266959
aF0.042575
aF0.082156
aF-0.219677
aF0.088976
aF-0.206685
aF0.342186
aF-0.266959
aF-0.061773
aF-0.369736
aF0.228418
aF-0.266959
aF0.343573
aF-0.047844
aF-0.165942
aF-0.369604
aF-0.221734
aF0.073646
aF0.16223
aF0.07899
aF-0.186855
aF0.29855
aF0.33813
aF-0.368678
aF0.116404
aF0.021661
aF-0.023887
aF-0.318525
aF-0.369697
aF-0.037302
aF-0.165942
aF0.342186
aF-0.221162
aF0.113917
aF-0.052687
aF-0.369736
aF0.06372
aF0.038516
aF-0.33055
aF-0.186855
aF-0.283363
aF-0.050652
aF0.068937
aF-0.130788
aF-0.226436
aF-0.07214
aF0.116404
aF-0.361272
aF0.33156
aF-0.110873
aF-0.120394
aF0.054333
aF0.248178
aF-0.369736
aF0.117714
aF0.111768
aF-0.242073
aF-0.238097
aF-0.367228
aF0.248178
aF0.036305
aF-0.189909
aF-0.182797
aF0.115012
asS'LElbowRoll'
p35
(lp36
F-0.441487
aF-0.518691
aF-0.519992
aF-0.560743
aF-0.4894
aF-0.431159
aF-0.503453
aF-0.540817
aF-0.515598
aF-0.529567
aF-0.520894
aF-0.517995
aF-0.444227
aF-0.50665
aF-0.463394
aF-0.526057
aF-0.566968
aF-0.48142
aF-0.461401
aF-0.546208
aF-0.51377
aF-0.51724
aF-0.438837
aF-0.520737
aF-0.487553
aF-0.488363
aF-0.457431
aF-0.488961
aF-0.572383
aF-0.50182
aF-0.573007
aF-0.517231
aF-0.432186
aF-0.533673
aF-0.432558
aF-0.493461
aF-0.461401
aF-0.503409
aF-0.505294
aF-0.488185
aF-0.430882
aF-0.496089
aF-0.531683
aF-0.499884
aF-0.437682
aF-0.51067
aF-0.493548
aF-0.50665
aF-0.585533
aF-0.476475
aF-0.575558
aF-0.488667
aF-0.538096
aF-0.442001
aF-0.431702
aF-0.467297
aF-0.517916
aF-0.441031
aF-0.46852
aF-0.459407
aF-0.440457
aF-0.509749
aF-0.552295
aF-0.446033
aF-0.497851
aF-0.44076
aF-0.514801
aF-0.503313
aF-0.455497
aF-0.492085
aF-0.484907
aF-0.430959
aF-0.546208
aF-0.478878
aF-0.435465
aF-0.49042
aF-0.515773
aF-0.442137
aF-0.454592
aF-0.5016
aF-0.512285
aF-0.50665
aF-0.439313
aF-0.585616
aF-0.502667
aF-0.469176
aF-0.435627
aF-0.432788
aF-0.444227
aF-0.527097
aF-0.450179
aF-0.434159
aF-0.442257
aF-0.482596
aF-0.560743
aF-0.511956
aF-0.501521
aF-0.567445
aF-0.502667
aF-0.519442
aF-0.585533
aF-0.430827
aF-0.453628
aF-0.477469
aF-0.494433
aF-0.543523
aF-0.533673
aF-0.549287
aF-0.48019
aF-0.490366
aF-0.448641
aF-0.472732
aF-0.513706
aF-0.49654
aF-0.470991
aF-0.581914
aF-0.505046
aF-0.431248
aF-0.492909
aF-0.520894
aF-0.454592
aF-0.555348
aF-0.437709
aF-0.448895
aF-0.510752
aF-0.442001
aF-0.520473
aF-0.518811
aF-0.484971
aF-0.516618
aF-0.486228
aF-0.517332
aF-0.511728
aF-0.538259
aF-0.439738
aF-0.560743
aF-0.432186
aF-0.584751
aF-0.516223
aF-0.506584
aF-0.516257
aF-0.497851
aF-0.461179
aF-0.483768
aF-0.517916
aF-0.474395
aF-0.491956
aF-0.583493
aF-0.444993
aF-0.496828
aF-0.505003
aF-0.444137
aF-0.517639
aF-0.434889
aF-0.514801
aF-0.487971
aF-0.433788
aF-0.512494
aF-0.518083
aF-0.450179
aF-0.436354
aF-0.514027
aF-0.515102
aF-0.433453
aF-0.474395
aF-0.503313
aF-0.514873
aF-0.564496
aF-0.437682
aF-0.513051
aF-0.465365
aF-0.438305
aF-0.549287
aF-0.511172
aF-0.585533
aF-0.509749
aF-0.499659
aF-0.448895
aF-0.46852
aF-0.431665
aF-0.441272
aF-0.490366
aF-0.518691
aF-0.543523
aF-0.576919
aF-0.493683
aF-0.488667
aF-0.518578
aF-0.435465
aF-0.518306
aF-0.491544
aF-0.494959
aF-0.451848
aF-0.561477
aF-0.528384
aF-0.580525
aF-0.516763
aF-0.540817
aF-0.44185
aF-0.577915
aF-0.518083
aF-0.576919
aF-0.500162
aF-0.50715
aF-0.439738
aF-0.527097
aF-0.502667
aF-0.570292
aF-0.49042
aF-0.50895
aF-0.553792
aF-0.583171
aF-0.438305
aF-0.48142
aF-0.495185
aF-0.498492
aF-0.444993
aF-0.440118
aF-0.546355
aF-0.508055
aF-0.580525
aF-0.440553
aF-0.564496
aF-0.508238
aF-0.44076
aF-0.558418
aF-0.499884
aF-0.430882
aF-0.509448
aF-0.447252
aF-0.465365
aF-0.49654
aF-0.535871
aF-0.518368
aF-0.499659
aF-0.48142
aF-0.434159
aF-0.584856
aF-0.512494
aF-0.503409
aF-0.49819
aF-0.580044
aF-0.441679
aF-0.489803
aF-0.490857
aF-0.450179
aF-0.51377
aF-0.437053
aF-0.580044
aF-0.472732
aF-0.529916
aF-0.516618
aF-0.486228
asS'RShoulderRoll'
p37
(lp38
F-0.103604
aF-0.121723
aF-0.129418
aF-0.068862
aF-0.158938
aF-0.081439
aF-0.139267
aF-0.114499
aF-0.125815
aF-0.067855
aF-0.128382
aF-0.122773
aF-0.072394
aF-0.140038
aF-0.130606
aF-0.123871
aF-0.069415
aF-0.153292
aF-0.127761
aF-0.068134
aF-0.134519
aF-0.132415
aF-0.100557
aF-0.067862
aF-0.152858
aF-0.161319
aF-0.122244
aF-0.161078
aF-0.070103
aF-0.140946
aF-0.090407
aF-0.123766
aF-0.092486
aF-0.119366
aF-0.078382
aF-0.157304
aF-0.127761
aF-0.145361
aF-0.143609
aF-0.160544
aF-0.084706
aF-0.152033
aF-0.120637
aF-0.149403
aF-0.074464
aF-0.1386
aF-0.148467
aF-0.140038
aF-0.077177
aF-0.06908
aF-0.088349
aF-0.15984
aF-0.067942
aF-0.104216
aF-0.079875
aF-0.136257
aF-0.122832
aF-0.103067
aF-0.069552
aF-0.12496
aF-0.102399
aF-0.135466
aF-0.106065
aF-0.108242
aF-0.148814
aF-0.102751
aF-0.127655
aF-0.144709
aF-0.119653
aF-0.158678
aF-0.068689
aF-0.086362
aF-0.068134
aF-0.151411
aF-0.075666
aF-0.151016
aF-0.126131
aF-0.104378
aF-0.070768
aF-0.146991
aF-0.137116
aF-0.140038
aF-0.101091
aF-0.075649
aF-0.068128
aF-0.138971
aF-0.096926
aF-0.092486
aF-0.072394
aF-0.123333
aF-0.112936
aF-0.094912
aF-0.104523
aF-0.153761
aF-0.068862
aF-0.12995
aF-0.147105
aF-0.094641
aF-0.068128
aF-0.130039
aF-0.077177
aF-0.084706
aF-0.117218
aF-0.149979
aF-0.153681
aF-0.112564
aF-0.117913
aF-0.108318
aF-0.152513
aF-0.157857
aF-0.111129
aF-0.143948
aF-0.129372
aF-0.153774
aF-0.14155
aF-0.082432
aF-0.13758
aF-0.087998
aF-0.155212
aF-0.128382
aF-0.070768
aF-0.103765
aF-0.099313
aF-0.072394
aF-0.13128
aF-0.104216
aF-0.128868
aF-0.130739
aF-0.153827
aF-0.124813
aF-0.153462
aF-0.123712
aF-0.067956
aF-0.116287
aF-0.101573
aF-0.068862
aF-0.091092
aF-0.078828
aF-0.125046
aF-0.135911
aF-0.133409
aF-0.150463
aF-0.070112
aF-0.153933
aF-0.122832
aF-0.148214
aF-0.14982
aF-0.080585
aF-0.107161
aF-0.145718
aF-0.14238
aF-0.106309
aF-0.123238
aF-0.095966
aF-0.127655
aF-0.161036
aF-0.076975
aF-0.131262
aF-0.131528
aF-0.112936
aF-0.097799
aF-0.127655
aF-0.134519
aF-0.093756
aF-0.146121
aF-0.144709
aF-0.126682
aF-0.096851
aF-0.074464
aF-0.128742
aF-0.133453
aF-0.100557
aF-0.108318
aF-0.133302
aF-0.077177
aF-0.135466
aF-0.148814
aF-0.071527
aF-0.069552
aF-0.089585
aF-0.10335
aF-0.157857
aF-0.121723
aF-0.112564
aF-0.070103
aF-0.068373
aF-0.15984
aF-0.122006
aF-0.075666
aF-0.122365
aF-0.156609
aF-0.155661
aF-0.114972
aF-0.099129
aF-0.122619
aF-0.071897
aF-0.124366
aF-0.112564
aF-0.104034
aF-0.086328
aF-0.131528
aF-0.070929
aF-0.142596
aF-0.141876
aF-0.101573
aF-0.123333
aF-0.068128
aF-0.092501
aF-0.151016
aF-0.140195
aF-0.068437
aF-0.073007
aF-0.099966
aF-0.153292
aF-0.147149
aF-0.144193
aF-0.107161
aF-0.102008
aF-0.110497
aF-0.134285
aF-0.071897
aF-0.073372
aF-0.096851
aF-0.137722
aF-0.102751
aF-0.101443
aF-0.149403
aF-0.083057
aF-0.132732
aF-0.109564
aF-0.133453
aF-0.153774
aF-0.117913
aF-0.122171
aF-0.148814
aF-0.153292
aF-0.094912
aF-0.074258
aF-0.131262
aF-0.145361
aF-0.151677
aF-0.084351
aF-0.103831
aF-0.160564
aF-0.159766
aF-0.112936
aF-0.135754
aF-0.098593
aF-0.084351
aF-0.143948
aF-0.121722
aF-0.124813
aF-0.153462
asS'LAnkleRoll'
p39
(lp40
F-0.02757
aF-0.095365
aF-0.072056
aF-0.032197
aF-0.060521
aF-0.02757
aF-0.095824
aF-0.064598
aF-0.099668
aF-0.029942
aF-0.072056
aF-0.099668
aF-0.02757
aF-0.065225
aF-0.046906
aF-0.07081
aF-0.034027
aF-0.072197
aF-0.044994
aF-0.031375
aF-0.072056
aF-0.072056
aF-0.02757
aF-0.029338
aF-0.080332
aF-0.056432
aF-0.041362
aF-0.056432
aF-0.035028
aF-0.094722
aF-0.051147
aF-0.099668
aF-0.02757
aF-0.06743
aF-0.02757
aF-0.055374
aF-0.044994
aF-0.070164
aF-0.070164
aF-0.058651
aF-0.02757
aF-0.065709
aF-0.068251
aF-0.059485
aF-0.02757
aF-0.071724
aF-0.087581
aF-0.067483
aF-0.041959
aF-0.027623
aF-0.049813
aF-0.059557
aF-0.030622
aF-0.02757
aF-0.02757
aF-0.050891
aF-0.091731
aF-0.02757
aF-0.02757
aF-0.043143
aF-0.02757
aF-0.072333
aF-0.060125
aF-0.031414
aF-0.067681
aF-0.02757
aF-0.082518
aF-0.063119
aF-0.039657
aF-0.055182
aF-0.027778
aF-0.02757
aF-0.031375
aF-0.065781
aF-0.02757
aF-0.085876
aF-0.084988
aF-0.02757
aF-0.02757
aF-0.061196
aF-0.071971
aF-0.067483
aF-0.02757
aF-0.040715
aF-0.028379
aF-0.052949
aF-0.02757
aF-0.02757
aF-0.02757
aF-0.070288
aF-0.035068
aF-0.02757
aF-0.02757
aF-0.072197
aF-0.033082
aF-0.099583
aF-0.068587
aF-0.053798
aF-0.028379
aF-0.072056
aF-0.041959
aF-0.02757
aF-0.038035
aF-0.063619
aF-0.064671
aF-0.063546
aF-0.066544
aF-0.061305
aF-0.067936
aF-0.061529
aF-0.033737
aF-0.057161
aF-0.079987
aF-0.056822
aF-0.055041
aF-0.045829
aF-0.096803
aF-0.02757
aF-0.063619
aF-0.072056
aF-0.02757
aF-0.058911
aF-0.02757
aF-0.02757
aF-0.099331
aF-0.02757
aF-0.072056
aF-0.072056
aF-0.076348
aF-0.087367
aF-0.078364
aF-0.089625
aF-0.028816
aF-0.065599
aF-0.02757
aF-0.033082
aF-0.02757
aF-0.043229
aF-0.099668
aF-0.097649
aF-0.072056
aF-0.066717
aF-0.02757
aF-0.07429
aF-0.091731
aF-0.061457
aF-0.085876
aF-0.04452
aF-0.030436
aF-0.090735
aF-0.065225
aF-0.029589
aF-0.099668
aF-0.02757
aF-0.082518
aF-0.057819
aF-0.02757
aF-0.077425
aF-0.072056
aF-0.035068
aF-0.02757
aF-0.099668
aF-0.072056
aF-0.02757
aF-0.059302
aF-0.063119
aF-0.099668
aF-0.055106
aF-0.02757
aF-0.099668
aF-0.048874
aF-0.02757
aF-0.061305
aF-0.074864
aF-0.040715
aF-0.072333
aF-0.067681
aF-0.02757
aF-0.02757
aF-0.02757
aF-0.02757
aF-0.061529
aF-0.095365
aF-0.063546
aF-0.035028
aF-0.028031
aF-0.059557
aF-0.099668
aF-0.02757
aF-0.099668
aF-0.062567
aF-0.055931
aF-0.036503
aF-0.056397
aF-0.069684
aF-0.03608
aF-0.099668
aF-0.063546
aF-0.02757
aF-0.048479
aF-0.072056
aF-0.03608
aF-0.093501
aF-0.070806
aF-0.02757
aF-0.070288
aF-0.028031
aF-0.052477
aF-0.084095
aF-0.071331
aF-0.032197
aF-0.038321
aF-0.02757
aF-0.070077
aF-0.089203
aF-0.09217
aF-0.030436
aF-0.02757
aF-0.062447
aF-0.098358
aF-0.037179
aF-0.02757
aF-0.055106
aF-0.069862
aF-0.02757
aF-0.057667
aF-0.058017
aF-0.02757
aF-0.098921
aF-0.032517
aF-0.048874
aF-0.056822
aF-0.066544
aF-0.093654
aF-0.067681
aF-0.070077
aF-0.02757
aF-0.039501
aF-0.077425
aF-0.06942
aF-0.058017
aF-0.04715
aF-0.02757
aF-0.055514
aF-0.055268
aF-0.035068
aF-0.072056
aF-0.02757
aF-0.045829
aF-0.057161
aF-0.069004
aF-0.087367
aF-0.078364
asS'LHipYawPitch'
p41
(lp42
F-0.282215
aF-0.267435
aF-0.335904
aF-0.287798
aF-0.325244
aF-0.282215
aF-0.264788
aF-0.326903
aF-0.263807
aF-0.285077
aF-0.335904
aF-0.263807
aF-0.282215
aF-0.296283
aF-0.277278
aF-0.334401
aF-0.290008
aF-0.27082
aF-0.277766
aF-0.286807
aF-0.335904
aF-0.335904
aF-0.282215
aF-0.284348
aF-0.268743
aF-0.318604
aF-0.278693
aF-0.318604
aF-0.291216
aF-0.265069
aF-0.310669
aF-0.263807
aF-0.282215
aF-0.330321
aF-0.282215
aF-0.311348
aF-0.277766
aF-0.333931
aF-0.334513
aF-0.322689
aF-0.282215
aF-0.330754
aF-0.331312
aF-0.303443
aF-0.282215
aF-0.335672
aF-0.266893
aF-0.293772
aF-0.299581
aF-0.282278
aF-0.309059
aF-0.323987
aF-0.285898
aF-0.282215
aF-0.282215
aF-0.27626
aF-0.270579
aF-0.282215
aF-0.282215
aF-0.278238
aF-0.282215
aF-0.28869
aF-0.321505
aF-0.281233
aF-0.332502
aF-0.282215
aF-0.278859
aF-0.298745
aF-0.279128
aF-0.312894
aF-0.282465
aF-0.282215
aF-0.286807
aF-0.272459
aF-0.282215
aF-0.267328
aF-0.276592
aF-0.282215
aF-0.282215
aF-0.301139
aF-0.335845
aF-0.293772
aF-0.282215
aF-0.298079
aF-0.28319
aF-0.275735
aF-0.282215
aF-0.282215
aF-0.282215
aF-0.33377
aF-0.2803
aF-0.282215
aF-0.282215
aF-0.27082
aF-0.288867
aF-0.263828
aF-0.333259
aF-0.313868
aF-0.28319
aF-0.335904
aF-0.299581
aF-0.282215
aF-0.279543
aF-0.273011
aF-0.329772
aF-0.325634
aF-0.329252
aF-0.322929
aF-0.271908
aF-0.326456
aF-0.28064
aF-0.274659
aF-0.281224
aF-0.307699
aF-0.275201
aF-0.304251
aF-0.264538
aF-0.282215
aF-0.328725
aF-0.335904
aF-0.282215
aF-0.32004
aF-0.282215
aF-0.282215
aF-0.263893
aF-0.282215
aF-0.335904
aF-0.335904
aF-0.269761
aF-0.274443
aF-0.269246
aF-0.272431
aF-0.283718
aF-0.328111
aF-0.282215
aF-0.288867
aF-0.282215
aF-0.301113
aF-0.263807
aF-0.264322
aF-0.335904
aF-0.331665
aF-0.282215
aF-0.270286
aF-0.270579
aF-0.273562
aF-0.267328
aF-0.302672
aF-0.281483
aF-0.266087
aF-0.296283
aF-0.281699
aF-0.263807
aF-0.282215
aF-0.278859
aF-0.321356
aF-0.282215
aF-0.283664
aF-0.335904
aF-0.2803
aF-0.282215
aF-0.263807
aF-0.335904
aF-0.282215
aF-0.274113
aF-0.298745
aF-0.263807
aF-0.315447
aF-0.282215
aF-0.263807
aF-0.276775
aF-0.282215
aF-0.322929
aF-0.28616
aF-0.298079
aF-0.28869
aF-0.332502
aF-0.282215
aF-0.282215
aF-0.282215
aF-0.282215
aF-0.326456
aF-0.267435
aF-0.325634
aF-0.291216
aF-0.282771
aF-0.323987
aF-0.263807
aF-0.282215
aF-0.263807
aF-0.327618
aF-0.30961
aF-0.279934
aF-0.317006
aF-0.333042
aF-0.293812
aF-0.263807
aF-0.325634
aF-0.282215
aF-0.30745
aF-0.335904
aF-0.292485
aF-0.265381
aF-0.335001
aF-0.282215
aF-0.33377
aF-0.282771
aF-0.312274
aF-0.267783
aF-0.335389
aF-0.287798
aF-0.295189
aF-0.282215
aF-0.271362
aF-0.266478
aF-0.265721
aF-0.281483
aF-0.282215
aF-0.324307
aF-0.264141
aF-0.293812
aF-0.282215
aF-0.315447
aF-0.291235
aF-0.282215
aF-0.318538
aF-0.305636
aF-0.282215
aF-0.263997
aF-0.280952
aF-0.276775
aF-0.307699
aF-0.329252
aF-0.268907
aF-0.332502
aF-0.271362
aF-0.282215
aF-0.296614
aF-0.283664
aF-0.333931
aF-0.305636
aF-0.305845
aF-0.282215
aF-0.31577
aF-0.314335
aF-0.2803
aF-0.335904
aF-0.282215
aF-0.304251
aF-0.274659
aF-0.332221
aF-0.274443
aF-0.269246
asS'RAnklePitch'
p43
(lp44
F0.108956
aF0.088426
aF-0.068988
aF0.09045
aF-0.023795
aF0.108956
aF0.094434
aF-0.039156
aF0.093616
aF0.099469
aF-0.068988
aF0.093616
aF0.108956
aF0.044326
aF0.104842
aF-0.064006
aF0.083127
aF0.099461
aF0.105249
aF0.093735
aF-0.068988
aF-0.068988
aF0.108956
aF0.101884
aF0.09773
aF-0.001322
aF0.106022
aF-0.001322
aF0.079124
aF0.094668
aF0.014649
aF0.093616
aF0.108956
aF-0.050482
aF0.108956
aF0.0172
aF0.105249
aF-0.062382
aF-0.062382
aF-0.014604
aF0.108956
aF-0.045733
aF-0.053767
aF0.032171
aF0.108956
aF-0.067855
aF0.096188
aF0.048418
aF0.051399
aF0.108745
aF0.019984
aF-0.019191
aF0.096748
aF0.108956
aF0.108956
aF0.103994
aF0.083862
aF0.108956
aF0.108956
aF0.105643
aF0.108956
aF0.056507
aF-0.021265
aF0.108138
aF-0.053293
aF0.108956
aF0.071595
aF0.040237
aF0.106384
aF0.013848
aF0.108125
aF0.108956
aF0.093735
aF0.100826
aF0.108956
aF0.09655
aF0.07499
aF0.108956
aF0.108956
aF0.036177
aF-0.068698
aF0.048418
aF0.108956
aF0.056376
aF0.105722
aF0.103556
aF0.108956
aF0.108956
aF0.108956
aF-0.061916
aF0.107361
aF0.108956
aF0.108956
aF0.099461
aF0.086908
aF0.093634
aF-0.056661
aF0.004046
aF0.105722
aF-0.068988
aF0.051399
aF0.108956
aF0.106729
aF0.101286
aF-0.041616
aF-0.034948
aF-0.04694
aF-0.021265
aF0.100368
aF-0.028377
aF0.107644
aF0.102204
aF0.068023
aF0.024424
aF0.103111
aF0.035922
aF0.094226
aF0.108956
aF-0.037326
aF-0.068988
aF0.108956
aF-0.016408
aF0.108956
aF0.108956
aF0.093688
aF0.108956
aF-0.068988
aF-0.068988
aF0.098578
aF0.078183
aF0.098149
aF0.081149
aF0.103974
aF-0.043159
aF0.108956
aF0.086908
aF0.108956
aF0.04632
aF0.093616
aF0.094045
aF-0.068988
aF-0.049638
aF0.108956
aF0.099016
aF0.083862
aF0.101746
aF0.09655
aF0.041155
aF0.108346
aF0.095517
aF0.044326
aF0.108526
aF0.093616
aF0.108956
aF0.071595
aF-0.010071
aF0.108956
aF0.064301
aF-0.068988
aF0.107361
aF0.108956
aF0.093616
aF-0.068988
aF0.108956
aF0.102204
aF0.040237
aF0.093616
aF-0.001187
aF0.108956
aF0.093616
aF0.104423
aF0.108956
aF-0.025985
aF0.060454
aF0.056376
aF0.056507
aF-0.053293
aF0.108956
aF0.108956
aF0.108956
aF0.108956
aF-0.028377
aF0.088426
aF-0.034948
aF0.079124
aF0.107111
aF-0.019191
aF0.093616
aF0.108956
aF0.093616
aF-0.032901
aF0.020733
aF0.107055
aF-0.006352
aF-0.059501
aF0.074916
aF0.093616
aF-0.034948
aF0.108956
aF0.025319
aF-0.068988
aF0.074916
aF0.094928
aF-0.064659
aF0.108956
aF-0.061916
aF0.107111
aF0.00933
aF0.096929
aF-0.066496
aF0.09045
aF0.065953
aF0.108956
aF0.099912
aF0.095843
aF0.095211
aF0.108346
aF0.108956
aF-0.030552
aF0.093895
aF0.07052
aF0.108956
aF-0.001187
aF0.052487
aF0.108956
aF-0.011431
aF0.028245
aF0.108956
aF0.093775
aF0.107904
aF0.104423
aF0.024424
aF-0.04694
aF0.086296
aF-0.053293
aF0.099912
aF0.108956
aF0.061233
aF0.064301
aF-0.059703
aF0.028245
aF0.030638
aF0.108956
aF0.006753
aF0.010442
aF0.107055
aF-0.068988
aF0.108956
aF0.035922
aF0.10266
aF-0.05678
aF0.078183
aF0.098149
asS'LHipRoll'
p45
(lp46
F0.016916
aF0.102478
aF0.085946
aF0.024095
aF0.046098
aF0.016916
aF0.105501
aF0.074373
aF0.11049
aF0.020596
aF0.085946
aF0.11049
aF0.016916
aF0.046355
aF0.042012
aF0.084013
aF0.026936
aF0.074836
aF0.039529
aF0.022821
aF0.085946
aF0.085946
aF0.016916
aF0.019659
aF0.085394
aF0.031972
aF0.034816
aF0.031972
aF0.028489
aF0.10407
aF0.053501
aF0.11049
aF0.016916
aF0.078767
aF0.016916
aF0.028012
aF0.039529
aF0.076838
aF0.07941
aF0.039638
aF0.016916
aF0.064019
aF0.080041
aF0.035666
aF0.016916
aF0.084799
aF0.094802
aF0.050559
aF0.039244
aF0.016998
aF0.051431
aF0.042767
aF0.021652
aF0.016916
aF0.016916
aF0.047183
aF0.09571
aF0.016916
aF0.016916
aF0.037128
aF0.016916
aF0.059589
aF0.067433
aF0.021905
aF0.070833
aF0.016916
aF0.078555
aF0.042434
aF0.032603
aF0.027654
aF0.017238
aF0.016916
aF0.022821
aF0.066509
aF0.016916
aF0.09259
aF0.083155
aF0.016916
aF0.016916
aF0.038852
aF0.085651
aF0.050559
aF0.016916
aF0.037313
aF0.018171
aF0.049854
aF0.016916
aF0.016916
aF0.016916
aF0.083202
aF0.026648
aF0.016916
aF0.016916
aF0.074836
aF0.025469
aF0.110379
aF0.073962
aF0.057614
aF0.018171
aF0.085946
aF0.039244
aF0.016916
aF0.030498
aF0.063703
aF0.060435
aF0.072741
aF0.077393
aF0.069264
aF0.069305
aF0.049581
aF0.02492
aF0.055322
aF0.073842
aF0.030708
aF0.05257
aF0.045248
aF0.106771
aF0.016916
aF0.0568
aF0.085946
aF0.016916
aF0.065548
aF0.016916
aF0.016916
aF0.110053
aF0.016916
aF0.085946
aF0.085946
aF0.080223
aF0.087585
aF0.08284
aF0.091789
aF0.018849
aF0.075926
aF0.016916
aF0.025469
aF0.016916
aF0.041215
aF0.11049
aF0.10787
aF0.085946
aF0.067502
aF0.016916
aF0.077552
aF0.09571
aF0.060897
aF0.09259
aF0.043218
aF0.020635
aF0.098896
aF0.046355
aF0.019536
aF0.11049
aF0.016916
aF0.078555
aF0.036762
aF0.016916
aF0.069072
aF0.085946
aF0.026648
aF0.016916
aF0.11049
aF0.085946
aF0.016916
aF0.058101
aF0.042434
aF0.11049
aF0.059644
aF0.016916
aF0.11049
aF0.044566
aF0.016916
aF0.069264
aF0.064302
aF0.037313
aF0.059589
aF0.070833
aF0.016916
aF0.016916
aF0.016916
aF0.016916
aF0.049581
aF0.102478
aF0.072741
aF0.028489
aF0.017632
aF0.042767
aF0.11049
aF0.016916
aF0.11049
aF0.053165
aF0.029049
aF0.02851
aF0.061647
aF0.082266
aF0.031826
aF0.11049
aF0.072741
aF0.016916
aF0.049361
aF0.085946
aF0.030121
aF0.102486
aF0.081628
aF0.016916
aF0.083202
aF0.017632
aF0.055564
aF0.090278
aF0.083441
aF0.024095
aF0.033598
aF0.016916
aF0.072084
aF0.096908
aF0.100758
aF0.020635
aF0.016916
aF0.071035
aF0.108789
aF0.031826
aF0.016916
aF0.059644
aF0.05499
aF0.016916
aF0.063618
aF0.032933
aF0.016916
aF0.10952
aF0.023336
aF0.044566
aF0.030708
aF0.077393
aF0.099292
aF0.070833
aF0.072084
aF0.016916
aF0.035429
aF0.069072
aF0.076838
aF0.032933
aF0.047298
aF0.016916
aF0.028801
aF0.027949
aF0.026648
aF0.085946
aF0.016916
aF0.045248
aF0.055322
aF0.08121
aF0.087585
aF0.08284
asS'RHipRoll'
p47
(lp48
F-0.15029
aF-0.092009
aF-0.11961
aF-0.147099
aF-0.102406
aF-0.15029
aF-0.095106
aF-0.124753
aF-0.091998
aF-0.148654
aF-0.11961
aF-0.091998
aF-0.15029
aF-0.092507
aF-0.134657
aF-0.120469
aF-0.145837
aF-0.114209
aF-0.136203
aF-0.147666
aF-0.11961
aF-0.11961
aF-0.15029
aF-0.149071
aF-0.107631
aF-0.095955
aF-0.139139
aF-0.095955
aF-0.145147
aF-0.095997
aF-0.13403
aF-0.091998
aF-0.15029
aF-0.122801
aF-0.15029
aF-0.093362
aF-0.136203
aF-0.116832
aF-0.116832
aF-0.099515
aF-0.15029
aF-0.110231
aF-0.122234
aF-0.092806
aF-0.15029
aF-0.119124
aF-0.101771
aF-0.092427
aF-0.140366
aF-0.150254
aF-0.13495
aF-0.100922
aF-0.148185
aF-0.15029
aF-0.15029
aF-0.131435
aF-0.092028
aF-0.15029
aF-0.15029
aF-0.137699
aF-0.15029
aF-0.092293
aF-0.127838
aF-0.147182
aF-0.113164
aF-0.15029
aF-0.092114
aF-0.092597
aF-0.140517
aF-0.093532
aF-0.150147
aF-0.15029
aF-0.147666
aF-0.119396
aF-0.15029
aF-0.103149
aF-0.092085
aF-0.15029
aF-0.15029
aF-0.092696
aF-0.119485
aF-0.092427
aF-0.15029
aF-0.141224
aF-0.149732
aF-0.129771
aF-0.15029
aF-0.15029
aF-0.15029
aF-0.120829
aF-0.144228
aF-0.15029
aF-0.15029
aF-0.114209
aF-0.146489
aF-0.092067
aF-0.114505
aF-0.132202
aF-0.149732
aF-0.11961
aF-0.140366
aF-0.15029
aF-0.141829
aF-0.121144
aF-0.10868
aF-0.125479
aF-0.123411
aF-0.127838
aF-0.117654
aF-0.103944
aF-0.145304
aF-0.126365
aF-0.092149
aF-0.09306
aF-0.128079
aF-0.137698
aF-0.094315
aF-0.15029
aF-0.107102
aF-0.11961
aF-0.15029
aF-0.128676
aF-0.15029
aF-0.15029
aF-0.09227
aF-0.15029
aF-0.11961
aF-0.11961
aF-0.110853
aF-0.092062
aF-0.109223
aF-0.092043
aF-0.149431
aF-0.124063
aF-0.15029
aF-0.146489
aF-0.15029
aF-0.139491
aF-0.091998
aF-0.09363
aF-0.11961
aF-0.111732
aF-0.15029
aF-0.112517
aF-0.092028
aF-0.122892
aF-0.103149
aF-0.1386
aF-0.147973
aF-0.099221
aF-0.092507
aF-0.148658
aF-0.091998
aF-0.15029
aF-0.092114
aF-0.098204
aF-0.15029
aF-0.09219
aF-0.11961
aF-0.144228
aF-0.15029
aF-0.091998
aF-0.11961
aF-0.15029
aF-0.124634
aF-0.092597
aF-0.091998
aF-0.1313
aF-0.15029
aF-0.091998
aF-0.133065
aF-0.15029
aF-0.127024
aF-0.092238
aF-0.141224
aF-0.092293
aF-0.113164
aF-0.15029
aF-0.15029
aF-0.15029
aF-0.15029
aF-0.103944
aF-0.092009
aF-0.125479
aF-0.145147
aF-0.149972
aF-0.100922
aF-0.091998
aF-0.15029
aF-0.091998
aF-0.105516
aF-0.093205
aF-0.143067
aF-0.130409
aF-0.121246
aF-0.144421
aF-0.091998
aF-0.125479
aF-0.15029
aF-0.13587
aF-0.11961
aF-0.144421
aF-0.096984
aF-0.117777
aF-0.15029
aF-0.120829
aF-0.149972
aF-0.133113
aF-0.104589
aF-0.118548
aF-0.147099
aF-0.142876
aF-0.15029
aF-0.115923
aF-0.100459
aF-0.09806
aF-0.147973
aF-0.15029
aF-0.126237
aF-0.093058
aF-0.143663
aF-0.15029
aF-0.1313
aF-0.092356
aF-0.15029
aF-0.129534
aF-0.092927
aF-0.15029
aF-0.092602
aF-0.146291
aF-0.133065
aF-0.09306
aF-0.123411
aF-0.092017
aF-0.113164
aF-0.115923
aF-0.15029
aF-0.142062
aF-0.09219
aF-0.115734
aF-0.092927
aF-0.136787
aF-0.15029
aF-0.094343
aF-0.093827
aF-0.144228
aF-0.11961
aF-0.15029
aF-0.137698
aF-0.126365
aF-0.121715
aF-0.092062
aF-0.109223
asS'RElbowRoll'
p49
(lp50
F0.622673
aF0.587049
aF0.592126
aF0.745259
aF0.522711
aF0.636798
aF0.561473
aF0.693309
aF0.587399
aF0.714184
aF0.592827
aF0.58993
aF0.656373
aF0.537463
aF0.548902
aF0.607346
aF0.753157
aF0.503735
aF0.555929
aF0.729442
aF0.587522
aF0.589673
aF0.62378
aF0.706979
aF0.513661
aF0.506241
aF0.570017
aF0.504718
aF0.760928
aF0.556612
aF0.808351
aF0.589203
aF0.627326
aF0.653764
aF0.641286
aF0.505948
aF0.555929
aF0.567682
aF0.571989
aF0.514593
aF0.633148
aF0.547793
aF0.642071
aF0.518345
aF0.649661
aF0.582038
aF0.531035
aF0.537463
aF0.799676
aF0.677454
aF0.810682
aF0.518442
aF0.7217
aF0.622451
aF0.638935
aF0.535394
aF0.582377
aF0.622867
aF0.672694
aF0.563001
aF0.623109
aF0.547894
aF0.748317
aF0.610167
aF0.55811
aF0.622981
aF0.567564
aF0.527406
aF0.57688
aF0.504512
aF0.682534
aF0.631621
aF0.729442
aF0.505054
aF0.646646
aF0.521637
aF0.571857
aF0.622392
aF0.664025
aF0.522714
aF0.584272
aF0.537463
aF0.623584
aF0.794612
aF0.693831
aF0.529127
aF0.625197
aF0.627326
aF0.656373
aF0.613967
aF0.595671
aF0.626088
aF0.622339
aF0.504313
aF0.745259
aF0.582298
aF0.563029
aF0.799082
aF0.693831
aF0.591671
aF0.799676
aF0.633148
aF0.583501
aF0.507016
aF0.542532
aF0.707277
aF0.666335
aF0.735022
aF0.503969
aF0.52733
aF0.601068
aF0.518115
aF0.562962
aF0.510958
aF0.523331
aF0.80991
aF0.566064
aF0.630283
aF0.537316
aF0.592827
aF0.664025
aF0.760898
aF0.624246
aF0.656373
aF0.580141
aF0.622451
aF0.592507
aF0.591126
aF0.507702
aF0.575787
aF0.510393
aF0.579307
aF0.700167
aF0.679588
aF0.623408
aF0.745259
aF0.628142
aF0.803976
aF0.588126
aF0.570305
aF0.588705
aF0.553005
aF0.668225
aF0.505654
aF0.582377
aF0.509865
aF0.526197
aF0.807419
aF0.613774
aF0.541201
aF0.532349
aF0.616715
aF0.589601
aF0.625609
aF0.567564
aF0.511235
aF0.643855
aF0.558107
aF0.590469
aF0.595671
aF0.624838
aF0.585396
aF0.587522
aF0.626652
aF0.513592
aF0.527406
aF0.586504
aF0.791861
aF0.649661
aF0.584018
aF0.542021
aF0.62378
aF0.735022
aF0.553063
aF0.799676
aF0.547894
aF0.55811
aF0.660078
aF0.672694
aF0.629126
aF0.622765
aF0.52733
aF0.587049
aF0.707277
aF0.760928
aF0.687976
aF0.518442
aF0.59043
aF0.646646
aF0.590203
aF0.532223
aF0.508115
aF0.589791
aF0.782921
aF0.622028
aF0.775716
aF0.588718
aF0.707277
aF0.622517
aF0.811645
aF0.590469
aF0.768478
aF0.55156
aF0.57587
aF0.623408
aF0.613967
aF0.693831
aF0.804529
aF0.521637
aF0.579247
aF0.737324
aF0.782547
aF0.624
aF0.503735
aF0.536054
aF0.546396
aF0.613774
aF0.62325
aF0.72126
aF0.574118
aF0.775716
aF0.652902
aF0.791861
aF0.54267
aF0.622981
aF0.772516
aF0.518345
aF0.634871
aF0.577423
aF0.605918
aF0.542021
aF0.510958
aF0.666335
aF0.584964
aF0.55811
aF0.503735
aF0.626088
aF0.788876
aF0.558107
aF0.567682
aF0.514398
aF0.811352
aF0.622591
aF0.503903
aF0.503829
aF0.595671
aF0.586068
aF0.624524
aF0.811352
aF0.518115
aF0.63144
aF0.575787
aF0.510393
asS'RKneePitch'
p51
(lp52
F-0.076658
aF-0.06783
aF0.250085
aF-0.042677
aF0.239224
aF-0.076658
aF-0.092328
aF0.195307
aF-0.092328
aF-0.059239
aF0.250085
aF-0.092328
aF-0.076658
aF0.117016
aF-0.083745
aF0.240936
aF-0.029231
aF-0.092328
aF-0.083044
aF-0.04871
aF0.250085
aF0.250085
aF-0.076658
aF-0.063672
aF-0.092328
aF0.22434
aF-0.081713
aF0.22434
aF-0.02188
aF-0.092328
aF0.09651
aF-0.092328
aF-0.076658
aF0.216103
aF-0.076658
aF0.199168
aF-0.083044
aF0.249682
aF0.249682
aF0.234274
aF-0.076658
aF0.246867
aF0.222136
aF0.158643
aF-0.076658
aF0.250059
aF-0.092328
aF0.101821
aF0.029029
aF-0.076271
aF0.086713
aF0.236903
aF-0.054241
aF-0.076658
aF-0.076658
aF-0.085205
aF-0.046829
aF-0.076658
aF-0.076658
aF-0.082366
aF-0.076658
aF0.07038
aF0.162455
aF-0.078067
aF0.248437
aF-0.076658
aF0.0076
aF0.131653
aF-0.081088
aF0.205598
aF-0.075131
aF-0.076658
aF-0.04871
aF-0.090663
aF-0.076658
aF-0.092328
aF-0.007175
aF-0.076658
aF-0.076658
aF0.14558
aF0.250082
aF0.101821
aF-0.076658
aF0.019891
aF-0.070719
aF-0.08596
aF-0.076658
aF-0.076658
aF-0.076658
aF0.237099
aF-0.079406
aF-0.076658
aF-0.076658
aF-0.092328
aF-0.036173
aF-0.092328
aF0.248981
aF0.115979
aF-0.070719
aF0.250085
aF0.029029
aF-0.076658
aF-0.080494
aF-0.08987
aF0.245801
aF0.18758
aF0.2096
aF0.162455
aF-0.091453
aF0.241254
aF-0.078918
aF-0.087504
aF0.022897
aF0.181559
aF-0.086727
aF0.057448
aF-0.092328
aF-0.076658
aF0.244524
aF0.250085
aF-0.076658
aF0.153536
aF-0.076658
aF-0.076658
aF-0.092328
aF-0.076658
aF0.250085
aF0.250085
aF-0.092328
aF-0.021275
aF-0.092328
aF-0.034544
aF-0.067509
aF0.202657
aF-0.076658
aF-0.036173
aF-0.076658
aF0.038355
aF-0.092328
aF-0.092328
aF0.250085
aF0.247739
aF-0.076658
aF-0.092328
aF-0.046829
aF-0.089078
aF-0.092328
aF0.047839
aF-0.077708
aF-0.092328
aF0.117016
aF-0.077398
aF-0.092328
aF-0.076658
aF0.0076
aF0.231317
aF-0.076658
aF0.038562
aF0.250085
aF-0.079406
aF-0.076658
aF-0.092328
aF0.250085
aF-0.076658
aF-0.088288
aF0.131653
aF-0.092328
aF0.125588
aF-0.076658
aF-0.092328
aF-0.084466
aF-0.076658
aF0.171123
aF0.054441
aF0.019891
aF0.07038
aF0.248437
aF-0.076658
aF-0.076658
aF-0.076658
aF-0.076658
aF0.241254
aF-0.06783
aF0.18758
aF-0.02188
aF-0.07327
aF0.236903
aF-0.092328
aF-0.076658
aF-0.092328
aF0.243015
aF0.191104
aF-0.079932
aF0.135071
aF0.232665
aF-0.014153
aF-0.092328
aF0.18758
aF-0.076658
aF0.076916
aF0.250085
aF-0.014153
aF-0.092328
aF0.249879
aF-0.076658
aF0.237099
aF-0.07327
aF0.106276
aF-0.092328
aF0.249998
aF-0.042677
aF0.002304
aF-0.076658
aF-0.092237
aF-0.092328
aF-0.092328
aF-0.077708
aF-0.076658
aF0.179508
aF-0.092328
aF-0.006082
aF-0.076658
aF0.125588
aF0.086225
aF-0.076658
aF0.144398
aF0.170688
aF-0.076658
aF-0.092328
aF-0.078471
aF-0.084466
aF0.181559
aF0.2096
aF-0.057976
aF0.248437
aF-0.092237
aF-0.076658
aF0.010972
aF0.038562
aF0.24939
aF0.170688
aF0.067151
aF-0.076658
aF0.215819
aF0.21093
aF-0.079932
aF0.250085
aF-0.076658
aF0.057448
aF-0.087504
aF0.227668
aF-0.021275
aF-0.092328
as.