(dp0
S'LWristYaw'
p1
(lp2
F0.762625
aF0.240377
aF0.575862
aF0.2021
aF0.892546
aF0.856726
aF0.425266
aF0.6807
aF0.909475
aF0.176935
aF0.514834
aF0.255686
aF0.815507
aF0.517345
aF0.846649
aF0.90105
aF0.822954
aF0.577447
aF-0.056835
aF0.604054
aF0.376716
aF0.584997
aF0.587649
aF0.151875
aF0.571044
aF0.899627
aF0.290569
aF0.535024
aF0.415089
aF0.339974
aF0.857301
aF0.59169
aF0.456169
aF0.794805
aF0.592008
aF0.021451
aF0.762625
aF0.130951
aF0.72691
aF0.179768
aF0.886185
aF0.537357
aF0.135588
aF0.568136
aF0.128578
aF0.162929
aF0.14317
aF0.19561
aF0.635663
aF0.137531
aF0.350779
aF0.688198
aF0.216039
aF0.702387
aF-0.001133
aF0.592114
aF0.554537
aF0.564764
aF0.559977
aF0.141239
aF0.589188
aF0.591064
aF0.707894
aF0.906994
aF0.469797
aF0.889293
aF0.878134
aF0.563916
aF0.559784
aF0.273001
aF0.393601
aF0.89738
aF0.128936
aF0.329938
aF0.586061
aF0.822954
aF0.167602
aF0.892652
aF0.286967
aF0.583696
aF0.413258
aF0.143421
aF0.309794
aF0.333095
aF0.591905
aF0.604054
aF0.910028
aF0.226668
aF0.835381
aF0.171916
aF0.333095
aF0.743673
aF0.214638
aF0.592125
aF0.15879
aF0.254715
aF0.9099
aF0.122387
aF0.36539
aF0.221228
aF0.128481
aF0.901473
aF0.360724
aF0.589652
aF0.565228
aF0.177807
aF0.133255
aF0.216039
aF0.587649
aF0.135588
aF0.91049
aF0.168534
aF0.517345
aF0.456942
aF0.570485
aF0.137889
aF0.237433
aF0.129134
aF0.541323
aF0.545223
aF0.591409
aF0.585958
aF0.320068
aF0.188384
aF0.167252
aF0.469514
aF0.865592
aF0.493021
aF0.272471
aF0.19561
aF0.5288
aF0.588386
aF0.892546
aF0.354604
aF0.492289
aF0.145647
aF0.868477
aF0.413258
aF0.14112
aF0.580325
aF0.128794
aF0.137216
aF0.415089
aF0.167252
aF0.171916
aF0.26413
aF0.589053
aF0.591436
aF0.799104
aF0.447431
aF0.903832
aF0.590916
aF0.879706
aF-0.041929
aF0.545223
aF0.879706
aF0.857301
aF0.667894
aF0.350779
aF0.214638
aF0.259702
aF0.581623
aF-0.022316
aF0.895313
aF0.512981
aF0.586841
aF0.292212
aF0.873245
aF0.158673
aF0.899627
aF0.781607
aF0.809412
aF0.128652
aF0.128578
aF0.372081
aF0.582041
aF0.155254
aF-0.022316
aF0.553515
aF0.216039
aF0.130204
aF0.582833
aF0.830731
aF0.476785
aF0.132918
aF0.508879
aF0.907951
aF0.89738
aF0.592008
aF0.134159
aF0.723407
aF0.91045
aF0.272471
aF0.129601
aF0.340109
aF0.587847
aF0.176841
aF0.592052
aF0.149423
aF0.045265
aF0.885025
aF0.574176
aF0.905876
aF0.57646
aF0.44583
aF0.580574
aF0.59179
aF0.62575
aF0.5229
aF0.31227
aF0.122387
aF0.137889
aF0.128504
aF0.571044
aF0.542742
aF0.232148
aF0.151447
aF0.137216
aF0.192332
aF0.590185
aF0.587847
aF0.586841
aF0.189331
aF0.844691
aF0.179768
aF0.904588
aF0.128652
aF0.65843
aF0.36539
aF0.885025
aF0.204472
aF0.908652
aF0.897577
aF0.763102
aF0.158673
aF0.131853
aF0.403377
aF0.90105
aF0.745176
aF0.300674
aF0.231073
aF0.148786
aF0.095903
aF0.240377
aF0.908751
aF0.647054
aF0.150214
aF0.130951
aF0.422412
aF0.456169
aF0.910356
aF0.904588
aF0.495553
aF0.231073
aF0.910251
aF0.216039
aF0.907499
aF0.591436
aF0.578933
aF0.436289
aF0.176935
aF0.381839
aF0.139056
aF0.145972
aF0.435405
aF0.381839
aF0.2021
aF0.145972
aF0.586061
aF0.90593
aF0.583957
aF0.282004
aF0.779189
aF0.906994
aF0.340109
aF0.572384
aF0.313779
aF0.9094
aF0.300674
aF0.182321
aF0.588977
aF0.399346
asS'RWristYaw'
p3
(lp4
F0.013584
aF-0.02667
aF0.041345
aF0.170919
aF-0.11184
aF-0.031798
aF0.120553
aF-0.050005
aF-0.110552
aF-0.039777
aF0.095926
aF-0.022588
aF-0.095693
aF0.013647
aF-0.02573
aF-0.112533
aF-0.013115
aF0.041369
aF-0.004113
aF0.069173
aF0.071737
aF0.041341
aF0.041307
aF-0.014972
aF0.03821
aF-0.076748
aF-0.013536
aF0.035985
aF0.015285
aF0.019629
aF-0.106249
aF0.041099
aF0.028695
aF3.3e-05
aF0.040812
aF-0.000597
aF0.013584
aF0.099717
aF0.027407
aF0.156305
aF-0.111064
aF0.089395
aF0.054655
aF0.040294
aF0.147396
aF-0.032661
aF0.172394
aF-0.038259
aF-0.03303
aF0.174887
aF0.001126
aF0.041368
aF0.168532
aF-0.057963
aF-0.001712
aF0.040885
aF0.03666
aF0.039709
aF0.038982
aF0.178177
aF0.040226
aF0.041173
aF0.034379
aF-0.093101
aF0.108573
aF-0.059155
aF-0.10993
aF0.037528
aF0.082748
aF0.11586
aF0.010746
aF-0.112315
aF0.170987
aF-0.003805
aF0.039807
aF-0.013115
aF0.175664
aF-0.063938
aF0.015826
aF0.039526
aF0.025203
aF0.011486
aF-0.008718
aF0.090178
aF0.041055
aF0.069173
aF-0.109617
aF-0.030355
aF-0.019497
aF-0.038481
aF0.090178
aF-0.072615
aF-0.033567
aF0.040949
aF0.176569
aF0.123735
aF-0.102317
aF0.005065
aF0.021516
aF0.138229
aF0.154738
aF-0.080496
aF0.136981
aF0.041253
aF-0.005544
aF0.174473
aF0.176781
aF0.168532
aF0.041307
aF0.054655
aF-0.107229
aF0.161229
aF0.013647
aF0.023447
aF0.040741
aF0.178479
aF0.131204
aF0.130236
aF0.003993
aF0.037115
aF0.041138
aF0.041331
aF0.146708
aF-0.039582
aF-0.036141
aF0.033143
aF-0.037686
aF0.031901
aF-0.018184
aF-0.038259
aF0.034121
aF0.041292
aF-0.11184
aF0.081063
aF0.102324
aF0.17778
aF-0.10836
aF0.025203
aF0.021678
aF0.041363
aF0.1392
aF0.043384
aF0.019544
aF-0.036141
aF-0.038481
aF0.159125
aF0.041274
aF0.04063
aF-0.090805
aF0.114655
aF-0.112523
aF0.040517
aF-0.048864
aF-0.003495
aF0.037115
aF-0.043379
aF-0.106249
aF0.04836
aF0.001126
aF-0.033567
aF0.013935
aF0.041359
aF-0.002682
aF-0.068469
aF0.032277
aF0.04132
aF0.107616
aF-0.043379
aF0.165561
aF-0.076748
aF-0.085302
aF-0.006599
aF0.166581
aF0.147396
aF0.006002
aF0.076002
aF-0.022007
aF-0.002682
aF0.038116
aF0.168532
aF0.110389
aF0.041354
aF-0.099924
aF0.02692
aF0.077428
aF0.033369
aF-0.095707
aF-0.112315
aF0.040812
aF0.066043
aF-0.065514
aF-0.105772
aF-0.018184
aF0.120598
aF0.141978
aF0.040036
aF0.008448
aF0.041006
aF0.006721
aF0.00065
aF-0.054126
aF0.04125
aF-0.090284
aF0.03875
aF0.042904
aF0.039181
aF0.040728
aF0.062279
aF0.034734
aF0.099043
aF0.005065
aF0.178479
aF0.161152
aF0.03875
aF0.035549
aF0.012067
aF0.177257
aF0.043384
aF0.150811
aF0.040384
aF0.040036
aF0.04132
aF0.172905
aF-0.103456
aF0.156305
aF-0.08725
aF0.166581
aF-0.04168
aF0.021516
aF-0.048864
aF0.010234
aF-0.111315
aF-0.072739
aF-0.079224
aF0.165561
aF0.088691
aF0.126252
aF-0.112533
aF0.02047
aF0.151154
aF0.168532
aF-0.006962
aF0.003494
aF-0.02667
aF-0.098108
aF0.055335
aF0.169286
aF0.099717
aF0.052617
aF0.026979
aF-0.108509
aF-0.08725
aF0.029888
aF0.165759
aF-0.104136
aF0.168532
aF-0.111902
aF0.04063
aF0.041366
aF0.019544
aF-0.040115
aF0.131733
aF0.032351
aF0.001898
aF0.026979
aF0.131733
aF0.172905
aF0.001898
aF0.039807
aF-0.112308
aF0.041348
aF0.155298
aF0.006767
aF-0.093101
aF0.141978
aF0.041056
aF0.017728
aF-0.100309
aF0.151154
aF-0.040115
aF-0.01492
aF0.062241
asS'HeadYaw'
p5
(lp6
F-0.0164
aF-0.090424
aF-0.093484
aF-0.01283
aF-0.007789
aF-0.016864
aF-0.014328
aF-0.008984
aF-0.008107
aF-0.082144
aF-0.014902
aF-0.091039
aF-0.008243
aF-0.00988
aF-0.016825
aF-0.007732
aF-0.016718
aF-0.09364
aF-0.039901
aF-0.01546
aF-0.010669
aF-0.094377
aF-0.094632
aF-0.067843
aF-0.095138
aF-0.015478
aF-0.092105
aF-0.091103
aF-0.094175
aF-0.074882
aF-0.008005
aF-0.095027
aF-0.084924
aF-0.016575
aF-0.095121
aF-0.045984
aF-0.0164
aF-0.038383
aF-0.016197
aF-0.011869
aF-0.007831
aF-0.015044
aF-0.047224
aF-0.092753
aF-0.023024
aF-0.075625
aF-0.012144
aF-0.086962
aF-0.009231
aF-0.012194
aF-0.093332
aF-0.01597
aF-0.01283
aF-0.008866
aF-0.043842
aF-0.095109
aF-0.095094
aF-0.092541
aF-0.092318
aF-0.012366
aF-0.095148
aF-0.094961
aF-0.016086
aF-0.012888
aF-0.014615
aF-0.016735
aF-0.007882
aF-0.095122
aF-0.015185
aF-0.011275
aF-0.093932
aF-0.007756
aF-0.015905
aF-0.092969
aF-0.09515
aF-0.016718
aF-0.012579
aF-0.01652
aF-0.070194
aF-0.09515
aF-0.081268
aF-0.059234
aF-0.092561
aF-0.01092
aF-0.095053
aF-0.01546
aF-0.008394
aF-0.089749
aF-0.016777
aF-0.080138
aF-0.01092
aF-0.00864
aF-0.089014
aF-0.095094
aF-0.012512
aF-0.011386
aF-0.010624
aF-0.055353
aF-0.077112
aF-0.011595
aF-0.020953
aF-0.015024
aF-0.013906
aF-0.094824
aF-0.009616
aF-0.012655
aF-0.012236
aF-0.012928
aF-0.094632
aF-0.047224
aF-0.00915
aF-0.011948
aF-0.00988
aF-0.094559
aF-0.092952
aF-0.012337
aF-0.011493
aF-0.027649
aF-0.009748
aF-0.091103
aF-0.094997
aF-0.09447
aF-0.013637
aF-0.085572
aF-0.07796
aF-0.010146
aF-0.016893
aF-0.087962
aF-0.091599
aF-0.086962
aF-0.094998
aF-0.094703
aF-0.007789
aF-0.010795
aF-0.014759
aF-0.012405
aF-0.00794
aF-0.081268
aF-0.056256
aF-0.093923
aF-0.025261
aF-0.050235
aF-0.094383
aF-0.07796
aF-0.080138
aF-0.01326
aF-0.094766
aF-0.095138
aF-0.008334
aF-0.014471
aF-0.007717
aF-0.095143
aF-0.016916
aF-0.039901
aF-0.091714
aF-0.01691
aF-0.008005
aF-0.015849
aF-0.093332
aF-0.089014
aF-0.067765
aF-0.094049
aF-0.041809
aF-0.016234
aF-0.094923
aF-0.09447
aF-0.01116
aF-0.01691
aF-0.012021
aF-0.015478
aF-0.008431
aF-0.016651
aF-0.017378
aF-0.023024
aF-0.093652
aF-0.015324
aF-0.070551
aF-0.039901
aF-0.092082
aF-0.012928
aF-0.032812
aF-0.094167
aF-0.008157
aF-0.094706
aF-0.041282
aF-0.089212
aF-0.012314
aF-0.007756
aF-0.095121
aF-0.044234
aF-0.008751
aF-0.009604
aF-0.091599
aF-0.030171
aF-0.01377
aF-0.095149
aF-0.060312
aF-0.095076
aF-0.057822
aF-0.048221
aF-0.016869
aF-0.093318
aF-0.013454
aF-0.095146
aF-0.010278
aF-0.095149
aF-0.095131
aF-0.015593
aF-0.090264
aF-0.011041
aF-0.055353
aF-0.012337
aF-0.019066
aF-0.095146
aF-0.095054
aF-0.065298
aF-0.012453
aF-0.053251
aF-0.011783
aF-0.095146
aF-0.095149
aF-0.094555
aF-0.012739
aF-0.008078
aF-0.011869
aF-0.014004
aF-0.017378
aF-0.009106
aF-0.077112
aF-0.016916
aF-0.062809
aF-0.007893
aF-0.015884
aF-0.008533
aF-0.012021
aF-0.038383
aF-0.014186
aF-0.007732
aF-0.016302
aF-0.013507
aF-0.012928
aF-0.065044
aF-0.05292
aF-0.090424
aF-0.01174
aF-0.015723
aF-0.012086
aF-0.035555
aF-0.010409
aF-0.083166
aF-0.008744
aF-0.014004
aF-0.094826
aF-0.013033
aF-0.010098
aF-0.01283
aF-0.007759
aF-0.095138
aF-0.093786
aF-0.094383
aF-0.08396
aF-0.014045
aF-0.053251
aF-0.062169
aF-0.083166
aF-0.014045
aF-0.012739
aF-0.062169
aF-0.09515
aF-0.007712
aF-0.094276
aF-0.013381
aF-0.016491
aF-0.012888
aF-0.01377
aF-0.093141
aF-0.072571
aF-0.011174
aF-0.013507
aF-0.08396
aF-0.009486
aF-0.01054
asS'RHipPitch'
p7
(lp8
F0.029274
aF-0.073845
aF0.21932
aF0.102278
aF0.005389
aF0.012369
aF0.078022
aF0.025166
aF0.003775
aF-0.174449
aF0.066186
aF-0.051228
aF0.010845
aF0.045016
aF0.014378
aF0.004802
aF0.018845
aF0.21932
aF0.217816
aF0.053648
aF0.063567
aF0.21932
aF0.21932
aF-0.155659
aF0.21932
aF0.003026
aF-0.003245
aF0.219126
aF0.137955
aF0.218553
aF0.007336
aF0.21932
aF0.218864
aF0.02384
aF0.21932
aF0.217899
aF0.029274
aF-0.036091
aF0.03506
aF0.09088
aF0.005726
aF0.06309
aF-0.077638
aF0.21929
aF0.043634
aF-0.172876
aF0.099956
aF-0.147136
aF0.030438
aF0.101228
aF0.070447
aF0.04111
aF0.102278
aF0.022693
aF0.217866
aF0.21932
aF0.21932
aF0.219267
aF0.219239
aF0.10427
aF0.21932
aF0.21932
aF0.038058
aF0.003054
aF0.072236
aF0.005018
aF0.006094
aF0.21932
aF0.059961
aF0.078292
aF0.116712
aF0.004802
aF0.083476
aF0.046112
aF0.21932
aF0.018845
aF0.10414
aF0.004163
aF0.218425
aF0.21932
aF0.218743
aF-0.127212
aF0.021434
aF0.069625
aF0.21932
aF0.053648
aF0.003635
aF-0.095088
aF0.01654
aF-0.176453
aF0.069625
aF0.018131
aF-0.114613
aF0.21932
aF0.10427
aF0.081024
aF0.003188
aF0.218075
aF0.218617
aF0.086189
aF0.055029
aF0.003026
aF0.086014
aF0.21932
aF0.039001
aF0.103757
aF0.102294
aF0.101203
aF0.21932
aF-0.077638
aF0.00341
aF0.095009
aF0.041985
aF0.174944
aF0.219306
aF0.10427
aF0.083661
aF0.018722
aF0.041985
aF0.219126
aF0.21932
aF0.21932
aF0.090756
aF-0.159447
aF-0.175538
aF0.051174
aF0.010526
aF0.218978
aF-0.02758
aF-0.147136
aF0.217316
aF0.21932
aF0.005389
aF0.066617
aF0.069239
aF0.10427
aF0.006598
aF0.218743
aF-0.115817
aF0.21932
aF0.03149
aF-0.090905
aF0.15748
aF-0.176453
aF-0.176453
aF0.09677
aF0.21932
aF0.21932
aF0.012409
aF0.075167
aF0.004548
aF0.21932
aF0.007376
aF0.217816
aF0.219168
aF0.008858
aF0.007336
aF0.044206
aF0.094095
aF-0.114613
aF0.218363
aF0.21932
aF0.217838
aF0.003539
aF0.211533
aF0.21932
aF0.075474
aF0.008858
aF0.096835
aF0.003026
aF0.014152
aF0.021282
aF0.075075
aF0.043634
aF0.094095
aF0.05681
aF-0.162812
aF0.217816
aF0.219206
aF0.101203
aF-0.008185
aF0.21932
aF0.009471
aF0.190003
aF-0.050107
aF0.21903
aF0.003074
aF0.005081
aF0.21932
aF-0.063997
aF0.020345
aF0.003321
aF-0.003245
aF0.005456
aF0.088451
aF0.21932
aF0.218183
aF0.21932
aF0.218128
aF0.217937
aF0.006093
aF0.21932
aF0.00304
aF0.21932
aF0.054279
aF0.21932
aF0.21932
aF0.050486
aF0.21908
aF0.072581
aF0.218075
aF0.10427
aF0.065551
aF0.21932
aF0.21932
aF0.218301
aF0.10427
aF-0.103673
aF0.09088
aF0.21932
aF0.21932
aF0.21932
aF0.103133
aF0.008298
aF0.093021
aF0.003032
aF0.075075
aF0.027751
aF0.218617
aF0.007376
aF0.218241
aF0.003935
aF0.003156
aF0.016063
aF0.096835
aF-0.036091
aF0.080788
aF0.004802
aF0.032129
aF0.092918
aF0.101203
aF-0.147258
aF0.218025
aF-0.051228
aF0.003102
aF0.047335
aF0.098488
aF-0.022076
aF0.057387
aF0.218804
aF0.003514
aF0.003028
aF0.202314
aF0.09992
aF0.003248
aF0.102278
aF0.004116
aF0.21932
aF0.21932
aF0.15748
aF-0.168666
aF0.083456
aF-0.103673
aF-0.137734
aF0.218804
aF0.083456
aF0.103133
aF-0.137734
aF0.21932
aF0.00432
aF0.21932
aF0.094927
aF0.026508
aF0.003054
aF0.088451
aF0.219316
aF0.218489
aF0.00314
aF0.092918
aF-0.168666
aF0.036074
aF0.060487
asS'RElbowYaw'
p9
(lp10
F0.631802
aF1.380958
aF1.34008
aF0.935676
aF0.537396
aF0.567465
aF0.829778
aF0.626676
aF0.533665
aF1.394919
aF0.780514
aF1.375701
aF0.561056
aF0.717957
aF0.57488
aF0.535594
aF0.591639
aF1.337245
aF1.500473
aF0.729138
aF0.801091
aF1.32201
aF1.315412
aF1.346319
aF1.292205
aF0.533199
aF1.363889
aF1.375675
aF1.325116
aF1.432121
aF0.545878
aF1.301289
aF1.402809
aF0.61072
aF1.29522
aF1.490613
aF0.631802
aF1.117751
aF0.654545
aF0.921799
aF0.538738
aF0.767753
aF1.20921
aF1.353458
aF1.019854
aF1.38046
aF0.944685
aF1.395131
aF0.651038
aF0.948226
aF1.3444
aF0.678592
aF0.930482
aF0.61525
aF1.493678
aF1.29625
aF1.294346
aF1.357416
aF1.361625
aF0.951743
aF1.291661
aF1.304331
aF0.666429
aF0.532637
aF0.805594
aF0.541132
aF0.540502
aF1.293103
aF0.754906
aF0.864121
aF1.331356
aF0.536374
aF0.971163
aF1.351004
aF1.291117
aF0.591639
aF0.946102
aF0.538108
aF1.443726
aF1.291083
aF1.41445
aF1.294749
aF1.357532
aF0.827448
aF1.299896
aF0.729138
aF0.53348
aF1.385646
aF0.58295
aF1.391958
aF0.827448
aF0.594211
aF1.389654
aF1.297374
aF0.948118
aF0.875359
aF0.532891
aF1.474906
aF1.426238
aF0.896031
aF1.00473
aF0.532708
aF0.863574
aF1.309513
aF0.69046
aF0.943466
aF0.950915
aF0.930482
aF1.315412
aF1.20921
aF0.533194
aF0.928818
aF0.717957
aF1.313714
aF1.349755
aF0.952434
aF0.886013
aF1.055166
aF0.704127
aF1.370769
aF1.302768
aF1.319734
aF0.883922
aF1.396333
aF1.387222
aF0.745876
aF0.560735
aF1.391522
aF1.369978
aF1.395131
aF1.298174
aF1.313367
aF0.537396
aF0.814422
aF0.793143
aF0.95084
aF0.542824
aF1.41445
aF1.274719
aF1.331869
aF1.036726
aF1.231839
aF1.319199
aF1.387222
aF1.391958
aF0.910236
aF1.3114
aF1.293463
aF0.56808
aF0.817821
aF0.534996
aF1.292744
aF0.549437
aF1.498671
aF1.370769
aF0.554718
aF0.545878
aF0.69099
aF1.3444
aF1.389654
aF1.449394
aF1.329292
aF1.496375
aF0.535811
aF1.30095
aF1.317535
aF0.852353
aF0.554718
aF0.934977
aF0.533199
aF0.575987
aF0.600908
aF0.980296
aF1.019854
aF1.337818
aF0.742019
aF1.359924
aF1.496375
aF1.36608
aF0.930482
aF1.095907
aF1.326789
aF0.554975
aF1.308769
aF1.163167
aF1.386073
aF0.532685
aF0.536374
aF1.29522
aF1.186237
aF0.604409
aF0.53308
aF1.369978
aF1.074967
aF0.873997
aF1.291315
aF1.465294
aF1.29859
aF1.47021
aF1.487214
aF0.544907
aF1.343086
aF0.532601
aF1.291597
aF0.759846
aF1.291234
aF1.29429
aF0.716309
aF1.380783
aF0.84011
aF1.474906
aF0.952434
aF0.991507
aF1.291597
aF1.296008
aF1.454935
aF0.94966
aF1.231839
aF0.913969
aF1.29214
aF1.291315
aF1.317535
aF0.940019
aF0.549896
aF0.921799
aF0.532579
aF0.980296
aF0.638625
aF1.426238
aF0.549437
aF1.460191
aF0.533892
aF0.534198
aF0.584717
aF0.934977
aF1.140255
aF0.841419
aF0.535594
aF0.642988
aF0.893306
aF0.930482
aF1.330775
aF1.479353
aF1.380958
aF0.532743
aF0.703577
aF0.94027
aF1.117751
aF0.773745
aF1.408597
aF0.533325
aF0.532579
aF1.304476
aF0.92448
aF0.532979
aF0.930482
aF0.534176
aF1.293463
aF1.33452
aF1.319199
aF1.396316
aF0.8527
aF1.253667
aF1.313511
aF1.408597
aF0.8527
aF0.940019
aF1.313511
aF1.291117
aF0.534535
aF1.324362
aF0.902084
aF0.621032
aF0.532637
aF0.873997
aF1.346302
aF1.437959
aF0.532812
aF0.893306
aF1.396316
aF0.677016
aF0.787513
asS'RHand'
p11
(lp12
F0.608048
aF0.224079
aF0.223995
aF0.409875
aF0.703194
aF0.661829
aF0.468326
aF0.66444
aF0.703084
aF0.224268
aF0.500664
aF0.224064
aF0.699275
aF0.605185
aF0.655113
aF0.70317
aF0.640587
aF0.224
aF0.221849
aF0.536073
aF0.545757
aF0.224
aF0.224
aF0.230404
aF0.224
aF0.700238
aF0.224039
aF0.223593
aF0.224004
aF0.222743
aF0.7032
aF0.224
aF0.223189
aF0.624815
aF0.224
aF0.221918
aF0.608048
aF0.306746
aF0.590539
aF0.454462
aF0.703198
aF0.509307
aF0.278251
aF0.223887
aF0.363688
aF0.2244
aF0.42335
aF0.224169
aF0.649378
aF0.418955
aF0.224015
aF0.572539
aF0.409875
aF0.671243
aF0.221886
aF0.224
aF0.224
aF0.22384
aF0.223787
aF0.4084
aF0.224
aF0.224
aF0.581585
aF0.702396
aF0.483985
aF0.688695
aF0.703199
aF0.224
aF0.518111
aF0.496995
aF0.224006
aF0.703181
aF0.39293
aF0.224021
aF0.224
aF0.640587
aF0.4084
aF0.692505
aF0.222569
aF0.224
aF0.223012
aF0.246311
aF0.224029
aF0.525837
aF0.224
aF0.536073
aF0.70305
aF0.224098
aF0.648021
aF0.224308
aF0.525837
aF0.68319
aF0.224119
aF0.224
aF0.4084
aF0.487824
aF0.702774
aF0.222057
aF0.222832
aF0.470396
aF0.372003
aF0.701479
aF0.447299
aF0.224
aF0.623776
aF0.4084
aF0.415266
aF0.411671
aF0.224
aF0.278251
aF0.702962
aF0.440357
aF0.614605
aF0.224001
aF0.223926
aF0.4084
aF0.478944
aF0.34565
aF0.614605
aF0.223593
aF0.224
aF0.224
aF0.435289
aF0.224198
aF0.224352
aF0.585763
aF0.66814
aF0.22336
aF0.22405
aF0.224169
aF0.224
aF0.224
aF0.703194
aF0.535755
aF0.492213
aF0.4084
aF0.7032
aF0.223012
aF0.253347
aF0.224
aF0.35487
aF0.269417
aF0.224002
aF0.224308
aF0.224308
aF0.420917
aF0.224
aF0.224
aF0.696334
aF0.476012
aF0.70317
aF0.224
aF0.679419
aF0.221849
aF0.223663
aF0.674014
aF0.7032
aF0.563434
aF0.22401
aF0.224119
aF0.222484
aF0.224
aF0.221863
aF0.695719
aF0.224
aF0.224
aF0.506415
aF0.674014
aF0.434093
aF0.700238
aF0.692645
aF0.632841
aF0.386725
aF0.363688
aF0.22401
aF0.527043
aF0.227168
aF0.221849
aF0.223728
aF0.411671
aF0.326402
aF0.224
aF0.701428
aF0.224
aF0.297016
aF0.223441
aF0.702506
aF0.703189
aF0.224
aF0.287484
aF0.677507
aF0.702907
aF0.224039
aF0.336127
aF0.441072
aF0.224
aF0.222251
aF0.224
aF0.222181
aF0.221957
aF0.684323
aF0.223981
aF0.702276
aF0.224
aF0.575845
aF0.224
aF0.224
aF0.545169
aF0.223519
aF0.516043
aF0.222116
aF0.4084
aF0.379716
aF0.224
aF0.224
aF0.222403
aF0.4084
aF0.261082
aF0.454462
aF0.224
aF0.224
aF0.224
aF0.408774
aF0.70275
aF0.44716
aF0.702144
aF0.379716
aF0.657138
aF0.222743
aF0.679419
aF0.222325
aF0.703113
aF0.698307
aF0.68825
aF0.434093
aF0.306746
aF0.460957
aF0.703181
aF0.599371
aF0.429981
aF0.411671
aF0.234739
aF0.222057
aF0.224064
aF0.702605
aF0.5543
aF0.42841
aF0.316575
aF0.565843
aF0.223101
aF0.703009
aF0.702
aF0.224
aF0.414131
aF0.702844
aF0.409875
aF0.703137
aF0.224
aF0.224
aF0.224002
aF0.224231
aF0.453938
aF0.261082
aF0.240075
aF0.223101
aF0.453938
aF0.408774
aF0.234739
aF0.224
aF0.703156
aF0.224
aF0.42518
aF0.61654
aF0.702396
aF0.441072
aF0.223958
aF0.222655
aF0.702694
aF0.429981
aF0.224231
aF0.632656
aF0.5558
asS'RShoulderPitch'
p13
(lp14
F1.331638
aF1.748335
aF1.669912
aF1.470362
aF1.271876
aF1.30015
aF1.421469
aF1.321232
aF1.267885
aF1.779681
aF1.399204
aF1.739465
aF1.287053
aF1.367205
aF1.304033
aF1.270064
aF1.312465
aF1.669019
aF1.545363
aF1.376031
aF1.408383
aF1.661424
aF1.656662
aF1.744026
aF1.621581
aF1.276667
aF1.71998
aF1.664355
aF1.659851
aF1.624519
aF1.278226
aF1.642654
aF1.648298
aF1.321703
aF1.634068
aF1.560894
aF1.331638
aF1.584411
aF1.342156
aF1.465724
aF1.27306
aF1.393448
aF1.645357
aF1.670952
aF1.521275
aF1.769723
aF1.475983
aF1.774266
aF1.333576
aF1.477529
aF1.688944
aF1.35314
aF1.467883
aF1.315411
aF1.556604
aF1.635725
aF1.622134
aF1.670395
aF1.669465
aF1.478447
aF1.626617
aF1.646212
aF1.347596
aF1.271231
aF1.410527
aF1.284478
aF1.274478
aF1.621633
aF1.387655
aF1.438859
aF1.669049
aF1.270886
aF1.490544
aF1.699301
aF1.624244
aF1.312465
aF1.475475
aF1.282137
aF1.613569
aF1.623263
aF1.639552
aF1.706218
aF1.709705
aF1.421228
aF1.640889
aF1.376031
aF1.267777
aF1.756405
aF1.308142
aF1.778166
aF1.421228
aF1.304603
aF1.763514
aF1.637418
aF1.476511
aF1.444191
aF1.268719
aF1.580514
aF1.629748
aF1.453891
aF1.51169
aF1.275305
aF1.436824
aF1.651529
aF1.353423
aF1.47415
aF1.478688
aF1.467883
aF1.656662
aF1.645357
aF1.267859
aF1.46888
aF1.367205
aF1.643774
aF1.671155
aF1.478833
aF1.449209
aF1.543819
aF1.360278
aF1.666448
aF1.64443
aF1.65989
aF1.446122
aF1.777627
aF1.774856
aF1.381127
aF1.296505
aF1.655791
aF1.729957
aF1.774266
aF1.625029
aF1.654983
aF1.271876
aF1.414896
aF1.404903
aF1.477953
aF1.276178
aF1.639552
aF1.691707
aF1.666846
aF1.532016
aF1.660766
aF1.651372
aF1.774856
aF1.778166
aF1.458344
aF1.653269
aF1.630894
aF1.290869
aF1.416055
aF1.269387
aF1.629393
aF1.289966
aF1.548779
aF1.666448
aF1.293107
aF1.278226
aF1.358774
aF1.688944
aF1.763514
aF1.607914
aF1.665613
aF1.552551
aF1.280061
aF1.62781
aF1.6583
aF1.433237
aF1.293107
aF1.471665
aF1.276667
aF1.295083
aF1.31699
aF1.496284
aF1.521275
aF1.678803
aF1.381843
aF1.754164
aF1.552551
aF1.668151
aF1.467883
aF1.570146
aF1.664293
aF1.283657
aF1.637214
aF1.61442
aF1.659017
aF1.270457
aF1.270886
aF1.634068
aF1.629853
aF1.309859
aF1.268048
aF1.729957
aF1.55657
aF1.441581
aF1.625371
aF1.591355
aF1.639142
aF1.585914
aF1.565377
aF1.287088
aF1.670598
aF1.2721
aF1.621881
aF1.388061
aF1.622461
aF1.632455
aF1.370236
aF1.661875
aF1.427351
aF1.580514
aF1.478833
aF1.503342
aF1.621881
aF1.62321
aF1.602187
aF1.47732
aF1.660766
aF1.462165
aF1.627963
aF1.625371
aF1.6583
aF1.472458
aF1.280707
aF1.465724
aF1.273064
aF1.496284
aF1.327297
aF1.629748
aF1.289966
aF1.596794
aF1.268096
aF1.278244
aF1.299669
aF1.471665
aF1.599219
aF1.426748
aF1.270064
aF1.336831
aF1.450429
aF1.467883
aF1.732543
aF1.575197
aF1.748335
aF1.26978
aF1.364478
aF1.474032
aF1.584411
aF1.394936
aF1.64407
aF1.267769
aF1.273064
aF1.631842
aF1.46504
aF1.268335
aF1.467883
aF1.268412
aF1.630894
aF1.667984
aF1.651372
aF1.77947
aF1.431873
aF1.676502
aF1.719885
aF1.64407
aF1.431873
aF1.472458
aF1.719885
aF1.624244
aF1.26884
aF1.662894
aF1.45453
aF1.32659
aF1.271231
aF1.441581
aF1.671026
aF1.619116
aF1.269201
aF1.450429
aF1.77947
aF1.346668
aF1.40172
asS'LShoulderRoll'
p15
(lp16
F-0.08698
aF-0.011858
aF-0.073373
aF0.135184
aF-0.13366
aF-0.121562
aF0.050406
aF-0.059771
aF-0.137363
aF0.060675
aF0.013123
aF-0.023141
aF-0.109039
aF0.010326
aF-0.117875
aF-0.135717
aF-0.109041
aF-0.077297
aF0.085987
aF-0.023884
aF0.082017
aF-0.101268
aF-0.113016
aF0.108704
aF-0.156566
aF-0.136072
aF-0.046278
aF-0.038748
aF-0.107585
aF0.009822
aF-0.122773
aF-0.140709
aF-0.01591
aF-0.098787
aF-0.153226
aF0.075213
aF-0.08698
aF0.19325
aF-0.073311
aF0.201788
aF-0.131782
aF0.003742
aF0.173345
aF-0.058253
aF0.203091
aF0.08346
aF0.21619
aF0.032025
aF-0.041545
aF0.217652
aF-0.079054
aF-0.058048
aF0.128979
aF-0.068361
aF0.07802
aF-0.151123
aF-0.151552
aF-0.054541
aF-0.050763
aF0.173141
aF-0.159927
aF-0.134494
aF-0.065861
aF-0.137516
aF0.031895
aF-0.132958
aF-0.129333
aF-0.154352
aF-0.00558
aF0.14926
aF-0.098697
aF-0.134864
aF0.199104
aF-0.068622
aF-0.160446
aF-0.109041
aF0.152838
aF-0.134038
aF0.021209
aF-0.160142
aF-0.006136
aF0.139168
aF-0.057666
aF0.107633
aF-0.143584
aF-0.023884
aF-0.137465
aF-0.000718
aF-0.1137
aF0.068525
aF0.107633
aF-0.084439
aF0.010277
aF-0.148805
aF0.158324
aF0.163466
aF-0.137686
aF0.054766
aF0.004307
aF0.182568
aF0.202958
aF-0.136537
aF0.075919
aF-0.124196
aF-0.011584
aF0.147135
aF0.218527
aF0.128979
aF-0.113016
aF0.173345
aF-0.137599
aF0.206879
aF0.010326
aF-0.122647
aF-0.061948
aF0.177437
aF0.174154
aF0.201322
aF-0.000845
aF-0.042886
aF-0.137674
aF-0.105228
aF0.089994
aF0.043004
aF0.076054
aF0.034272
aF-0.124759
aF-0.025457
aF-0.034525
aF0.032025
aF-0.144176
aF-0.116822
aF-0.13366
aF0.094609
aF0.022521
aF0.168511
aF-0.126325
aF-0.006136
aF0.150258
aF-0.085251
aF0.202558
aF0.165791
aF-0.107585
aF0.076054
aF0.068525
aF0.109689
aF-0.120552
aF-0.156724
aF-0.103507
aF0.041204
aF-0.136315
aF-0.158084
aF-0.129726
aF0.083217
aF-0.042886
aF-0.129726
aF-0.122773
aF-0.049908
aF-0.079054
aF0.010277
aF0.026996
aF-0.089259
aF0.080892
aF-0.134856
aF-0.139638
aF-0.109148
aF0.135784
aF-0.127475
aF0.210922
aF-0.136072
aF-0.097541
aF-0.103912
aF0.200901
aF0.203091
aF-0.088854
aF-0.014802
aF0.098953
aF0.080892
aF-0.046886
aF0.128979
aF0.196669
aF-0.093272
aF-0.11411
aF-0.128913
aF0.18438
aF-0.030032
aF-0.137605
aF-0.134864
aF-0.153226
aF0.179109
aF-0.076589
aF-0.137642
aF-0.034525
aF0.199362
aF0.083547
aF-0.160365
aF0.043729
aF-0.146288
aF0.049269
aF0.070424
aF-0.13154
aF-0.069499
aF-0.137386
aF-0.15824
aF0.045891
aF-0.159419
aF-0.155098
aF-0.032788
aF-0.034464
aF0.12127
aF0.054766
aF0.177437
aF0.202208
aF-0.156566
aF-0.148152
aF0.032792
aF0.163562
aF0.165791
aF0.196377
aF-0.159159
aF-0.160365
aF-0.109148
aF0.141243
aF-0.118696
aF0.201788
aF-0.137207
aF0.200901
aF-0.05083
aF0.004307
aF-0.13154
aF0.038212
aF-0.137221
aF-0.135513
aF-0.091173
aF0.210922
aF0.189121
aF0.059464
aF-0.135717
aF-0.080362
aF0.096538
aF0.122647
aF0.118583
aF0.060158
aF-0.011858
aF-0.137658
aF-0.041475
aF0.213991
aF0.19325
aF0.057711
aF-0.01591
aF-0.137541
aF-0.137207
aF-0.134551
aF0.122647
aF-0.137671
aF0.135184
aF-0.13702
aF-0.156724
aF-0.08126
aF-0.115554
aF0.060675
aF0.068331
aF0.15811
aF0.128687
aF-0.010963
aF0.068331
aF0.135184
aF0.128687
aF-0.160446
aF-0.136731
aF-0.097279
aF0.10312
aF-0.093133
aF-0.137516
aF0.083547
aF-0.065687
aF0.01547
aF-0.137684
aF0.096538
aF0.052323
aF-0.021934
aF0.069741
asS'LHand'
p17
(lp18
F0.628441
aF0.215639
aF0.7176
aF0.257227
aF0.7284
aF0.701546
aF0.392305
aF0.313882
aF0.729431
aF0.123125
aF0.452196
aF0.244954
aF0.578932
aF0.200134
aF0.693407
aF0.728928
aF0.674611
aF0.7176
aF0.14107
aF0.513804
aF0.205625
aF0.717593
aF0.717584
aF0.136681
aF0.717231
aF0.729999
aF0.310805
aF0.672527
aF0.529017
aF0.463857
aF0.672934
aF0.717532
aF0.581886
aF0.652813
aF0.717472
aF0.185908
aF0.628441
aF0.184699
aF0.601926
aF0.223697
aF0.724389
aF0.467571
aF0.168843
aF0.716218
aF0.214174
aF0.127664
aF0.231749
aF0.134491
aF0.254826
aF0.232966
aF0.419905
aF0.573695
aF0.257227
aF0.348558
aF0.169188
aF0.717486
aF0.714161
aF0.712175
aF0.705628
aF0.236
aF0.717383
aF0.71755
aF0.587998
aF0.72996
aF0.421822
aF0.727499
aF0.713281
aF0.7172
aF0.483
aF0.214169
aF0.493505
aF0.728768
aF0.228573
aF0.38285
aF0.717338
aF0.674611
aF0.241548
aF0.729366
aF0.413359
aF0.717313
aF0.536865
aF0.149055
aF0.346311
aF0.208767
aF0.717522
aF0.513804
aF0.729526
aF0.18942
aF0.684411
aF0.124071
aF0.208767
aF0.424257
aF0.166812
aF0.717499
aF0.238501
aF0.216075
aF0.729846
aF0.244831
aF0.488715
aF0.219925
aF0.218313
aF0.729997
aF0.350575
aF0.71757
aF0.203821
aF0.24572
aF0.234006
aF0.264454
aF0.717584
aF0.168843
aF0.729682
aF0.227233
aF0.2
aF0.59489
aF0.7176
aF0.236
aF0.218
aF0.205068
aF0.2
aF0.672527
aF0.717542
aF0.71759
aF0.325078
aF0.125809
aF0.125598
aF0.201151
aF0.708773
aF0.622524
aF0.276848
aF0.134491
aF0.691587
aF0.71758
aF0.7284
aF0.207137
aF0.436929
aF0.236
aF0.695866
aF0.536865
aF0.153732
aF0.717598
aF0.209745
aF0.163668
aF0.562984
aF0.124071
aF0.124071
aF0.291389
aF0.717575
aF0.717457
aF0.541827
aF0.406929
aF0.728928
aF0.717422
aF0.72028
aF0.14107
aF0.685647
aF0.715036
aF0.672934
aF0.559071
aF0.456962
aF0.166812
aF0.388031
aF0.717597
aF0.15419
aF0.73
aF0.673083
aF0.71759
aF0.212303
aF0.715036
aF0.228863
aF0.729999
aF0.503153
aF0.66406
aF0.225553
aF0.214174
aF0.456962
aF0.498429
aF0.133247
aF0.14107
aF0.696733
aF0.264454
aF0.195132
aF0.717596
aF0.613678
aF0.624218
aF0.1794
aF0.640809
aF0.729941
aF0.728592
aF0.717472
aF0.174101
aF0.385613
aF0.729746
aF0.310805
aF0.200183
aF0.337559
aF0.717361
aF0.313614
aF0.717511
aF0.289852
aF0.204192
aF0.724452
aF0.7176
aF0.729975
aF0.71726
aF0.201994
aF0.717287
aF0.717457
aF0.529071
aF0.657529
aF0.210496
aF0.266872
aF0.236
aF0.222119
aF0.71726
aF0.705451
aF0.36286
aF0.236634
aF0.158617
aF0.223697
aF0.717403
aF0.717361
aF0.717587
aF0.250964
aF0.645275
aF0.225504
aF0.729986
aF0.222119
aF0.282375
aF0.463857
aF0.72028
aF0.338002
aF0.729325
aF0.73
aF0.4637
aF0.228863
aF0.184699
aF0.378002
aF0.728768
aF0.615425
aF0.313188
aF0.264454
aF0.140488
aF0.244831
aF0.244954
aF0.729916
aF0.544178
aF0.230375
aF0.189957
aF0.203034
aF0.559845
aF0.729609
aF0.729993
aF0.650455
aF0.272593
aF0.7298
aF0.257227
aF0.729206
aF0.71744
aF0.717599
aF0.562984
aF0.1228
aF0.364074
aF0.158617
aF0.144626
aF0.559845
aF0.364074
aF0.250964
aF0.140488
aF0.717338
aF0.729074
aF0.717595
aF0.30194
aF0.640922
aF0.72996
aF0.337559
aF0.7176
aF0.438686
aF0.729884
aF0.313188
aF0.1228
aF0.214759
aF0.204251
asS'LKneePitch'
p19
(lp20
F-0.089079
aF0.191928
aF-0.092083
aF-0.081546
aF-0.092328
aF-0.090908
aF-0.084019
aF-0.090475
aF-0.092315
aF0.289474
aF-0.085234
aF0.169998
aF-0.091967
aF-0.088254
aF-0.090685
aF-0.092327
aF-0.090197
aF-0.092084
aF-0.092323
aF-0.086529
aF-0.086121
aF-0.09211
aF-0.092132
aF0.263806
aF-0.092324
aF-0.092082
aF0.123473
aF-0.092113
aF-0.013436
aF-0.092205
aF-0.092267
aF-0.092205
aF-0.092155
aF-0.089659
aF-0.092252
aF-0.09231
aF-0.089079
aF0.105037
aF-0.088468
aF-0.082928
aF-0.092328
aF-0.085553
aF0.160206
aF-0.092087
aF-0.000828
aF0.286668
aF-0.081856
aF0.262992
aF-0.089895
aF-0.081705
aF0.052021
aF-0.087834
aF-0.081546
aF-0.090744
aF-0.092315
aF-0.092243
aF-0.092327
aF-0.09209
aF-0.092095
aF-0.081344
aF-0.092293
aF-0.092186
aF-0.088153
aF-0.092206
aF-0.084612
aF-0.091767
aF-0.092328
aF-0.092326
aF-0.085876
aF-0.084406
aF0.007162
aF-0.092327
aF-0.053732
aF0.075616
aF-0.092306
aF-0.090197
aF-0.081357
aF-0.09188
aF-0.092225
aF-0.092311
aF-0.092175
aF0.226032
aF0.099545
aF-0.085418
aF-0.092215
aF-0.086529
aF-0.09231
aF0.212525
aF-0.090448
aF0.291418
aF-0.085418
aF-0.091231
aF0.231457
aF-0.092234
aF-0.081344
aF-0.084086
aF-0.092268
aF-0.092282
aF-0.092195
aF-0.08348
aF-0.015959
aF-0.092111
aF-0.083201
aF-0.092158
aF-0.088936
aF-0.081396
aF-0.081579
aF-0.081655
aF-0.092132
aF0.160206
aF-0.092297
aF-0.082441
aF-0.088254
aF-0.049301
aF-0.092084
aF-0.081344
aF-0.083777
aF0.032252
aF-0.088599
aF-0.092113
aF-0.092195
aF-0.092117
aF-0.082718
aF0.274929
aF0.290203
aF-0.087551
aF-0.091116
aF-0.092137
aF0.147069
aF0.262992
aF-0.090385
aF-0.09214
aF-0.092328
aF-0.085768
aF-0.08492
aF-0.081344
aF-0.092313
aF-0.092175
aF0.210901
aF-0.09209
aF0.015298
aF0.177822
aF-0.032368
aF0.291418
aF0.291418
aF-0.082105
aF-0.092149
aF-0.09227
aF-0.091816
aF-0.084311
aF-0.092326
aF-0.092278
aF-0.091479
aF-0.092323
aF-0.092106
aF-0.091307
aF-0.092267
aF-0.08751
aF0.052021
aF0.231457
aF-0.092235
aF-0.092094
aF-0.092319
aF-0.091971
aF-0.084777
aF-0.092117
aF-0.084736
aF-0.091307
aF-0.082225
aF-0.092082
aF-0.091642
aF-0.089933
aF-0.042577
aF-0.000828
aF0.029092
aF-0.086201
aF0.273304
aF-0.092323
aF-0.0921
aF-0.081655
aF0.067982
aF-0.092098
aF-0.092093
aF-0.063902
aF0.123647
aF-0.092128
aF-0.092224
aF-0.092327
aF-0.092252
aF0.142092
aF-0.090996
aF-0.092289
aF0.123473
aF0.049868
aF-0.082953
aF-0.0923
aF-0.092264
aF-0.092224
aF-0.092273
aF-0.092304
aF-0.091633
aF-0.092082
aF-0.092186
aF-0.09232
aF-0.087194
aF-0.092316
aF-0.092261
aF-0.086857
aF-0.09212
aF-0.085073
aF-0.092282
aF-0.081344
aF-0.029931
aF-0.09232
aF-0.092328
aF-0.092245
aF-0.081344
aF0.194776
aF-0.082928
aF-0.092286
aF-0.0923
aF-0.092124
aF-0.081459
aF-0.092194
aF-0.082676
aF-0.092163
aF-0.042577
aF-0.090192
aF-0.092195
aF-0.091479
aF-0.092255
aF-0.092319
aF-0.092039
aF-0.091447
aF-0.082225
aF0.105037
aF-0.083735
aF-0.092327
aF-0.088777
aF-0.082497
aF-0.081655
aF0.25265
aF-0.092289
aF0.169998
aF-0.092241
aF-0.087184
aF-0.08203
aF0.086426
aF-0.086836
aF-0.092165
aF-0.092304
aF-0.092163
aF-0.075839
aF-0.081785
aF-0.092279
aF-0.081546
aF-0.092322
aF-0.09227
aF-0.092086
aF-0.032368
aF0.283867
aF-0.083463
aF0.194776
aF0.240004
aF-0.092165
aF-0.083463
aF-0.081459
aF0.240004
aF-0.092306
aF-0.092324
aF-0.092104
aF-0.082293
aF-0.089374
aF-0.092206
aF-0.082953
aF-0.092083
aF-0.092215
aF-0.092255
aF-0.082497
aF0.283867
aF-0.089266
aF-0.086478
asS'RAnkleRoll'
p21
(lp22
F0.090718
aF0.068049
aF0.139636
aF0.044262
aF0.10624
aF0.101476
aF0.059697
aF0.094024
aF0.107047
aF0.043483
aF0.067229
aF0.073572
aF0.103059
aF0.081307
aF0.100198
aF0.106534
aF0.097355
aF0.139636
aF0.047903
aF0.075208
aF0.06935
aF0.139636
aF0.139636
aF0.042994
aF0.139636
aF0.107422
aF0.085289
aF0.127827
aF0.119768
aF0.092849
aF0.105191
aF0.139636
aF0.111842
aF0.094176
aF0.139636
aF0.052993
aF0.090718
aF0.042994
aF0.087036
aF0.05168
aF0.106072
aF0.069199
aF0.042994
aF0.137795
aF0.042994
aF0.042994
aF0.045794
aF0.050153
aF0.090658
aF0.044969
aF0.103283
aF0.083187
aF0.044262
aF0.095597
aF0.050976
aF0.139636
aF0.139636
aF0.136427
aF0.134722
aF0.042994
aF0.139636
aF0.139636
aF0.085129
aF0.107408
aF0.063379
aF0.106154
aF0.105888
aF0.139636
aF0.07119
aF0.059832
aF0.114581
aF0.106534
aF0.042994
aF0.097341
aF0.139636
aF0.097355
aF0.043077
aF0.106698
aF0.085083
aF0.139636
aF0.104437
aF0.042994
aF0.091315
aF0.065437
aF0.139636
aF0.075208
aF0.107117
aF0.062862
aF0.098822
aF0.042994
aF0.065437
aF0.098491
aF0.058094
aF0.139636
aF0.042994
aF0.058063
aF0.107341
aF0.063711
aF0.096744
aF0.054719
aF0.042994
aF0.107422
aF0.054612
aF0.139636
aF0.085172
aF0.04332
aF0.044277
aF0.044946
aF0.139636
aF0.042994
aF0.10723
aF0.049003
aF0.083255
aF0.1288
aF0.138802
aF0.042994
aF0.056357
aF0.042994
aF0.083255
aF0.127827
aF0.139636
aF0.139636
aF0.051594
aF0.047147
aF0.042994
aF0.077343
aF0.102649
aF0.118766
aF0.079347
aF0.050153
aF0.139147
aF0.139636
aF0.10624
aF0.067381
aF0.065287
aF0.042994
aF0.105617
aF0.104437
aF0.042994
aF0.139636
aF0.042994
aF0.042994
aF0.124536
aF0.042994
aF0.042994
aF0.047766
aF0.139636
aF0.139636
aF0.102087
aF0.061514
aF0.106661
aF0.139636
aF0.104653
aF0.047903
aF0.130398
aF0.103711
aF0.105191
aF0.081217
aF0.109058
aF0.058094
aF0.081261
aF0.139636
aF0.049271
aF0.107096
aF0.137734
aF0.139636
aF0.061655
aF0.103711
aF0.047819
aF0.107422
aF0.100997
aF0.095804
aF0.042994
aF0.042994
aF0.109058
aF0.073196
aF0.042994
aF0.047903
aF0.132705
aF0.044946
aF0.042994
aF0.139636
aF0.103905
aF0.132477
aF0.042994
aF0.121987
aF0.107398
aF0.106394
aF0.139636
aF0.042994
aF0.097089
aF0.107274
aF0.085289
aF0.042994
aF0.053061
aF0.139636
aF0.070322
aF0.139636
aF0.066932
aF0.0553
aF0.10547
aF0.139636
aF0.107415
aF0.139636
aF0.075342
aF0.139636
aF0.139636
aF0.07722
aF0.125015
aF0.063526
aF0.063711
aF0.042994
aF0.042994
aF0.139636
aF0.139636
aF0.07751
aF0.042994
aF0.042994
aF0.05168
aF0.139636
aF0.139636
aF0.139636
aF0.043717
aF0.104618
aF0.050292
aF0.107419
aF0.042994
aF0.092375
aF0.096744
aF0.104653
aF0.073856
aF0.106967
aF0.107339
aF0.099796
aF0.047819
aF0.042994
aF0.057937
aF0.106534
aF0.088902
aF0.050218
aF0.044946
aF0.042994
aF0.060683
aF0.073572
aF0.107384
aF0.079225
aF0.046747
aF0.042994
aF0.073338
aF0.108188
aF0.107178
aF0.107421
aF0.135483
aF0.045762
aF0.107311
aF0.044262
aF0.106877
aF0.139636
aF0.139636
aF0.124536
aF0.044895
aF0.056239
aF0.042994
aF0.042994
aF0.108188
aF0.056239
aF0.043717
aF0.042994
aF0.139636
aF0.106775
aF0.139636
aF0.04894
aF0.092479
aF0.107408
aF0.053061
aF0.139423
aF0.088954
aF0.107365
aF0.050218
aF0.044895
aF0.087049
aF0.071339
asS'LShoulderPitch'
p23
(lp24
F0.921174
aF0.58046
aF0.571016
aF1.482452
aF0.849925
aF0.840961
aF1.270912
aF0.691756
aF0.866648
aF0.70768
aF1.171698
aF0.572968
aF0.766347
aF0.762378
aF0.848725
aF0.859998
aF0.868608
aF0.565079
aF1.326751
aF1.076933
aF1.01006
aF0.536726
aF0.526704
aF0.947796
aF0.510679
aF0.829008
aF0.560438
aF0.660592
aF0.533246
aF0.90457
aF0.80777
aF0.510701
aF0.768225
aF0.892837
aF0.506847
aF1.26198
aF0.921174
aF1.396701
aF0.954351
aF1.495121
aF0.841802
aF1.147382
aF1.263066
aF0.598939
aF1.513823
aF0.816343
aF1.567646
aF0.633806
aF0.689976
aF1.578292
aF0.546586
aF0.991775
aF1.470089
aF0.697294
aF1.281813
aF0.50731
aF0.513139
aF0.607908
aF0.618379
aF1.544349
aF0.506576
aF0.513433
aF0.97257
aF0.843362
aF1.221088
aF0.823573
aF0.831843
aF0.51185
aF1.123429
aF1.288099
aF0.537895
aF0.855659
aF1.558648
aF0.550375
aF0.507391
aF0.868608
aF1.514262
aF0.823875
aF0.965654
aF0.508001
aF0.820171
aF1.090236
aF0.554907
aF1.117759
aF0.509607
aF1.076933
aF0.86581
aF0.590017
aF0.857949
aF0.740509
aF1.117759
aF0.715535
aF0.601921
aF0.50792
aF1.523101
aF1.341613
aF0.855383
aF1.147833
aF0.875289
aF1.41476
aF1.529241
aF0.831522
aF1.341635
aF0.519038
aF0.717596
aF1.504542
aF1.586188
aF1.470089
aF0.526704
aF1.263066
aF0.86268
aF1.517843
aF0.762378
aF0.525771
aF0.591142
aF1.549864
aF1.382005
aF1.474682
aF0.736956
aF0.644624
aF0.511973
aF0.533105
aF1.379721
aF0.654241
aF0.776886
aF0.831595
aF0.834666
aF0.719889
aF0.567245
aF0.633806
aF0.516177
aF0.523901
aF0.849925
aF1.062673
aF1.196295
aF1.538119
aF0.820386
aF0.820171
aF1.138625
aF0.554289
aF1.495613
aF1.222613
aF0.533246
aF0.776886
aF0.740509
aF1.427995
aF0.52135
aF0.50634
aF0.752482
aF1.245989
aF0.863141
aF0.506288
aF0.82642
aF1.314789
aF0.644624
aF0.82642
aF0.80777
aF1.01189
aF0.546586
aF0.601921
aF0.997095
aF0.549414
aF1.300244
aF0.825062
aF0.518039
aF0.529768
aF1.234298
aF0.82983
aF1.537494
aF0.829008
aF0.73916
aF0.880663
aF1.551616
aF1.513823
aF0.543316
aF1.09992
aF0.902509
aF1.300244
aF0.630574
aF1.470089
aF1.425091
aF0.544869
aF0.780411
aF0.522772
aF1.333532
aF0.698273
aF0.846442
aF0.855659
aF0.506847
aF1.299122
aF0.705358
aF0.860529
aF0.567245
aF1.451132
aF1.362797
aF0.506917
aF1.088092
aF0.508683
aF1.118006
aF1.234633
aF0.824369
aF0.577331
aF0.840324
aF0.509645
aF0.8706
aF0.508752
aF0.506525
aF1.054547
aF0.678485
aF1.175037
aF1.147833
aF1.549864
aF1.541835
aF0.510679
aF0.514563
aF1.028895
aF1.531056
aF1.222613
aF1.471354
aF0.506367
aF0.506917
aF0.529768
aF1.493939
aF0.794332
aF1.495121
aF0.837381
aF1.551616
aF0.689168
aF0.875289
aF0.824369
aF1.058312
aF0.866896
aF0.826838
aF0.726728
aF1.537494
aF1.366118
aF1.295764
aF0.859998
aF0.937194
aF1.396331
aF1.456868
aF0.994442
aF1.177354
aF0.58046
aF0.849508
aF1.03284
aF1.55408
aF1.396701
aF0.913631
aF0.768225
aF0.864463
aF0.837381
aF0.520214
aF1.456868
aF0.858076
aF1.482452
aF0.866464
aF0.50634
aF0.559507
aF0.529238
aF0.70768
aF1.320416
aF1.181053
aF1.042051
aF0.79471
aF1.320416
aF1.482452
aF1.042051
aF0.507391
aF0.865251
aF0.540644
aF1.412465
aF0.906365
aF0.843362
aF1.362797
aF0.584036
aF0.934752
aF0.852508
aF1.396331
aF0.678851
aF0.703676
aF0.960253
asS'LHipPitch'
p25
(lp26
F0.07197
aF-0.033649
aF0.2456
aF0.118426
aF0.057629
aF0.061212
aF0.10299
aF0.071197
aF0.056015
aF-0.129963
aF0.095459
aF-0.011996
aF0.061874
aF0.083601
aF0.06249
aF0.057041
aF0.065333
aF0.245712
aF0.209363
aF0.08748
aF0.095004
aF0.246262
aF0.246466
aF-0.113247
aF0.247016
aF0.055266
aF0.033941
aF0.24025
aF0.169121
aF0.226529
aF0.059374
aF0.246825
aF0.233904
aF0.068511
aF0.24694
aF0.211293
aF0.07197
aF-0.006094
aF0.075651
aF0.111613
aF0.057966
aF0.093489
aF-0.043327
aF0.244453
aF0.065354
aF-0.128677
aF0.117096
aF-0.103815
aF0.074523
aF0.117862
aF0.104491
aF0.079501
aF0.118426
aF0.069624
aF0.210527
aF0.246922
aF0.247016
aF0.243837
aF0.2431
aF0.119694
aF0.246996
aF0.246758
aF0.077559
aF0.055294
aF0.099309
aF0.056534
aF0.058334
aF0.247016
aF0.091497
aF0.103979
aF0.148784
aF0.057041
aF0.101059
aF0.081194
aF0.247007
aF0.065333
aF0.119611
aF0.05599
aF0.22354
aF0.24701
aF0.231016
aF-0.087754
aF0.057567
aF0.098703
aF0.246853
aF0.08748
aF0.055875
aF-0.053986
aF0.063866
aF-0.131882
aF0.098703
aF0.066694
aF-0.072679
aF0.246902
aF0.119694
aF0.10564
aF0.055428
aF0.215367
aF0.228033
aF0.108773
aF0.075566
aF0.055266
aF0.108076
aF0.24663
aF0.079872
aF0.119368
aF0.118505
aF0.117742
aF0.246466
aF-0.043327
aF0.05565
aF0.11411
aF0.083601
aF0.204533
aF0.244938
aF0.119694
aF0.107239
aF0.043029
aF0.081725
aF0.24025
aF0.246793
aF0.246335
aF0.111094
aF-0.115601
aF-0.131062
aF0.087401
aF0.060038
aF0.236628
aF0.010643
aF-0.103815
aF0.245098
aF0.246525
aF0.057629
aF0.096867
aF0.097401
aF0.119694
aF0.058787
aF0.231016
aF-0.077542
aF0.245918
aF0.054471
aF-0.055217
aF0.187814
aF-0.131882
aF-0.131882
aF0.114922
aF0.24658
aF0.246968
aF0.062933
aF0.101174
aF0.056788
aF0.246979
aF0.058034
aF0.209363
aF0.241298
aF0.058977
aF0.059374
aF0.081471
aF0.104491
aF-0.072679
aF0.222073
aF0.246012
aF0.209881
aF0.055592
aF0.239561
aF0.246335
aF0.102266
aF0.058977
aF0.115213
aF0.055266
aF0.064094
aF0.066884
aF0.09353
aF0.065354
aF0.127131
aF0.089492
aF-0.119657
aF0.209363
aF0.242251
aF0.117742
aF0.018915
aF0.2461
aF0.060924
aF0.21895
aF-0.018654
aF0.237907
aF0.055314
aF0.057321
aF0.24694
aF-0.031103
aF0.068121
aF0.055561
aF0.033941
aF0.031139
aF0.109627
aF0.247002
aF0.217888
aF0.246879
aF0.216595
aF0.212168
aF0.057218
aF0.245482
aF0.05528
aF0.247015
aF0.089311
aF0.247013
aF0.246955
aF0.085468
aF0.239117
aF0.100505
aF0.215367
aF0.119694
aF0.084995
aF0.247015
aF0.247016
aF0.220636
aF0.119694
aF-0.066659
aF0.111613
aF0.246988
aF0.247002
aF0.246403
aF0.11897
aF0.060088
aF0.112908
aF0.055272
aF0.09353
aF0.072832
aF0.228033
aF0.058034
aF0.219238
aF0.056175
aF0.055349
aF0.06535
aF0.115213
aF-0.006094
aF0.104751
aF0.057041
aF0.073786
aF0.11247
aF0.117742
aF-0.105718
aF0.214214
aF-0.011996
aF0.055342
aF0.083463
aF0.11621
aF0.006466
aF0.091219
aF0.232476
aF0.055754
aF0.055272
aF0.230736
aF0.116926
aF0.055488
aF0.118426
aF0.056356
aF0.246968
aF0.245818
aF0.187814
aF-0.124427
aF0.106449
aF-0.066659
aF-0.097183
aF0.232476
aF0.106449
aF0.11897
aF-0.097183
aF0.247007
aF0.05656
aF0.246184
aF0.113748
aF0.070209
aF0.055294
aF0.109627
aF0.245284
aF0.225029
aF0.05538
aF0.11247
aF-0.124427
aF0.07805
aF0.093119
asS'LElbowYaw'
p27
(lp28
F-1.262138
aF-0.207943
aF-0.900498
aF-1.13233
aF-1.277956
aF-1.279974
aF-1.182938
aF-1.218775
aF-1.283511
aF-0.210701
aF-1.205602
aF-0.226746
aF-1.255915
aF-1.171648
aF-1.278216
aF-1.280723
aF-1.273723
aF-0.900596
aF-1.126275
aF-1.227118
aF-1.129779
aF-0.901481
aF-0.902035
aF-0.364405
aF-0.854163
aF-1.284147
aF-0.27922
aF-0.909199
aF-0.516618
aF-0.977891
aF-1.267763
aF-0.90314
aF-0.935324
aF-1.268363
aF-0.902103
aF-1.095394
aF-1.262138
aF-0.826355
aF-1.254753
aF-1.105504
aF-1.276088
aF-1.211132
aF-0.650987
aF-0.900443
aF-1.003181
aF-0.273071
aF-1.112318
aF-0.180939
aF-1.206298
aF-1.113627
aF-0.386991
aF-1.246355
aF-1.135088
aF-1.224706
aF-1.104084
aF-0.902563
aF-0.817332
aF-0.900951
aF-0.902001
aF-1.120677
aF-0.895179
aF-0.903007
aF-1.250671
aF-1.284004
aF-1.194343
aF-1.284182
aF-1.273749
aF-0.838219
aF-1.216573
aF-1.100873
aF-0.472054
aF-1.279526
aF-1.088242
aF-0.348155
aF-0.888031
aF-1.273723
aF-1.125763
aF-1.284288
aF-0.997203
aF-0.882662
aF-0.950781
aF-0.477949
aF-0.312082
aF-1.117035
aF-0.903128
aF-1.227118
aF-1.283715
aF-0.193771
aF-1.276132
aF-0.228089
aF-1.117035
aF-1.235906
aF-0.184435
aF-0.902865
aF-1.12412
aF-1.097911
aF-1.284054
aF-1.058859
aF-0.968556
aF-1.098833
aF-1.029754
aF-1.284092
aF-1.166608
aF-0.902579
aF-1.186102
aF-1.127672
aF-1.114684
aF-1.135088
aF-0.902035
aF-0.650987
aF-1.283953
aF-1.107314
aF-1.171648
aF-0.604963
aF-0.900322
aF-1.119933
aF-1.097427
aF-0.940449
aF-1.178977
aF-0.906082
aF-0.903095
aF-0.901662
aF-1.157219
aF-0.186981
aF-0.248931
aF-1.156198
aF-1.281407
aF-0.922873
aF-0.249951
aF-0.180939
aF-0.760466
aF-0.902222
aF-1.277956
aF-1.123372
aF-1.199999
aF-1.121596
aF-1.270965
aF-0.950781
aF-0.518893
aF-0.900841
aF-0.973336
aF-0.606659
aF-0.516618
aF-0.248931
aF-0.228089
aF-1.145032
aF-0.902404
aF-0.900503
aF-1.251308
aF-1.18865
aF-1.281633
aF-0.899224
aF-1.283342
aF-1.120384
aF-0.906082
aF-1.283342
aF-1.267763
aF-1.241823
aF-0.386991
aF-0.184435
aF-1.007071
aF-0.900984
aF-1.112268
aF-1.284267
aF-0.72582
aF-0.901848
aF-1.104502
aF-1.282525
aF-1.109104
aF-1.284147
aF-1.246419
aF-1.270996
aF-1.072383
aF-1.003181
aF-0.428072
aF-1.221907
aF-0.330701
aF-1.112268
aF-0.903692
aF-1.135088
aF-0.866648
aF-0.90114
aF-1.260211
aF-0.647423
aF-0.740725
aF-0.917614
aF-1.284022
aF-1.279526
aF-0.902103
aF-0.696167
aF-1.23042
aF-1.284011
aF-0.249951
aF-0.904787
aF-1.161692
aF-0.892102
aF-1.038394
aF-0.903044
aF-1.048766
aF-1.086945
aF-1.283882
aF-0.900419
aF-1.283988
aF-0.866327
aF-1.149477
aF-0.875601
aF-0.901436
aF-1.232186
aF-0.913047
aF-1.110753
aF-1.058859
aF-1.119933
aF-1.052866
aF-0.854163
aF-0.791192
aF-1.017002
aF-1.122734
aF-0.606659
aF-1.103005
aF-0.897494
aF-0.892102
aF-0.901848
aF-1.129858
aF-1.264169
aF-1.105504
aF-1.283978
aF-1.072383
aF-1.212637
aF-0.968556
aF-1.283882
aF-1.027791
aF-1.283228
aF-1.284204
aF-1.241276
aF-1.109104
aF-0.784253
aF-1.177227
aF-1.280723
aF-1.258581
aF-1.152937
aF-1.13813
aF-0.40039
aF-1.068622
aF-0.207943
aF-1.284039
aF-1.237094
aF-1.110793
aF-0.826355
aF-1.142831
aF-0.935324
aF-1.283858
aF-1.283978
aF-0.687918
aF-1.13813
aF-1.284043
aF-1.13233
aF-1.282841
aF-0.900503
aF-0.900711
aF-0.561139
aF-0.210701
aF-1.171556
aF-0.562485
aF-0.438343
aF-0.942425
aF-1.171556
aF-1.13233
aF-0.438343
aF-0.888031
aF-1.282323
aF-0.901306
aF-1.148868
aF-1.265405
aF-1.284004
aF-1.161692
aF-0.90036
aF-0.987457
aF-1.284051
aF-1.152937
aF-0.196931
aF-1.193032
aF-1.136264
asS'LAnklePitch'
p29
(lp30
F0.072851
aF0.02815
aF0.093417
aF0.075064
aF0.079575
aF0.072339
aF0.074329
aF0.07895
aF0.077299
aF0.006524
aF0.07397
aF0.033019
aF0.079575
aF0.078019
aF0.0724
aF0.079158
aF0.072535
aF0.093314
aF0.120628
aF0.07359
aF0.077126
aF0.092914
aF0.092822
aF0.011207
aF0.092307
aF0.072056
aF0.043359
aF0.097603
aF0.073912
aF0.107883
aF0.079701
aF0.092765
aF0.102376
aF0.072687
aF0.092751
aF0.1192
aF0.072851
aF0.040609
aF0.073027
aF0.075788
aF0.079687
aF0.073876
aF0.030393
aF0.094381
aF0.060214
aF0.006974
aF0.075338
aF0.01239
aF0.078707
aF0.075275
aF0.059273
aF0.07321
aF0.075064
aF0.079062
aF0.119766
aF0.092758
aF0.092113
aF0.094862
aF0.095431
aF0.075124
aF0.092653
aF0.092766
aF0.073118
aF0.072916
aF0.074153
aF0.072116
aF0.079726
aF0.092216
aF0.073781
aF0.076407
aF0.069296
aF0.079158
aF0.070011
aF0.054012
aF0.092572
aF0.072535
aF0.07512
aF0.072091
aF0.110108
aF0.092519
aF0.104537
aF0.018202
aF0.048683
aF0.076831
aF0.092765
aF0.07359
aF0.076841
aF0.023579
aF0.072466
aF0.006094
aF0.076831
aF0.079267
aF0.01938
aF0.092762
aF0.075124
aF0.076273
aF0.074483
aF0.116179
aF0.106762
aF0.076019
aF0.063016
aF0.072095
aF0.074571
aF0.092779
aF0.078305
aF0.075108
aF0.075222
aF0.075031
aF0.092822
aF0.030393
aF0.075891
aF0.075584
aF0.078019
aF0.081987
aF0.093994
aF0.075124
aF0.076143
aF0.054088
aF0.078164
aF0.097603
aF0.092765
aF0.092877
aF0.074715
aF0.009745
aF0.006319
aF0.077724
aF0.072283
aF0.100333
aF0.038113
aF0.01239
aF0.091452
aF0.092803
aF0.079575
aF0.076977
aF0.074062
aF0.075124
aF0.07972
aF0.104537
aF0.021005
aF0.093142
aF0.057227
aF0.02713
aF0.078167
aF0.006094
aF0.006094
aF0.074897
aF0.092789
aF0.092727
aF0.079512
aF0.074242
aF0.078866
aF0.092708
aF0.072188
aF0.120628
aF0.096808
aF0.072233
aF0.079701
aF0.073304
aF0.059273
aF0.01938
aF0.111199
aF0.093072
aF0.120245
aF0.072072
aF0.090104
aF0.092877
aF0.076545
aF0.072233
aF0.075493
aF0.072056
aF0.079439
aF0.072609
aF0.067945
aF0.060214
aF0.064392
aF0.073686
aF0.009448
aF0.120628
aF0.096082
aF0.075031
aF0.047471
aF0.093011
aF0.079628
aF0.085298
aF0.037163
aF0.099372
aF0.073255
aF0.079397
aF0.092751
aF0.033747
aF0.079168
aF0.075413
aF0.043359
aF0.050825
aF0.074645
aF0.092616
aF0.114308
aF0.092764
aF0.115268
aF0.118551
aF0.072149
aF0.093532
aF0.072624
aF0.092388
aF0.077575
aF0.092458
aF0.092741
aF0.073494
aF0.098459
aF0.076687
aF0.116179
aF0.075124
aF0.065603
aF0.092388
aF0.091998
aF0.112267
aF0.075124
aF0.023991
aF0.075788
aF0.092684
aF0.092616
aF0.092847
aF0.07509
aF0.07967
aF0.075682
aF0.072386
aF0.067945
aF0.078831
aF0.106762
aF0.072188
aF0.113306
aF0.077738
aF0.07206
aF0.079357
aF0.075493
aF0.040609
aF0.074412
aF0.079158
aF0.072938
aF0.07478
aF0.075031
aF0.013273
aF0.117034
aF0.033019
aF0.073633
aF0.073399
aF0.075411
aF0.044055
aF0.077425
aF0.103445
aF0.076369
aF0.072386
aF0.088029
aF0.074992
aF0.074941
aF0.075064
aF0.078149
aF0.092727
aF0.093223
aF0.078167
aF0.007766
aF0.074493
aF0.023991
aF0.015615
aF0.103445
aF0.074493
aF0.07509
aF0.015615
aF0.092572
aF0.078528
aF0.092958
aF0.074841
aF0.072768
aF0.072916
aF0.074645
aF0.093709
aF0.109
aF0.074045
aF0.07478
aF0.007766
aF0.078443
aF0.077275
asS'RHipYawPitch'
p31
(lp32
F-0.202711
aF-0.311758
aF-0.282215
aF-0.20545
aF-0.199395
aF-0.201843
aF-0.204624
aF-0.200413
aF-0.199683
aF-0.321897
aF-0.204197
aF-0.309479
aF-0.199579
aF-0.201654
aF-0.201962
aF-0.199444
aF-0.202206
aF-0.282215
aF-0.315298
aF-0.203724
aF-0.202845
aF-0.282215
aF-0.282215
aF-0.313463
aF-0.282215
aF-0.200912
aF-0.304644
aF-0.286473
aF-0.290414
aF-0.299088
aF-0.199411
aF-0.282215
aF-0.292238
aF-0.202457
aF-0.282215
aF-0.313462
aF-0.202711
aF-0.257986
aF-0.202967
aF-0.20477
aF-0.199382
aF-0.204083
aF-0.281061
aF-0.282879
aF-0.230697
aF-0.320613
aF-0.205228
aF-0.319144
aF-0.200737
aF-0.205313
aF-0.297217
aF-0.203223
aF-0.205415
aF-0.200263
aF-0.31419
aF-0.282215
aF-0.282215
aF-0.283372
aF-0.283987
aF-0.205514
aF-0.282215
aF-0.282215
aF-0.203095
aF-0.200473
aF-0.204418
aF-0.201289
aF-0.199378
aF-0.282215
aF-0.203966
aF-0.203803
aF-0.292555
aF-0.199416
aF-0.21415
aF-0.29967
aF-0.282215
aF-0.202206
aF-0.20551
aF-0.201188
aF-0.301889
aF-0.282215
aF-0.294909
aF-0.301649
aF-0.302157
aF-0.203238
aF-0.282215
aF-0.203724
aF-0.199748
aF-0.313899
aF-0.202083
aF-0.322099
aF-0.203238
aF-0.19999
aF-0.315867
aF-0.282215
aF-0.205514
aF-0.203982
aF-0.200127
aF-0.309597
aF-0.297684
aF-0.204321
aF-0.225964
aF-0.200826
aF-0.204903
aF-0.282215
aF-0.201273
aF-0.205498
aF-0.205383
aF-0.205415
aF-0.282215
aF-0.281061
aF-0.199889
aF-0.204901
aF-0.201654
aF-0.286687
aF-0.282515
aF-0.205514
aF-0.204155
aF-0.241042
aF-0.201461
aF-0.285546
aF-0.282215
aF-0.282215
aF-0.205066
aF-0.320385
aF-0.321719
aF-0.202047
aF-0.201726
aF-0.289741
aF-0.307096
aF-0.319144
aF-0.282416
aF-0.282215
aF-0.199395
aF-0.203043
aF-0.204309
aF-0.205514
aF-0.199386
aF-0.294909
aF-0.296917
aF-0.282215
aF-0.23574
aF-0.286571
aF-0.290414
aF-0.321719
aF-0.322099
aF-0.205268
aF-0.282215
aF-0.282215
aF-0.199664
aF-0.204523
aF-0.199479
aF-0.282215
aF-0.201501
aF-0.315298
aF-0.285546
aF-0.201612
aF-0.199411
aF-0.20335
aF-0.297217
aF-0.315867
aF-0.303268
aF-0.282215
aF-0.314805
aF-0.201092
aF-0.282999
aF-0.282215
aF-0.203619
aF-0.201612
aF-0.205022
aF-0.200912
aF-0.199761
aF-0.202331
aF-0.217639
aF-0.230697
aF-0.294834
aF-0.203846
aF-0.316434
aF-0.314805
aF-0.284714
aF-0.205415
aF-0.252217
aF-0.282215
aF-0.199509
aF-0.285169
aF-0.269627
aF-0.28858
aF-0.200384
aF-0.199416
aF-0.282215
aF-0.275396
aF-0.200122
aF-0.199965
aF-0.307096
aF-0.246552
aF-0.204987
aF-0.282215
aF-0.307213
aF-0.282215
aF-0.308435
aF-0.312631
aF-0.201393
aF-0.282215
aF-0.200561
aF-0.282215
aF-0.202246
aF-0.282215
aF-0.282215
aF-0.203601
aF-0.287488
aF-0.203431
aF-0.309597
aF-0.205514
aF-0.221594
aF-0.282215
aF-0.282215
aF-0.30462
aF-0.205514
aF-0.286571
aF-0.204629
aF-0.282215
aF-0.282215
aF-0.282215
aF-0.205478
aF-0.199453
aF-0.20477
aF-0.20065
aF-0.217639
aF-0.200571
aF-0.297684
aF-0.201501
aF-0.305938
aF-0.199624
aF-0.200999
aF-0.19987
aF-0.205022
aF-0.263807
aF-0.204721
aF-0.199444
aF-0.202839
aF-0.205139
aF-0.205372
aF-0.309974
aF-0.310689
aF-0.311758
aF-0.200297
aF-0.203476
aF-0.205131
aF-0.257986
aF-0.202446
aF-0.292238
aF-0.199816
aF-0.20065
aF-0.283928
aF-0.205372
aF-0.200045
aF-0.205415
aF-0.19957
aF-0.282215
aF-0.282215
aF-0.288446
aF-0.321314
aF-0.204815
aF-0.291873
aF-0.306019
aF-0.293556
aF-0.204815
aF-0.205478
aF-0.306019
aF-0.282215
aF-0.199522
aF-0.282215
aF-0.205206
aF-0.202584
aF-0.200473
aF-0.204987
aF-0.282291
aF-0.300493
aF-0.200211
aF-0.205139
aF-0.321314
aF-0.201088
aF-0.202646
asS'HeadPitch'
p33
(lp34
F-0.062294
aF0.338335
aF0.093621
aF0.037666
aF-0.001435
aF-0.075295
aF-0.004279
aF0.193184
aF-0.05105
aF0.328477
aF-0.020349
aF0.331831
aF0.108708
aF0.189332
aF-0.074207
aF-0.02398
aF-0.071205
aF0.109441
aF0.027925
aF-0.035971
aF0.158839
aF0.198733
aF0.221659
aF0.278621
aF0.076576
aF-0.076143
aF0.312519
aF0.027925
aF0.221616
aF0.027925
aF0.058965
aF0.178653
aF0.027925
aF-0.067197
aF0.120484
aF0.027925
aF-0.062294
aF0.161438
aF-0.056608
aF0.086174
aF0.012178
aF-0.024331
aF0.197646
aF0.042405
aF0.097144
aF0.306933
aF0.065666
aF0.341223
aF0.198968
aF0.061749
aF0.271431
aF-0.050251
aF0.037666
aF0.186382
aF0.027925
aF0.132117
aF0.095888
aF0.034629
aF0.029668
aF0.050667
aF0.074226
aF0.198586
aF-0.053507
aF-0.07305
aF-0.012314
aF-0.07672
aF0.026971
aF0.085263
aF-0.028272
aF0.125541
aF0.238787
aF-0.013582
aF0.066814
aF0.28642
aF0.065729
aF-0.071205
aF0.044692
aF-0.076667
aF0.027925
aF0.064577
aF0.027925
aF0.245572
aF0.300197
aF0.14595
aF0.167496
aF-0.035971
aF-0.054549
aF0.342416
aF-0.072839
aF0.322173
aF0.14595
aF0.166374
aF0.34383
aF0.14399
aF0.046577
aF0.118666
aF-0.067379
aF0.027925
aF0.027925
aF0.105131
aF0.088358
aF-0.07579
aF0.007528
aF0.218955
aF0.195337
aF0.042569
aF0.058424
aF0.034914
aF0.221659
aF0.197646
aF-0.060563
aF0.080429
aF0.189332
aF0.186791
aF0.052595
aF0.051461
aF0.111845
aF0.11667
aF0.192657
aF0.027925
aF0.189096
aF0.208922
aF0.015074
aF0.338077
aF0.314967
aF0.18096
aF-0.076089
aF0.027925
aF0.323144
aF0.341223
aF0.121987
aF0.223402
aF-0.001435
aF0.152502
aF-0.016338
aF0.049579
aF0.042662
aF0.027925
aF0.233853
aF0.141886
aF0.106606
aF0.209815
aF0.204204
aF0.314967
aF0.322173
aF0.025623
aF0.222251
aF0.098883
aF0.124621
aF-0.00829
aF-0.032345
aF0.089394
aF-0.076742
aF0.027925
aF0.027925
aF-0.076577
aF0.058965
aF-0.046856
aF0.271431
aF0.34383
aF0.027925
aF0.157707
aF0.027925
aF-0.076564
aF0.136976
aF0.208922
aF0.132416
aF-0.076577
aF0.07506
aF-0.076143
aF0.139726
aF-0.06932
aF0.073118
aF0.097144
aF0.255473
aF-0.032156
aF0.288685
aF0.027925
aF0.027925
aF0.034914
aF0.138302
aF0.172723
aF0.092272
aF0.16962
aF0.173382
aF0.027925
aF-0.071948
aF-0.013582
aF0.120484
aF0.185476
aF0.17735
aF-0.063113
aF0.323144
aF0.127261
aF0.011343
aF0.069024
aF0.027925
aF0.155862
aF0.027925
aF0.027925
aF-0.076739
aF0.078604
aF-0.073968
aF0.070072
aF0.176022
aF0.065991
aF0.109326
aF-0.039702
aF0.027925
aF0.139237
aF0.027925
aF0.051461
aF0.080325
aF0.070072
aF0.10821
aF0.027925
aF0.048211
aF0.221909
aF0.092242
aF0.081095
aF0.069024
aF0.216699
aF0.040222
aF0.075596
aF0.086174
aF-0.07472
aF0.073118
aF0.197474
aF0.027925
aF-0.076742
aF0.027925
aF-0.047203
aF-0.076395
aF0.153738
aF0.07506
aF0.161438
aF-0.000297
aF-0.02398
aF-0.059542
aF0.018707
aF0.034914
aF0.268031
aF0.027925
aF0.338335
aF-0.070647
aF-0.043335
aF0.070121
aF0.14972
aF0.170653
aF0.027925
aF-0.057714
aF-0.07472
aF0.152934
aF0.03198
aF-0.065379
aF0.037666
aF-0.042989
aF0.098883
aF0.125664
aF0.204204
aF0.333804
aF0.003644
aF0.221909
aF0.256989
aF0.027925
aF0.003644
aF0.040222
aF0.256989
aF0.065729
aF-0.038392
aF0.186532
aF0.022228
aF-0.06485
aF-0.07305
aF0.011343
aF0.064795
aF0.027925
aF-0.06913
aF0.018707
aF0.333804
aF0.197318
aF0.164907
asS'LElbowRoll'
p35
(lp36
F-0.996668
aF-1.405478
aF-0.463621
aF-0.849907
aF-1.221251
aF-0.95236
aF-1.042027
aF-1.501111
aF-1.109527
aF-1.403333
aF-1.062901
aF-1.384974
aF-1.378909
aF-1.468765
aF-0.956896
aF-1.185602
aF-0.968143
aF-0.46394
aF-0.598742
aF-1.052058
aF-1.284056
aF-0.467881
aF-0.471663
aF-1.273809
aF-0.632594
aF-0.956193
aF-1.327477
aF-0.504188
aF-1.057929
aF-0.742868
aF-1.308285
aF-0.490752
aF-0.612382
aF-0.981695
aF-0.512373
aF-0.722703
aF-0.996668
aF-0.919358
aF-1.012103
aF-0.841319
aF-1.24114
aF-1.062452
aF-1.041842
aF-0.4636
aF-0.802368
aF-1.350519
aF-0.756772
aF-1.432749
aF-1.511896
aF-0.743827
aF-1.206773
aF-1.027094
aF-0.867287
aF-1.490619
aF-0.691477
aF-0.507235
aF-0.68684
aF-0.466031
aF-0.471024
aF-0.761639
aF-0.547261
aF-0.484492
aF-1.019711
aF-0.991888
aF-1.057167
aF-0.943862
aF-1.26252
aF-0.657087
aF-1.060169
aF-1.060588
aF-1.109482
aF-1.202865
aF-0.752177
aF-1.250784
aF-0.567847
aF-0.968143
aF-0.803024
aF-0.945371
aF-0.786484
aF-0.580433
aF-0.665464
aF-1.177107
aF-1.291178
aF-1.19904
aF-0.494337
aF-1.052058
aF-1.095725
aF-1.420605
aF-0.962189
aF-1.388237
aF-1.19904
aF-1.461232
aF-1.430222
aF-0.502545
aF-0.789951
aF-1.013253
aF-1.032979
aF-0.819003
aF-0.718092
aF-0.93608
aF-0.785844
aF-0.961695
aF-1.003947
aF-0.477081
aF-1.497328
aF-0.817538
aF-0.734054
aF-0.867287
aF-0.471663
aF-1.041842
aF-1.069329
aF-0.815333
aF-1.468765
aF-0.95374
aF-0.463021
aF-0.755543
aF-0.972935
aF-0.842784
aF-1.484633
aF-0.490036
aF-0.487478
aF-0.46898
aF-0.972875
aF-1.425835
aF-1.37064
aF-1.424135
aF-0.948673
aF-0.563046
aF-1.359282
aF-1.432749
aF-0.762105
aF-0.473271
aF-1.221251
aF-1.242506
aF-1.061195
aF-0.769174
aF-1.285024
aF-0.665464
aF-1.141888
aF-0.464823
aF-0.821395
aF-1.075249
aF-1.057929
aF-1.37064
aF-1.388237
aF-0.921357
aF-0.475072
aF-0.524221
aF-1.4015
aF-1.050765
aF-1.169211
aF-0.531087
aF-0.94416
aF-0.6244
aF-0.490036
aF-0.94416
aF-1.308285
aF-1.034137
aF-1.206773
aF-1.430222
aF-0.804161
aF-0.465409
aF-0.658102
aF-0.947972
aF-0.80606
aF-0.470237
aF-1.10742
aF-0.945915
aF-0.79253
aF-0.956193
aF-1.422998
aF-0.974656
aF-0.760701
aF-0.802368
aF-1.159704
aF-1.056575
aF-1.302543
aF-0.658102
aF-0.478973
aF-0.867287
aF-0.891962
aF-0.466106
aF-1.355597
aF-0.902655
aF-0.978612
aF-0.541001
aF-1.001252
aF-1.202865
aF-0.512373
aF-1.009869
aF-1.477205
aF-1.056756
aF-1.359282
aF-0.866369
aF-0.988088
aF-0.556891
aF-0.831498
aF-0.498257
aF-0.828583
aF-0.754039
aF-0.943462
aF-0.463369
aF-0.983201
aF-0.612209
aF-1.393799
aF-0.595048
aF-0.518012
aF-1.046735
aF-0.521266
aF-1.153938
aF-0.819003
aF-0.755543
aF-0.771932
aF-0.632594
aF-0.722104
aF-0.818301
aF-0.778578
aF-1.075249
aF-0.87012
aF-0.53872
aF-0.556891
aF-0.470237
aF-0.833246
aF-1.331932
aF-0.841319
aF-0.975239
aF-0.760701
aF-1.508322
aF-0.718092
aF-0.943462
aF-0.82787
aF-1.123736
aF-0.951603
aF-1.443033
aF-0.79253
aF-0.948342
aF-1.031058
aF-1.185602
aF-1.004384
aF-0.956463
aF-0.88515
aF-1.24321
aF-0.803002
aF-1.405478
aF-1.011251
aF-1.040722
aF-0.772998
aF-0.919358
aF-1.360074
aF-0.612382
aF-1.082324
aF-0.975239
aF-0.853177
aF-0.88515
aF-1.044629
aF-0.867287
aF-1.138381
aF-0.524221
aF-0.464337
aF-1.005761
aF-1.403333
aF-1.018032
aF-1.108687
aF-1.210923
aF-0.638727
aF-1.018032
aF-0.849907
aF-1.210923
aF-0.567847
aF-1.153512
aF-0.466926
aF-0.939187
aF-0.989068
aF-0.991888
aF-0.988088
aF-0.463173
aF-0.765858
aF-1.02184
aF-0.956463
aF-1.415942
aF-1.506739
aF-1.323365
asS'RShoulderRoll'
p37
(lp38
F-0.139898
aF-0.242625
aF-0.24119
aF-0.185164
aF-0.089546
aF-0.122766
aF-0.173367
aF-0.120031
aF-0.087911
aF-0.247096
aF-0.166654
aF-0.241684
aF-0.100141
aF-0.143267
aF-0.125141
aF-0.088291
aF-0.129997
aF-0.241582
aF-0.143465
aF-0.158654
aF-0.161377
aF-0.24253
aF-0.242336
aF-0.244677
aF-0.233565
aF-0.104295
aF-0.239731
aF-0.229292
aF-0.234218
aF-0.197412
aF-0.094268
aF-0.240379
aF-0.215305
aF-0.134938
aF-0.238514
aF-0.153327
aF-0.139898
aF-0.219323
aF-0.144811
aF-0.182427
aF-0.090434
aF-0.164767
aF-0.231551
aF-0.23803
aF-0.201683
aF-0.246812
aF-0.1857
aF-0.245821
aF-0.12661
aF-0.186175
aF-0.236807
aF-0.149612
aF-0.18466
aF-0.116833
aF-0.150533
aF-0.238912
aF-0.232728
aF-0.236732
aF-0.23521
aF-0.186662
aF-0.23637
aF-0.241016
aF-0.14723
aF-0.096697
aF-0.170182
aF-0.111741
aF-0.091508
aF-0.233125
aF-0.162802
aF-0.173213
aF-0.235016
aF-0.088834
aF-0.190969
aF-0.237764
aF-0.235448
aF-0.129997
aF-0.186144
aF-0.109752
aF-0.189582
aF-0.234976
aF-0.208518
aF-0.240552
aF-0.238743
aF-0.166531
aF-0.240034
aF-0.158654
aF-0.088267
aF-0.243525
aF-0.127554
aF-0.247199
aF-0.166531
aF-0.110715
aF-0.244369
aF-0.239299
aF-0.186328
aF-0.17514
aF-0.091917
aF-0.166531
aF-0.201217
aF-0.178527
aF-0.1985
aF-0.102644
aF-0.177476
aF-0.241806
aF-0.136657
aF-0.185901
aF-0.186523
aF-0.18466
aF-0.242336
aF-0.231551
aF-0.089371
aF-0.183417
aF-0.143267
aF-0.232918
aF-0.239109
aF-0.186727
aF-0.176912
aF-0.208626
aF-0.139982
aF-0.231487
aF-0.240707
aF-0.242508
aF-0.179766
aF-0.246388
aF-0.247109
aF-0.14966
aF-0.120438
aF-0.221462
aF-0.240715
aF-0.245821
aF-0.232181
aF-0.242193
aF-0.089546
aF-0.16402
aF-0.16846
aF-0.186578
aF-0.09278
aF-0.208518
aF-0.238665
aF-0.242125
aF-0.205085
aF-0.23401
aF-0.23351
aF-0.247109
aF-0.247199
aF-0.182603
aF-0.242015
aF-0.237685
aF-0.102528
aF-0.171818
aF-0.08791
aF-0.237256
aF-0.115952
aF-0.145563
aF-0.231487
aF-0.118164
aF-0.094268
aF-0.151952
aF-0.236807
aF-0.244369
aF-0.185594
aF-0.242307
aF-0.147937
aF-0.107847
aF-0.232089
aF-0.242442
aF-0.171133
aF-0.118164
aF-0.18433
aF-0.104295
aF-0.105099
aF-0.132461
aF-0.193082
aF-0.201683
aF-0.235885
aF-0.160763
aF-0.245596
aF-0.147937
aF-0.233461
aF-0.18466
aF-0.215815
aF-0.242433
aF-0.097956
aF-0.232465
aF-0.225873
aF-0.22427
aF-0.095375
aF-0.088834
aF-0.238514
aF-0.228835
aF-0.113721
aF-0.090107
aF-0.240715
aF-0.212227
aF-0.178666
aF-0.235913
aF-0.17398
aF-0.239673
aF-0.170225
aF-0.156297
aF-0.113809
aF-0.240668
aF-0.098092
aF-0.234028
aF-0.152741
aF-0.234501
aF-0.238104
aF-0.156478
aF-0.226884
aF-0.168904
aF-0.166531
aF-0.186727
aF-0.195611
aF-0.234028
aF-0.232404
aF-0.181582
aF-0.186469
aF-0.23401
aF-0.181284
aF-0.236817
aF-0.235913
aF-0.242442
aF-0.185578
aF-0.095992
aF-0.182427
aF-0.099551
aF-0.193082
aF-0.123296
aF-0.201217
aF-0.115952
aF-0.177772
aF-0.087692
aF-0.106028
aF-0.107835
aF-0.18433
aF-0.222691
aF-0.174826
aF-0.088291
aF-0.142365
aF-0.180775
aF-0.18466
aF-0.24354
aF-0.162922
aF-0.242625
aF-0.094133
aF-0.154243
aF-0.185089
aF-0.219323
aF-0.155728
aF-0.211984
aF-0.088756
aF-0.099551
aF-0.232179
aF-0.184065
aF-0.090958
aF-0.18466
aF-0.087616
aF-0.237685
aF-0.241884
aF-0.23351
aF-0.24682
aF-0.176196
aF-0.23649
aF-0.242171
aF-0.211984
aF-0.176196
aF-0.185578
aF-0.242171
aF-0.235448
aF-0.087687
aF-0.242506
aF-0.181735
aF-0.13742
aF-0.096697
aF-0.178666
aF-0.239982
aF-0.193528
aF-0.092978
aF-0.180775
aF-0.24682
aF-0.133308
aF-0.15861
asS'LAnkleRoll'
p39
(lp40
F-0.039728
aF-0.046799
aF-0.018366
aF-0.102578
aF-0.013765
aF-0.024648
aF-0.081885
aF-0.029028
aF-0.013845
aF-0.062692
aF-0.071735
aF-0.044232
aF-0.016739
aF-0.047331
aF-0.026476
aF-0.013771
aF-0.030494
aF-0.018366
aF-0.086038
aF-0.060935
aF-0.064905
aF-0.018366
aF-0.018366
aF-0.072864
aF-0.018366
aF-0.015298
aF-0.039111
aF-0.027078
aF-0.025526
aF-0.052881
aF-0.014262
aF-0.018366
aF-0.03887
aF-0.034936
aF-0.018366
aF-0.082283
aF-0.039728
aF-0.090294
aF-0.044798
aF-0.091219
aF-0.013764
aF-0.069073
aF-0.085298
aF-0.019724
aF-0.098662
aF-0.067666
aF-0.100052
aF-0.056558
aF-0.033811
aF-0.101295
aF-0.03181
aF-0.05007
aF-0.102578
aF-0.026815
aF-0.083771
aF-0.018366
aF-0.018366
aF-0.020733
aF-0.021991
aF-0.10427
aF-0.018366
aF-0.018366
aF-0.047413
aF-0.014525
aF-0.076928
aF-0.017693
aF-0.013764
aF-0.018366
aF-0.066379
aF-0.079038
aF-0.027469
aF-0.013771
aF-0.10242
aF-0.034162
aF-0.018366
aF-0.030494
aF-0.10416
aF-0.016803
aF-0.05861
aF-0.018366
aF-0.044332
aF-0.078226
aF-0.036604
aF-0.070703
aF-0.018366
aF-0.060935
aF-0.013875
aF-0.049338
aF-0.028427
aF-0.064386
aF-0.070703
aF-0.022802
aF-0.051826
aF-0.018366
aF-0.10427
aF-0.081675
aF-0.014139
aF-0.074376
aF-0.050008
aF-0.08667
aF-0.099763
aF-0.015114
aF-0.088719
aF-0.018366
aF-0.041711
aF-0.103835
aF-0.102336
aF-0.101664
aF-0.018366
aF-0.085298
aF-0.013956
aF-0.095232
aF-0.047331
aF-0.022214
aF-0.018982
aF-0.10427
aF-0.084223
aF-0.096179
aF-0.044493
aF-0.027078
aF-0.018366
aF-0.018366
aF-0.092766
aF-0.058755
aF-0.066003
aF-0.053129
aF-0.022954
aF-0.033762
aF-0.041662
aF-0.056558
aF-0.018536
aF-0.018366
aF-0.013765
aF-0.067821
aF-0.074356
aF-0.10427
aF-0.01389
aF-0.044332
aF-0.080016
aF-0.018366
aF-0.097465
aF-0.083559
aF-0.023767
aF-0.064386
aF-0.064386
aF-0.097893
aF-0.018366
aF-0.018366
aF-0.017982
aF-0.07944
aF-0.013778
aF-0.018366
aF-0.020002
aF-0.086038
aF-0.025181
aF-0.021402
aF-0.014262
aF-0.05276
aF-0.03181
aF-0.051826
aF-0.06143
aF-0.018366
aF-0.085029
aF-0.016101
aF-0.019029
aF-0.018366
aF-0.076323
aF-0.021402
aF-0.09701
aF-0.015298
aF-0.019414
aF-0.032667
aF-0.101649
aF-0.098662
aF-0.029571
aF-0.063663
aF-0.071104
aF-0.086038
aF-0.023479
aF-0.101664
aF-0.093371
aF-0.018366
aF-0.015698
aF-0.020891
aF-0.088672
aF-0.031386
aF-0.014411
aF-0.013767
aF-0.018366
aF-0.087004
aF-0.024736
aF-0.014008
aF-0.039111
aF-0.094812
aF-0.0908
aF-0.018366
aF-0.069499
aF-0.018366
aF-0.072
aF-0.080581
aF-0.018763
aF-0.018366
aF-0.014652
aF-0.018366
aF-0.056068
aF-0.018366
aF-0.018366
aF-0.058202
aF-0.029152
aF-0.073541
aF-0.074376
aF-0.10427
aF-0.100761
aF-0.018366
aF-0.018366
aF-0.064197
aF-0.10427
aF-0.081797
aF-0.091219
aF-0.018366
aF-0.018366
aF-0.018366
aF-0.103304
aF-0.014869
aF-0.093298
aF-0.014792
aF-0.101649
aF-0.031364
aF-0.050008
aF-0.020002
aF-0.066892
aF-0.013821
aF-0.015596
aF-0.021024
aF-0.09701
aF-0.090294
aF-0.084252
aF-0.013771
aF-0.042233
aF-0.09461
aF-0.101664
aF-0.074643
aF-0.07661
aF-0.044232
aF-0.014309
aF-0.055474
aF-0.09862
aF-0.091862
aF-0.059017
aF-0.041565
aF-0.013912
aF-0.014946
aF-0.019822
aF-0.100573
aF-0.014069
aF-0.102578
aF-0.013802
aF-0.018366
aF-0.018366
aF-0.023767
aF-0.060807
aF-0.086533
aF-0.081797
aF-0.076432
aF-0.041565
aF-0.086533
aF-0.103304
aF-0.076432
aF-0.018366
aF-0.013788
aF-0.018366
aF-0.096322
aF-0.037293
aF-0.014525
aF-0.0908
aF-0.018523
aF-0.055754
aF-0.014219
aF-0.09461
aF-0.060807
aF-0.038996
aF-0.061966
asS'LHipYawPitch'
p41
(lp42
F-0.202711
aF-0.311758
aF-0.282215
aF-0.20545
aF-0.199395
aF-0.201843
aF-0.204624
aF-0.200413
aF-0.199683
aF-0.321897
aF-0.204197
aF-0.309479
aF-0.199579
aF-0.201654
aF-0.201962
aF-0.199444
aF-0.202206
aF-0.282215
aF-0.315298
aF-0.203724
aF-0.202845
aF-0.282215
aF-0.282215
aF-0.313463
aF-0.282215
aF-0.200912
aF-0.304644
aF-0.286473
aF-0.290414
aF-0.299088
aF-0.199411
aF-0.282215
aF-0.292238
aF-0.202457
aF-0.282215
aF-0.313462
aF-0.202711
aF-0.263807
aF-0.202967
aF-0.204629
aF-0.199382
aF-0.204083
aF-0.281061
aF-0.282879
aF-0.230697
aF-0.320613
aF-0.205228
aF-0.319144
aF-0.200737
aF-0.205313
aF-0.297217
aF-0.203223
aF-0.20545
aF-0.200263
aF-0.31419
aF-0.282215
aF-0.282215
aF-0.283372
aF-0.283987
aF-0.205514
aF-0.282215
aF-0.282215
aF-0.203095
aF-0.200473
aF-0.204418
aF-0.201289
aF-0.199378
aF-0.282215
aF-0.203966
aF-0.203803
aF-0.292555
aF-0.199444
aF-0.21415
aF-0.29967
aF-0.282215
aF-0.202206
aF-0.20551
aF-0.201188
aF-0.301889
aF-0.282215
aF-0.294909
aF-0.301649
aF-0.302157
aF-0.203238
aF-0.282215
aF-0.203724
aF-0.199748
aF-0.313899
aF-0.202083
aF-0.322099
aF-0.203238
aF-0.19999
aF-0.315867
aF-0.282215
aF-0.205514
aF-0.203982
aF-0.200127
aF-0.309597
aF-0.297684
aF-0.204321
aF-0.225964
aF-0.200826
aF-0.204903
aF-0.282215
aF-0.201273
aF-0.205498
aF-0.205383
aF-0.205415
aF-0.282215
aF-0.281061
aF-0.199889
aF-0.204901
aF-0.201654
aF-0.286687
aF-0.282515
aF-0.205514
aF-0.204155
aF-0.241042
aF-0.201461
aF-0.286473
aF-0.282215
aF-0.282215
aF-0.205066
aF-0.320385
aF-0.321719
aF-0.202047
aF-0.201726
aF-0.289741
aF-0.307096
aF-0.319144
aF-0.282416
aF-0.282215
aF-0.199395
aF-0.203043
aF-0.204309
aF-0.205514
aF-0.199386
aF-0.294909
aF-0.296917
aF-0.282215
aF-0.23574
aF-0.286571
aF-0.288446
aF-0.322099
aF-0.322099
aF-0.205268
aF-0.282215
aF-0.282215
aF-0.199664
aF-0.204523
aF-0.199479
aF-0.282215
aF-0.201501
aF-0.315298
aF-0.285546
aF-0.201612
aF-0.199411
aF-0.20335
aF-0.297217
aF-0.315867
aF-0.303268
aF-0.282215
aF-0.314805
aF-0.201092
aF-0.282999
aF-0.282215
aF-0.203619
aF-0.201612
aF-0.205022
aF-0.200912
aF-0.199761
aF-0.202331
aF-0.217639
aF-0.230697
aF-0.294834
aF-0.203846
aF-0.316434
aF-0.315298
aF-0.284714
aF-0.205415
aF-0.252217
aF-0.282215
aF-0.199509
aF-0.285169
aF-0.269627
aF-0.28858
aF-0.200384
aF-0.199416
aF-0.282215
aF-0.275396
aF-0.200122
aF-0.199965
aF-0.304644
aF-0.246552
aF-0.204987
aF-0.282215
aF-0.307213
aF-0.282215
aF-0.308435
aF-0.312631
aF-0.201393
aF-0.282215
aF-0.200561
aF-0.282215
aF-0.202246
aF-0.282215
aF-0.282215
aF-0.203601
aF-0.287488
aF-0.203431
aF-0.309597
aF-0.205514
aF-0.221594
aF-0.282215
aF-0.282215
aF-0.30462
aF-0.205514
aF-0.291873
aF-0.204629
aF-0.282215
aF-0.282215
aF-0.282215
aF-0.205478
aF-0.199453
aF-0.20477
aF-0.20065
aF-0.217639
aF-0.200571
aF-0.297684
aF-0.201501
aF-0.305938
aF-0.199624
aF-0.200999
aF-0.19987
aF-0.205022
aF-0.263807
aF-0.204721
aF-0.199444
aF-0.202839
aF-0.205139
aF-0.205415
aF-0.309974
aF-0.310689
aF-0.309479
aF-0.200297
aF-0.203476
aF-0.205131
aF-0.257986
aF-0.202446
aF-0.293556
aF-0.199816
aF-0.20065
aF-0.283928
aF-0.205372
aF-0.200045
aF-0.20545
aF-0.19957
aF-0.282215
aF-0.282215
aF-0.288446
aF-0.321314
aF-0.204815
aF-0.291873
aF-0.306019
aF-0.293556
aF-0.204815
aF-0.205478
aF-0.306019
aF-0.282215
aF-0.199522
aF-0.282215
aF-0.205206
aF-0.202584
aF-0.200473
aF-0.204987
aF-0.282291
aF-0.300493
aF-0.200211
aF-0.205139
aF-0.321314
aF-0.201088
aF-0.202646
asS'RAnklePitch'
p43
(lp44
F0.093881
aF-0.015002
aF0.088899
aF0.096619
aF0.090565
aF0.093013
aF0.095794
aF0.091583
aF0.090854
aF-0.049886
aF0.095367
aF-0.007152
aF0.09075
aF0.092824
aF0.093132
aF0.090614
aF0.093376
aF0.088796
aF0.105584
aF0.094894
aF0.094015
aF0.088396
aF0.088304
aF-0.039672
aF0.087789
aF0.092082
aF0.00951
aF0.091729
aF0.058672
aF0.097996
aF0.090582
aF0.088247
aF0.094669
aF0.093627
aF0.088233
aF0.104739
aF0.093881
aF0.023052
aF0.094137
aF0.095799
aF0.090552
aF0.095253
aF0.001257
aF0.089651
aF0.064875
aF-0.048704
aF0.096398
aF-0.040421
aF0.091907
aF0.096482
aF0.035136
aF0.094393
aF0.096619
aF0.091433
aF0.105074
aF0.08824
aF0.087595
aF0.089975
aF0.090349
aF0.096684
aF0.088135
aF0.088248
aF0.094265
aF0.091643
aF0.095587
aF0.092459
aF0.090548
aF0.087698
aF0.095135
aF0.094973
aF0.051256
aF0.090614
aF0.085775
aF0.026668
aF0.088054
aF0.093376
aF0.09668
aF0.092358
aF0.09933
aF0.088001
aF0.095979
aF-0.024749
aF0.018087
aF0.094408
aF0.088247
aF0.094894
aF0.090918
aF-0.022372
aF0.093253
aF-0.05058
aF0.094408
aF0.091161
aF-0.029144
aF0.088244
aF0.096684
aF0.095152
aF0.091297
aF0.102948
aF0.097322
aF0.095491
aF0.070853
aF0.091996
aF0.096073
aF0.088261
aF0.092443
aF0.096667
aF0.096553
aF0.096584
aF0.088304
aF0.001257
aF0.091059
aF0.096071
aF0.092631
aF0.071621
aF0.08938
aF0.096684
aF0.095325
aF0.051807
aF0.092631
aF0.091729
aF0.088247
aF0.088359
aF0.096235
aF-0.044687
aF-0.0501
aF0.093217
aF0.092896
aF0.09342
aF0.001058
aF-0.040421
aF0.08667
aF0.088285
aF0.090565
aF0.094213
aF0.095479
aF0.096684
aF0.090557
aF0.095979
aF-0.018771
aF0.088624
aF0.058504
aF-0.005703
aF0.065499
aF-0.05058
aF-0.05058
aF0.096438
aF0.088271
aF0.088209
aF0.090834
aF0.095692
aF0.09065
aF0.08819
aF0.092671
aF0.105584
aF0.09123
aF0.092782
aF0.090582
aF0.09452
aF0.043371
aF-0.029144
aF0.099982
aF0.088554
aF0.105357
aF0.092262
aF0.08456
aF0.088359
aF0.094789
aF0.092782
aF0.096192
aF0.092082
aF0.090931
aF0.093501
aF0.081368
aF0.064875
aF0.043371
aF0.095016
aF-0.043424
aF0.105584
aF0.090768
aF0.096584
aF0.037691
aF0.088493
aF0.090679
aF0.076917
aF0.0157
aF0.092828
aF0.091555
aF0.090586
aF0.088233
aF0.008413
aF0.091292
aF0.091136
aF0.00951
aF0.044847
aF0.096157
aF0.088098
aF0.101836
aF0.088246
aF0.102407
aF0.104355
aF0.092563
aF0.089014
aF0.091732
aF0.08787
aF0.093416
aF0.08794
aF0.088223
aF0.094771
aF0.092264
aF0.094601
aF0.102948
aF0.096684
aF0.076372
aF0.08787
aF0.08748
aF0.10062
aF0.096684
aF-0.0124
aF0.095799
aF0.088165
aF0.088098
aF0.088328
aF0.096647
aF0.090623
aF0.09594
aF0.09182
aF0.081368
aF0.091741
aF0.097322
aF0.092671
aF0.101239
aF0.090794
aF0.09217
aF0.09104
aF0.096192
aF0.023052
aF0.095891
aF0.090614
aF0.094009
aF0.096308
aF0.096584
aF-0.035265
aF0.103456
aF-0.007152
aF0.091467
aF0.094646
aF0.096301
aF0.030404
aF0.093616
aF0.095318
aF0.090987
aF0.091909
aF0.081269
aF0.096542
aF0.091215
aF0.096619
aF0.09074
aF0.088209
aF0.088705
aF0.065499
aF-0.047882
aF0.095984
aF-0.0124
aF-0.030268
aF0.095318
aF0.095984
aF0.096647
aF-0.030268
aF0.088054
aF0.090692
aF0.08844
aF0.096376
aF0.093754
aF0.091643
aF0.096157
aF0.089167
aF0.098666
aF0.091381
aF0.096308
aF-0.047882
aF0.092259
aF0.093816
asS'LHipRoll'
p45
(lp46
F0.019018
aF0.033462
aF0.009246
aF0.105096
aF-0.015297
aF-0.001441
aF0.076685
aF0.005399
aF-0.015217
aF0.048784
aF0.062769
aF0.031167
aF-0.011264
aF0.030216
aF0.001026
aF-0.015291
aF0.006466
aF0.009246
aF0.096467
aF0.047979
aF0.054045
aF0.009246
aF0.009246
aF0.061181
aF0.009246
aF-0.013764
aF0.02667
aF0.020474
aF0.015132
aF0.053732
aF-0.014622
aF0.009246
aF0.035673
aF0.012497
aF0.009246
aF0.091627
aF0.019018
aF0.085861
aF0.025928
aF0.089725
aF-0.015298
aF0.059122
aF0.078497
aF0.010997
aF0.098598
aF0.054555
aF0.101703
aF0.042546
aF0.011885
aF0.103387
aF0.020407
aF0.033126
aF0.105096
aF0.002398
aF0.093546
aF0.009246
aF0.009246
aF0.012297
aF0.013918
aF0.107422
aF0.009246
aF0.009246
aF0.029497
aF-0.014537
aF0.069887
aF-0.010735
aF-0.015298
aF0.009246
aF0.055433
aF0.073209
aF0.016752
aF-0.015291
aF0.10448
aF0.022407
aF0.009246
aF0.006466
aF0.10727
aF-0.011897
aF0.061116
aF0.009246
aF0.042713
aF0.068441
aF0.024501
aF0.061907
aF0.009246
aF0.047979
aF-0.015187
aF0.035764
aF0.003665
aF0.050664
aF0.061907
aF-0.003043
aF0.038056
aF0.009246
aF0.107422
aF0.076785
aF-0.014924
aF0.081436
aF0.050029
aF0.083558
aF0.10031
aF-0.013948
aF0.086062
aF0.009246
aF0.022596
aF0.106824
aF0.104799
aF0.10384
aF0.009246
aF0.078497
aF-0.015106
aF0.095167
aF0.030216
aF0.012391
aF0.010039
aF0.107422
aF0.080239
aF0.09477
aF0.026368
aF0.020474
aF0.009246
aF0.009246
aF0.091618
aF0.044708
aF0.052548
aF0.038079
aF-0.003722
aF0.02909
aF0.028898
aF0.042546
aF0.009383
aF0.009246
aF-0.015297
aF0.057999
aF0.066362
aF0.107422
aF-0.015127
aF0.042713
aF0.070941
aF0.009246
aF0.096747
aF0.075982
aF0.013672
aF0.050664
aF0.050664
aF0.098658
aF0.009246
aF0.009246
aF-0.009579
aF0.073332
aF-0.015284
aF0.009246
aF-0.007676
aF0.096467
aF0.01803
aF-0.005805
aF-0.014622
aF0.036801
aF0.020407
aF0.038056
aF0.06475
aF0.009246
aF0.095167
aF-0.012798
aF0.009783
aF0.009246
aF0.069528
aF-0.005805
aF0.097578
aF-0.013764
aF-0.007638
aF0.009414
aF0.103264
aF0.098598
aF0.018516
aF0.051714
aF0.058884
aF0.096467
aF0.015836
aF0.10384
aF0.090489
aF0.009246
aF-0.012676
aF0.011304
aF0.083449
aF0.026027
aF-0.014651
aF-0.015295
aF0.009246
aF0.08099
aF-0.000421
aF-0.015054
aF0.02667
aF0.092679
aF0.088918
aF0.009246
aF0.075151
aF0.009246
aF0.078374
aF0.089434
aF-0.009324
aF0.009246
aF-0.01441
aF0.009246
aF0.042063
aF0.009246
aF0.009246
aF0.04424
aF0.023148
aF0.065755
aF0.081436
aF0.107422
aF0.10187
aF0.009246
aF0.009246
aF0.068316
aF0.107422
aF0.073459
aF0.089725
aF0.009246
aF0.009246
aF0.009246
aF0.106095
aF-0.0138
aF0.092545
aF-0.01427
aF0.103264
aF0.008566
aF0.050029
aF-0.007676
aF0.071791
aF-0.015241
aF-0.013425
aF-0.005454
aF0.097578
aF0.085861
aF0.079933
aF-0.015291
aF0.022431
aF0.09415
aF0.10384
aF0.063548
aF0.084316
aF0.031167
aF-0.014753
aF0.04051
aF0.099761
aF0.088212
aF0.046062
aF0.039147
aF-0.01515
aF-0.01427
aF0.010429
aF0.102341
aF-0.014994
aF0.105096
aF-0.01526
aF0.009246
aF0.009246
aF0.013672
aF0.046794
aF0.083063
aF0.073459
aF0.065973
aF0.039147
aF0.083063
aF0.106095
aF0.065973
aF0.009246
aF-0.015274
aF0.009246
aF0.096501
aF0.015703
aF-0.014537
aF0.088918
aF0.009448
aF0.057435
aF-0.014844
aF0.09415
aF0.046794
aF0.018915
aF0.050061
asS'RHipRoll'
p47
(lp48
F-0.084839
aF-0.092952
aF-0.177901
aF-0.035064
aF-0.101554
aF-0.096366
aF-0.051603
aF-0.088562
aF-0.102362
aF-0.056109
aF-0.059672
aF-0.099974
aF-0.098221
aF-0.074914
aF-0.094996
aF-0.101848
aF-0.09195
aF-0.177901
aF-0.063612
aF-0.068221
aF-0.062064
aF-0.177901
aF-0.177901
aF-0.045247
aF-0.177901
aF-0.102736
aF-0.114463
aF-0.163189
aF-0.155241
aF-0.11961
aF-0.100479
aF-0.177901
aF-0.143273
aF-0.088545
aF-0.177901
aF-0.069954
aF-0.084839
aF-0.036199
aF-0.080894
aF-0.043055
aF-0.101386
aF-0.061783
aF-0.038013
aF-0.175608
aF-0.034244
aF-0.04992
aF-0.036721
aF-0.068392
aF-0.084953
aF-0.035832
aF-0.13601
aF-0.07677
aF-0.035064
aF-0.090248
aF-0.06744
aF-0.177901
aF-0.177901
aF-0.173903
aF-0.171779
aF-0.033706
aF-0.177901
aF-0.177901
aF-0.078851
aF-0.102722
aF-0.055548
aF-0.101378
aF-0.101202
aF-0.177901
aF-0.063917
aF-0.051827
aF-0.149233
aF-0.101848
aF-0.033798
aF-0.128969
aF-0.177901
aF-0.09195
aF-0.033795
aF-0.101961
aF-0.109934
aF-0.177901
aF-0.134048
aF-0.041571
aF-0.121757
aF-0.057856
aF-0.177901
aF-0.068221
aF-0.102432
aF-0.086197
aF-0.093522
aF-0.053648
aF-0.057856
aF-0.093345
aF-0.079793
aF-0.177901
aF-0.033706
aF-0.049924
aF-0.102655
aF-0.083307
aF-0.124462
aF-0.046326
aF-0.034084
aF-0.102736
aF-0.046154
aF-0.177901
aF-0.079065
aF-0.034056
aF-0.035087
aF-0.035797
aF-0.177901
aF-0.038013
aF-0.102544
aF-0.040175
aF-0.077007
aF-0.165614
aF-0.176862
aF-0.033706
aF-0.048088
aF-0.034689
aF-0.077007
aF-0.163189
aF-0.177901
aF-0.177901
aF-0.04292
aF-0.063568
aF-0.05172
aF-0.070655
aF-0.097623
aF-0.151899
aF-0.107173
aF-0.068392
aF-0.177352
aF-0.177901
aF-0.101554
aF-0.059946
aF-0.057591
aF-0.033706
aF-0.100924
aF-0.134048
aF-0.040546
aF-0.177901
aF-0.034445
aF-0.038772
aF-0.16073
aF-0.053648
aF-0.053648
aF-0.038819
aF-0.177901
aF-0.177901
aF-0.097187
aF-0.053549
aF-0.101975
aF-0.177901
aF-0.09977
aF-0.063612
aF-0.166392
aF-0.09876
aF-0.100479
aF-0.074659
aF-0.13601
aF-0.079793
aF-0.105172
aF-0.177901
aF-0.065316
aF-0.102386
aF-0.175761
aF-0.177901
aF-0.053788
aF-0.09876
aF-0.0389
aF-0.102736
aF-0.096024
aF-0.090288
aF-0.033866
aF-0.034244
aF-0.142793
aF-0.066065
aF-0.046688
aF-0.063612
aF-0.169266
aF-0.035797
aF-0.035329
aF-0.177901
aF-0.09912
aF-0.169805
aF-0.036731
aF-0.155912
aF-0.102712
aF-0.101708
aF-0.177901
aF-0.037335
aF-0.091845
aF-0.102588
aF-0.114463
aF-0.034982
aF-0.044492
aF-0.177901
aF-0.091543
aF-0.177901
aF-0.08732
aF-0.072827
aF-0.100645
aF-0.177901
aF-0.102729
aF-0.177901
aF-0.068505
aF-0.177901
aF-0.177901
aF-0.070377
aF-0.159685
aF-0.0558
aF-0.083307
aF-0.033706
aF-0.033959
aF-0.177901
aF-0.177901
aF-0.100499
aF-0.033706
aF-0.039615
aF-0.043055
aF-0.177901
aF-0.177901
aF-0.177901
aF-0.034481
aF-0.099876
aF-0.041562
aF-0.102733
aF-0.033866
aF-0.086794
aF-0.124462
aF-0.09977
aF-0.095946
aF-0.102282
aF-0.102647
aF-0.094741
aF-0.0389
aF-0.036199
aF-0.049716
aF-0.101848
aF-0.082893
aF-0.041446
aF-0.035797
aF-0.043916
aF-0.079534
aF-0.099974
aF-0.102698
aF-0.072525
aF-0.037746
aF-0.035733
aF-0.066351
aF-0.13872
aF-0.102492
aF-0.102735
aF-0.173217
aF-0.036672
aF-0.102625
aF-0.035064
aF-0.102191
aF-0.177901
aF-0.177901
aF-0.16073
aF-0.059444
aF-0.047897
aF-0.039615
aF-0.042692
aF-0.13872
aF-0.047897
aF-0.034481
aF-0.042692
aF-0.177901
aF-0.102089
aF-0.177901
aF-0.040076
aF-0.086726
aF-0.102722
aF-0.044492
aF-0.177637
aF-0.114757
aF-0.102679
aF-0.041446
aF-0.059444
aF-0.08108
aF-0.064202
asS'RElbowRoll'
p49
(lp50
F0.280942
aF1.000559
aF0.451116
aF0.459681
aF0.317244
aF0.246618
aF0.395253
aF0.373831
aF0.286962
aF1.108501
aF0.3661
aF0.971614
aF0.343823
aF0.405089
aF0.250381
aF0.309166
aF0.259139
aF0.451377
aF0.459792
aF0.336132
aF0.430205
aF0.453418
aF0.454983
aF1.037649
aF0.511893
aF0.234328
aF0.907514
aF0.448412
aF0.699734
aF0.448632
aF0.332212
aF0.462197
aF0.447753
aF0.269389
aF0.470191
aF0.456685
aF0.280942
aF0.700026
aF0.2936
aF0.463941
aF0.321095
aF0.358613
aF0.83152
aF0.449941
aF0.562512
aF1.090685
aF0.470053
aF1.085876
aF0.382786
aF0.47099
aF0.80284
aF0.307159
aF0.456417
aF0.369387
aF0.457476
aF0.468295
aF0.528802
aF0.449616
aF0.449291
aF0.47036
aF0.482924
aF0.45987
aF0.300279
aF0.244918
aF0.380893
aF0.234731
aF0.324845
aF0.519643
aF0.351104
aF0.448145
aF0.733086
aF0.313271
aF0.495373
aF0.838225
aF0.490224
aF0.259139
aF0.466423
aF0.233847
aF0.44944
aF0.494588
aF0.447905
aF0.959218
aF0.87328
aF0.437798
aF0.463525
aF0.336132
aF0.282325
aF1.026851
aF0.254562
aF1.10703
aF0.437798
aF0.360615
aF1.050081
aF0.466562
aF0.467793
aF0.451269
aF0.259836
aF0.453506
aF0.448323
aF0.456961
aF0.541552
aF0.235522
aF0.415483
aF0.457084
aF0.396233
aF0.464675
aF0.471698
aF0.456417
aF0.454983
aF0.83152
aF0.273085
aF0.465812
aF0.405089
aF0.638659
aF0.450258
aF0.470873
aF0.454212
aF0.61175
aF0.400679
aF0.44868
aF0.460981
aF0.453888
aF0.427765
aF1.0978
aF1.101027
aF0.413761
aF0.243293
aF0.447855
aF0.940448
aF1.085876
aF0.552904
aF0.455617
aF0.317244
aF0.434064
aF0.373536
aF0.469704
aF0.328532
aF0.447905
aF0.929022
aF0.451937
aF0.585988
aF0.864567
aF0.668085
aF1.101027
aF1.10703
aF0.443869
aF0.456315
aF0.474551
aF0.347902
aF0.388141
aF0.304931
aF0.477064
aF0.238031
aF0.45902
aF0.44868
aF0.240424
aF0.332212
aF0.314211
aF0.80284
aF1.050081
aF0.449934
aF0.452256
aF0.458253
aF0.233485
aF0.568919
aF0.454408
aF0.444851
aF0.240424
aF0.467465
aF0.234328
aF0.352067
aF0.264089
aF0.507879
aF0.562512
aF0.767625
aF0.343601
aF1.058604
aF0.458253
aF0.448976
aF0.456417
aF0.669067
aF0.452606
aF0.339841
aF0.611974
aF0.764928
aF0.447993
aF0.248233
aF0.313271
aF0.470191
aF0.798188
aF0.364978
aF0.268551
aF0.940448
aF0.639539
aF0.421763
aF0.486363
aF0.452003
aF0.464976
aF0.452753
aF0.455874
aF0.236129
aF0.450847
aF0.241948
aF0.505271
aF0.418001
aF0.49956
aF0.472269
aF0.328726
aF0.44818
aF0.441398
aF0.453506
aF0.470873
aF0.523296
aF0.505271
aF0.539733
aF0.450483
aF0.468865
aF0.864567
aF0.461836
aF0.479841
aF0.486363
aF0.454408
aF0.462442
aF0.335968
aF0.463941
aF0.239364
aF0.507879
aF0.378301
aF0.448323
aF0.238031
aF0.45125
aF0.291568
aF0.233646
aF0.356308
aF0.467465
aF0.732091
aF0.402199
aF0.309166
aF0.287145
aF0.433459
aF0.456417
aF1.013871
aF0.454265
aF1.000559
aF0.251852
aF0.321409
aF0.468879
aF0.700026
aF0.422163
aF0.447796
aF0.277689
aF0.239364
aF0.588554
aF0.452677
aF0.264122
aF0.456417
aF0.296114
aF0.474551
aF0.451646
aF0.668085
aF1.105399
aF0.408952
aF0.897362
aF0.987614
aF0.447796
aF0.408952
aF0.462442
aF0.987614
aF0.490224
aF0.300575
aF0.452992
aF0.438852
aF0.275014
aF0.244918
aF0.421763
aF0.450561
aF0.449005
aF0.255733
aF0.433459
aF1.105399
aF0.391762
aF0.426234
asS'RKneePitch'
p51
(lp52
F-0.085142
aF0.262242
aF-0.082856
aF-0.088842
aF-0.081274
aF-0.083993
aF-0.087718
aF-0.082554
aF-0.081521
aF0.381172
aF-0.08714
aF0.235505
aF-0.081512
aF-0.084105
aF-0.08415
aF-0.081315
aF-0.084472
aF-0.082918
aF-0.079772
aF-0.086501
aF-0.085594
aF-0.083279
aF-0.083451
aF0.348543
aF-0.084314
aF-0.082794
aF0.178781
aF-0.082106
aF0.011859
aF-0.08098
aF-0.081302
aF-0.083856
aF-0.081553
aF-0.084804
aF-0.084059
aF-0.079902
aF-0.085142
aF0.147306
aF-0.085485
aF-0.087824
aF-0.081264
aF-0.086985
aF0.217231
aF-0.082577
aF0.013124
aF0.377522
aF-0.088573
aF0.348884
aF-0.082959
aF-0.088678
aF0.091664
aF-0.085827
aF-0.088842
aF-0.082366
aF-0.07985
aF-0.084023
aF-0.084326
aF-0.082492
aF-0.082402
aF-0.08893
aF-0.084212
aF-0.083763
aF-0.085656
aF-0.082288
aF-0.087438
aF-0.083273
aF-0.08126
aF-0.084322
aF-0.086827
aF-0.086792
aF0.036971
aF-0.081315
aF-0.053932
aF0.120433
aF-0.084256
aF-0.084472
aF-0.088924
aF-0.083144
aF-0.08076
aF-0.084275
aF-0.081323
aF0.300666
aF0.149607
aF-0.086085
aF-0.083901
aF-0.086501
aF-0.081578
aF0.287355
aF-0.084309
aF0.383541
aF-0.086085
aF-0.082026
aF0.310437
aF-0.083984
aF-0.08893
aF-0.087015
aF-0.081934
aF-0.08018
aF-0.081093
aF-0.087439
aF-0.006055
aF-0.082688
aF-0.088097
aF-0.083613
aF-0.083628
aF-0.088908
aF-0.088766
aF-0.088794
aF-0.083451
aF0.217231
aF-0.081707
aF-0.088164
aF-0.083864
aF-0.031869
aF-0.082656
aF-0.08893
aF-0.087231
aF0.055051
aF-0.083864
aF-0.082106
aF-0.083811
aF-0.083337
aF-0.088318
aF0.363438
aF0.382001
aF-0.084596
aF-0.08384
aF-0.08178
aF0.207549
aF0.348884
aF-0.081959
aF-0.083506
aF-0.081274
aF-0.085841
aF-0.087291
aF-0.08893
aF-0.081271
aF-0.081323
aF0.281488
aF-0.083041
aF0.033562
aF0.23956
aF-0.011223
aF0.383541
aF0.383541
aF-0.088594
aF-0.08356
aF-0.084127
aF-0.081618
aF-0.087581
aF-0.081344
aF-0.084158
aF-0.083547
aF-0.079772
aF-0.082209
aF-0.083692
aF-0.081302
aF-0.085998
aF0.063709
aF0.310437
aF-0.080653
aF-0.083101
aF-0.079807
aF-0.083021
aF-0.075122
aF-0.083337
aF-0.086562
aF-0.083692
aF-0.088315
aF-0.082794
aF-0.081739
aF-0.084637
aF-0.039793
aF0.013124
aF0.063709
aF-0.086665
aF0.360583
aF-0.079772
aF-0.082308
aF-0.088794
aF0.100338
aF-0.083161
aF-0.081424
aF-0.049671
aF0.170894
aF-0.081891
aF-0.082195
aF-0.081291
aF-0.084059
aF0.194273
aF-0.08219
aF-0.081779
aF0.178781
aF0.07738
aF-0.088211
aF-0.084235
aF-0.080356
aF-0.083943
aF-0.080265
aF-0.079961
aF-0.083407
aF-0.082794
aF-0.082385
aF-0.084304
aF-0.084845
aF-0.084291
aF-0.084094
aF-0.086335
aF-0.082
aF-0.086326
aF-0.08018
aF-0.08893
aF-0.023764
aF-0.084304
aF-0.084328
aF-0.08055
aF-0.08893
aF0.261049
aF-0.087824
aF-0.084186
aF-0.084235
aF-0.083394
aF-0.08888
aF-0.081354
aF-0.088
aF-0.082483
aF-0.039793
aF-0.082752
aF-0.081093
aF-0.083547
aF-0.080451
aF-0.081468
aF-0.082904
aF-0.081875
aF-0.088315
aF0.147306
aF-0.08785
aF-0.081315
aF-0.085313
aF-0.088418
aF-0.088794
aF0.334404
aF-0.080101
aF0.235505
aF-0.082105
aF-0.086167
aF-0.088451
aF0.123717
aF-0.085095
aF-0.081438
aF-0.081641
aF-0.082585
aF-0.064224
aF-0.088736
aF-0.081855
aF-0.088842
aF-0.081421
aF-0.084127
aF-0.08298
aF-0.011223
aF0.374336
aF-0.087977
aF0.261049
aF0.318375
aF-0.081438
aF-0.087977
aF-0.08888
aF0.318375
aF-0.084256
aF-0.08138
aF-0.083221
aF-0.08851
aF-0.084972
aF-0.082288
aF-0.088211
aF-0.082728
aF-0.080869
aF-0.082018
aF-0.088418
aF0.374336
aF-0.083398
aF-0.085345
as.